
assignment2.elf:     file format elf32-littlenios2
assignment2.elf
architecture: nios2, flags 0x00000112:
EXEC_P, HAS_SYMS, D_PAGED
start address 0x008001b4

Program Header:
    LOAD off    0x00001000 vaddr 0x00800000 paddr 0x00800000 align 2**12
         filesz 0x00000020 memsz 0x00000020 flags r-x
    LOAD off    0x00001020 vaddr 0x00800020 paddr 0x00800020 align 2**12
         filesz 0x0000b868 memsz 0x0000b868 flags r-x
    LOAD off    0x0000c888 vaddr 0x0080b888 paddr 0x0080d4c0 align 2**12
         filesz 0x00001c38 memsz 0x00001c38 flags rw-
    LOAD off    0x0000f0f8 vaddr 0x0080f0f8 paddr 0x0080f0f8 align 2**12
         filesz 0x00000000 memsz 0x00000510 flags rw-

Sections:
Idx Name          Size      VMA       LMA       File off  Algn
  0 .entry        00000020  00800000  00800000  00001000  2**5
                  CONTENTS, ALLOC, LOAD, READONLY, CODE
  1 .exceptions   00000194  00800020  00800020  00001020  2**2
                  CONTENTS, ALLOC, LOAD, READONLY, CODE
  2 .text         0000b288  008001b4  008001b4  000011b4  2**2
                  CONTENTS, ALLOC, LOAD, READONLY, CODE
  3 .rodata       0000044c  0080b43c  0080b43c  0000c43c  2**2
                  CONTENTS, ALLOC, LOAD, READONLY, DATA
  4 .rwdata       00001c38  0080b888  0080d4c0  0000c888  2**2
                  CONTENTS, ALLOC, LOAD, DATA, SMALL_DATA
  5 .bss          00000510  0080f0f8  0080f0f8  0000f0f8  2**2
                  ALLOC, SMALL_DATA
  6 .comment      00000023  00000000  00000000  0000e4c0  2**0
                  CONTENTS, READONLY
  7 .debug_aranges 00000a58  00000000  00000000  0000e4e8  2**3
                  CONTENTS, READONLY, DEBUGGING
  8 .debug_pubnames 00001ee6  00000000  00000000  0000ef40  2**0
                  CONTENTS, READONLY, DEBUGGING
  9 .debug_info   0001f278  00000000  00000000  00010e26  2**0
                  CONTENTS, READONLY, DEBUGGING
 10 .debug_abbrev 00005c13  00000000  00000000  0003009e  2**0
                  CONTENTS, READONLY, DEBUGGING
 11 .debug_line   0000fe23  00000000  00000000  00035cb1  2**0
                  CONTENTS, READONLY, DEBUGGING
 12 .debug_frame  00001668  00000000  00000000  00045ad4  2**2
                  CONTENTS, READONLY, DEBUGGING
 13 .debug_str    000018a5  00000000  00000000  0004713c  2**0
                  CONTENTS, READONLY, DEBUGGING
 14 .debug_loc    000047ed  00000000  00000000  000489e1  2**0
                  CONTENTS, READONLY, DEBUGGING
 15 .debug_alt_sim_info 00000060  00000000  00000000  0004d1d0  2**2
                  CONTENTS, READONLY, DEBUGGING
 16 .debug_ranges 000002f8  00000000  00000000  0004d230  2**3
                  CONTENTS, READONLY, DEBUGGING
 17 .thread_model 00000003  00000000  00000000  000520b1  2**0
                  CONTENTS, READONLY
 18 .cpu          00000003  00000000  00000000  000520b4  2**0
                  CONTENTS, READONLY
 19 .qsys         00000001  00000000  00000000  000520b7  2**0
                  CONTENTS, READONLY
 20 .simulation_enabled 00000001  00000000  00000000  000520b8  2**0
                  CONTENTS, READONLY
 21 .sysid_hash   00000004  00000000  00000000  000520b9  2**0
                  CONTENTS, READONLY
 22 .sysid_base   00000004  00000000  00000000  000520bd  2**0
                  CONTENTS, READONLY
 23 .sysid_time   00000004  00000000  00000000  000520c1  2**0
                  CONTENTS, READONLY
 24 .stderr_dev   00000009  00000000  00000000  000520c5  2**0
                  CONTENTS, READONLY
 25 .stdin_dev    00000009  00000000  00000000  000520ce  2**0
                  CONTENTS, READONLY
 26 .stdout_dev   00000009  00000000  00000000  000520d7  2**0
                  CONTENTS, READONLY
 27 .sopc_system_name 00000006  00000000  00000000  000520e0  2**0
                  CONTENTS, READONLY
 28 .quartus_project_dir 00000056  00000000  00000000  000520e6  2**0
                  CONTENTS, READONLY
 29 .sopcinfo     00065aec  00000000  00000000  0005213c  2**0
                  CONTENTS, READONLY
SYMBOL TABLE:
00800000 l    d  .entry	00000000 .entry
00800020 l    d  .exceptions	00000000 .exceptions
008001b4 l    d  .text	00000000 .text
0080b43c l    d  .rodata	00000000 .rodata
0080b888 l    d  .rwdata	00000000 .rwdata
0080f0f8 l    d  .bss	00000000 .bss
00000000 l    d  .comment	00000000 .comment
00000000 l    d  .debug_aranges	00000000 .debug_aranges
00000000 l    d  .debug_pubnames	00000000 .debug_pubnames
00000000 l    d  .debug_info	00000000 .debug_info
00000000 l    d  .debug_abbrev	00000000 .debug_abbrev
00000000 l    d  .debug_line	00000000 .debug_line
00000000 l    d  .debug_frame	00000000 .debug_frame
00000000 l    d  .debug_str	00000000 .debug_str
00000000 l    d  .debug_loc	00000000 .debug_loc
00000000 l    d  .debug_alt_sim_info	00000000 .debug_alt_sim_info
00000000 l    d  .debug_ranges	00000000 .debug_ranges
008001fc l       .text	00000000 alt_after_alt_main
00000000 l    df *ABS*	00000000 alt_irq_handler.c
00000000 l    df *ABS*	00000000 hello_world.c
0080d47c l     O .rwdata	00000004 buttonValue
0080f0f8 l     O .bss	00000004 vpace_LED_on
0080f0fc l     O .bss	00000004 apace_LED_on
0080f100 l     O .bss	00000004 pvarp_running
0080f104 l     O .bss	00000004 vrp_running
0080f108 l     O .bss	00000004 aei_running
0080f10c l     O .bss	00000004 crit_flag
0080f110 l     O .bss	00000004 setAVITO
0080f114 l     O .bss	00000004 setAEITO
0080f118 l     O .bss	00000004 setPVARPTO
0080f11c l     O .bss	00000004 setVRPTO
0080f120 l     O .bss	00000004 setLRITO
0080f124 l     O .bss	00000004 setURITO
0080f290 l     O .bss	00000018 avi_timer
0080f2a8 l     O .bss	00000018 aei_timer
0080f2c0 l     O .bss	00000018 pvarp_timer
0080f2d8 l     O .bss	00000018 vrp_timer
0080f2f0 l     O .bss	00000018 lri_timer
0080f308 l     O .bss	00000018 uri_timer
0080f320 l     O .bss	00000018 debounce_timer
0080f338 l     O .bss	00000018 LED_timer
00000000 l    df *ABS*	00000000 sccharts.c
00000000 l    df *ABS*	00000000 puts.c
00000000 l    df *ABS*	00000000 strlen.c
00000000 l    df *ABS*	00000000 fvwrite.c
00000000 l    df *ABS*	00000000 impure.c
0080b888 l     O .rwdata	00000400 impure_data
00000000 l    df *ABS*	00000000 mallocr.c
00000000 l    df *ABS*	00000000 memchr.c
00000000 l    df *ABS*	00000000 memcpy.c
00000000 l    df *ABS*	00000000 memmove.c
00000000 l    df *ABS*	00000000 mallocr.c
00000000 l    df *ABS*	00000000 sbrkr.c
00000000 l    df *ABS*	00000000 wsetup.c
00000000 l    df *ABS*	00000000 fflush.c
00000000 l    df *ABS*	00000000 findfp.c
00805c24 l     F .text	00000058 std
00805d30 l     F .text	00000008 __fp_lock
00805d38 l     F .text	00000008 __fp_unlock
00000000 l    df *ABS*	00000000 mallocr.c
00000000 l    df *ABS*	00000000 fwalk.c
00000000 l    df *ABS*	00000000 int_errno.c
00000000 l    df *ABS*	00000000 makebuf.c
00000000 l    df *ABS*	00000000 memset.c
00000000 l    df *ABS*	00000000 stdio.c
00000000 l    df *ABS*	00000000 writer.c
00000000 l    df *ABS*	00000000 closer.c
00000000 l    df *ABS*	00000000 fclose.c
00000000 l    df *ABS*	00000000 fstatr.c
00000000 l    df *ABS*	00000000 isattyr.c
00000000 l    df *ABS*	00000000 lseekr.c
00000000 l    df *ABS*	00000000 readr.c
00000000 l    df *ABS*	00000000 alt_alarm_start.c
00000000 l    df *ABS*	00000000 alt_close.c
00806e4c l     F .text	00000060 alt_get_errno
00000000 l    df *ABS*	00000000 alt_dev.c
00806eac l     F .text	0000002c alt_dev_null_write
00000000 l    df *ABS*	00000000 alt_errno.c
00000000 l    df *ABS*	00000000 alt_fstat.c
00806fac l     F .text	00000060 alt_get_errno
00000000 l    df *ABS*	00000000 alt_irq_register.c
00000000 l    df *ABS*	00000000 alt_irq_vars.c
00000000 l    df *ABS*	00000000 alt_isatty.c
0080728c l     F .text	00000060 alt_get_errno
00000000 l    df *ABS*	00000000 alt_load.c
0080736c l     F .text	0000006c alt_load_section
00000000 l    df *ABS*	00000000 alt_lseek.c
008074c8 l     F .text	00000060 alt_get_errno
00000000 l    df *ABS*	00000000 alt_main.c
00000000 l    df *ABS*	00000000 alt_malloc_lock.c
00000000 l    df *ABS*	00000000 alt_open.c
008075d4 l     F .text	000000dc alt_file_locked
00807838 l     F .text	00000060 alt_get_errno
00000000 l    df *ABS*	00000000 alt_read.c
008079b8 l     F .text	00000060 alt_get_errno
00000000 l    df *ABS*	00000000 alt_release_fd.c
00000000 l    df *ABS*	00000000 alt_sbrk.c
0080d4ac l     O .rwdata	00000004 heap_end
00000000 l    df *ABS*	00000000 alt_tick.c
00000000 l    df *ABS*	00000000 alt_write.c
00807df8 l     F .text	00000060 alt_get_errno
00000000 l    df *ABS*	00000000 alt_sys_init.c
0080c238 l     O .rwdata	00001060 jtag_uart
0080d298 l     O .rwdata	00000120 lcd
0080d3b8 l     O .rwdata	000000c4 uart
00807f20 l     F .text	00000038 alt_dev_reg
00000000 l    df *ABS*	00000000 altera_avalon_jtag_uart_fd.c
00000000 l    df *ABS*	00000000 altera_avalon_jtag_uart_init.c
00808160 l     F .text	00000228 altera_avalon_jtag_uart_irq
00808388 l     F .text	000000b0 altera_avalon_jtag_uart_timeout
00000000 l    df *ABS*	00000000 altera_avalon_jtag_uart_ioctl.c
00000000 l    df *ABS*	00000000 altera_avalon_jtag_uart_read.c
00000000 l    df *ABS*	00000000 altera_avalon_jtag_uart_write.c
00000000 l    df *ABS*	00000000 altera_avalon_lcd_16207.c
0080d4b8 l     O .rwdata	00000004 colstart
00808a04 l     F .text	000000b8 lcd_write_command
00808abc l     F .text	000000d4 lcd_write_data
00808b90 l     F .text	000000c4 lcd_clear_screen
00808c54 l     F .text	000001ec lcd_repaint_screen
00808e40 l     F .text	000000c8 lcd_scroll_up
00808f08 l     F .text	000002d0 lcd_handle_escape
008096e4 l     F .text	000000cc alt_lcd_16207_timeout
00000000 l    df *ABS*	00000000 altera_avalon_lcd_16207_fd.c
00000000 l    df *ABS*	00000000 altera_avalon_timer_sc.c
00809944 l     F .text	00000070 alt_avalon_timer_sc_irq
00000000 l    df *ABS*	00000000 altera_avalon_uart_fd.c
00000000 l    df *ABS*	00000000 altera_avalon_uart_init.c
00809c04 l     F .text	0000009c altera_avalon_uart_irq
00809ca0 l     F .text	000000e0 altera_avalon_uart_rxirq
00809d80 l     F .text	0000015c altera_avalon_uart_txirq
00000000 l    df *ABS*	00000000 altera_avalon_uart_read.c
0080a16c l     F .text	00000060 alt_get_errno
00000000 l    df *ABS*	00000000 altera_avalon_uart_write.c
0080a394 l     F .text	00000060 alt_get_errno
00000000 l    df *ABS*	00000000 alt_dcache_flush_all.c
00000000 l    df *ABS*	00000000 alt_dev_llist_insert.c
0080a4ec l     F .text	00000060 alt_get_errno
00000000 l    df *ABS*	00000000 alt_do_ctors.c
00000000 l    df *ABS*	00000000 alt_do_dtors.c
00000000 l    df *ABS*	00000000 alt_find_dev.c
00000000 l    df *ABS*	00000000 alt_find_file.c
00000000 l    df *ABS*	00000000 alt_get_fd.c
00000000 l    df *ABS*	00000000 alt_icache_flush_all.c
00000000 l    df *ABS*	00000000 alt_iic.c
00000000 l    df *ABS*	00000000 alt_iic_isr_register.c
00000000 l    df *ABS*	00000000 alt_io_redirect.c
0080ab7c l     F .text	000000c4 alt_open_fd
00000000 l    df *ABS*	00000000 alt_usleep.c
00000000 l    df *ABS*	00000000 altera_nios2_qsys_irq.c
00000000 l    df *ABS*	00000000 alt_busy_sleep.c
00000000 l    df *ABS*	00000000 alt_icache_flush.c
00000000 l    df *ABS*	00000000 atexit.c
00000000 l    df *ABS*	00000000 ctype_.c
0080b708 l     O .rodata	00000180 _ctype_b
00000000 l    df *ABS*	00000000 exit.c
00000000 l    df *ABS*	00000000 memcmp.c
00000000 l    df *ABS*	00000000 __atexit.c
00000000 l    df *ABS*	00000000 __call_atexit.c
0080b0d8 l     F .text	00000004 register_fini
00000000 l    df *ABS*	00000000 lib2-divmod.c
0080b28c l     F .text	0000007c udivmodsi4
00000000 l    df *ABS*	00000000 alt_exit.c
0080b3d8 l     F .text	00000040 alt_sim_halt
0080f134 g     O .bss	00000001 _cg81
0080f135 g     O .bss	00000001 g40
0080f136 g     O .bss	00000001 g83
0080f137 g     O .bss	00000001 g143_e2
00806a9c g     F .text	00000070 _isatty_r
0080f138 g     O .bss	00000001 g91
00807528 g     F .text	0000006c alt_main
0080f139 g     O .bss	00000001 _compsys303_a2_local_URI_stop
008042ec g     F .text	000000a0 _puts_r
0080f13a g     O .bss	00000001 APace
0080f378 g     O .bss	00000100 alt_irq
00806b0c g     F .text	00000078 _lseek_r
0080f13b g     O .bss	00000001 g139
0080f13c g     O .bss	00000001 g4
0080d4c0 g       *ABS*	00000000 __flash_rwdata_start
0080f13d g     O .bss	00000001 g108
0080f13e g     O .bss	00000001 g19
0080f13f g     O .bss	00000001 g111
0080f608 g       *ABS*	00000000 __alt_heap_start
008066d8 g     F .text	00000068 __sseek
00805c8c g     F .text	000000a4 __sinit
0080f140 g     O .bss	00000001 g139_fix1
0080f141 g     O .bss	00000001 g55
0080f142 g     O .bss	00000001 _cg59
0080f143 g     O .bss	00000001 g27
0080f144 g     O .bss	00000001 g94_e9
00805d8c g     F .text	00000068 __sfmoreglue
008075b4 g     F .text	00000020 __malloc_unlock
0080f145 g     O .bss	00000001 PRE_g90
0080f146 g     O .bss	00000001 _compsys303_a2_local_AEI_start
0080f147 g     O .bss	00000001 g112
0080f148 g     O .bss	00000001 g139_e1_fix_fix
0080f149 g     O .bss	00000001 g3
0080f14a g     O .bss	00000001 URI_NOTRUNNING
0080f14b g     O .bss	00000001 g31b
0080f128 g     O .bss	00000004 fp
00805174 g     F .text	000000e0 memmove
0080f14c g     O .bss	00000001 g103
0080f14d g     O .bss	00000001 PRE_g27
0080f14e g     O .bss	00000001 g47
0080f14f g     O .bss	00000001 g86_e8
0080f150 g     O .bss	00000001 g85
0080f151 g     O .bss	00000001 g42
00805d7c g     F .text	00000010 _cleanup
00800b7c g     F .text	0000004c initialise_LED_timer
0080f152 g     O .bss	00000001 g9
0080f153 g     O .bss	00000001 g127
0080f154 g     O .bss	00000001 _cg125
0080f155 g     O .bss	00000001 LRITO
0080f156 g     O .bss	00000001 _cg7
0080f158 g     O .bss	00000004 _PRE_GO
0080f15c g     O .bss	00000001 _compsys303_a2_local_AEI_ex
0080f15d g     O .bss	00000001 PRE_g3
0080f15e g     O .bss	00000001 g102
0080f15f g     O .bss	00000001 g140
00000000  w      *UND*	00000000 __errno
0080f160 g     O .bss	00000001 _cg128
0080f161 g     O .bss	00000001 g115
008009f0 g     F .text	0000006c initialise_vrp_timer
00800000 g     F .entry	0000001c __reset
0080f162 g     O .bss	00000001 g114_e10
0080f163 g     O .bss	00000001 PRE_g56
00800020 g       *ABS*	00000000 __flash_exceptions_start
00806a28 g     F .text	00000074 _fstat_r
0080f164 g     O .bss	00000001 _compsys303_a2_local_LRI_ex
0080f274 g     O .bss	00000004 errno
0080f165 g     O .bss	00000001 PRE_g75
0080f166 g     O .bss	00000001 g87
0080f167 g     O .bss	00000001 g44
00800000 g       *ABS*	00000000 __alt_mem_sdram_controller
0080f168 g     O .bss	00000001 g123
0080f280 g     O .bss	00000004 alt_argv
0081547c g       *ABS*	00000000 _gp
0080acb8 g     F .text	00000030 usleep
0080f169 g     O .bss	00000001 _cg84
00800e8c g     F .text	000000b0 reset
0080f16a g     O .bss	00000001 PRE_g65
0080f16b g     O .bss	00000001 g92
0080f16c g     O .bss	00000001 g1
0080f16d g     O .bss	00000001 g61
0080c0b8 g     O .rwdata	00000180 alt_fd_list
0080f16e g     O .bss	00000001 g135
0080f16f g     O .bss	00000001 g71
0080f170 g     O .bss	00000001 PRE_g141
0080f171 g     O .bss	00000001 g7b
0080f172 g     O .bss	00000001 PRE_g118
0080a614 g     F .text	00000094 alt_find_dev
008050d4 g     F .text	000000a0 memcpy
0080f173 g     O .bss	00000001 g126
00805d70 g     F .text	0000000c _cleanup_r
00800984 g     F .text	0000006c initialise_pvarp_timer
0080f174 g     O .bss	00000001 g82
0080ac40 g     F .text	00000078 alt_io_redirect
0080b43c g       *ABS*	00000000 __DTOR_END__
0080f175 g     O .bss	00000001 g12
0080438c g     F .text	00000014 puts
0080f176 g     O .bss	00000001 g97
0080f177 g     O .bss	00000001 g52
0080f178 g     O .bss	00000001 _cg85
0080f179 g     O .bss	00000001 _cg46
008085a0 g     F .text	00000224 altera_avalon_jtag_uart_read
00000000  w      *UND*	00000000 malloc
0080f17a g     O .bss	00000001 _cg74
0080f17b g     O .bss	00000001 _compsys303_a2_local_AVI_stop
0080b3c8 g     F .text	00000008 __udivsi3
008071cc g     F .text	000000c0 isatty
0080f17c g     O .bss	00000001 g17
0080f17d g     O .bss	00000001 g76
0080f17e g     O .bss	00000001 g31
0080ae54 g     F .text	00000090 alt_icache_flush
0080f17f g     O .bss	00000001 g139_fix0
0080f180 g     O .bss	00000001 g37
0080f268 g     O .bss	00000004 __malloc_top_pad
0080f181 g     O .bss	00000001 g62
00804414 g     F .text	0000049c __sfvwrite_r
008006fc g     F .text	00000038 init_uart
00805848 g     F .text	00000070 _sbrk_r
0080f182 g     O .bss	00000001 g84
0080f183 g     O .bss	00000001 g41
0080f184 g     O .bss	00000001 _cg61
0080f185 g     O .bss	00000001 _cg119
0080f186 g     O .bss	00000001 g118
00806b84 g     F .text	00000078 _read_r
00800b30 g     F .text	0000004c initialise_debounce_timer
0080f187 g     O .bss	00000001 g119b
0080d4a0 g     O .rwdata	00000004 alt_max_fd
0080f188 g     O .bss	00000001 PRE_g8
0080f189 g     O .bss	00000001 _cg69
00806904 g     F .text	00000110 _fclose_r
00805bf0 g     F .text	00000034 fflush
0080f26c g     O .bss	00000004 __malloc_max_sbrked_mem
0080f18a g     O .bss	00000001 PRE_g136
0080f18b g     O .bss	00000001 _compsys303_a2_local_AVI_ex
0080f18c g     O .bss	00000001 g18
0080700c g     F .text	000001c0 alt_irq_register
0080f18d g     O .bss	00000001 PRE_g124
0080f18e g     O .bss	00000001 ASense
0080f18f g     O .bss	00000001 PRE_g50
0080f190 g     O .bss	00000001 PRE_g104
0080f191 g     O .bss	00000001 g132
008008b4 g     F .text	00000064 initialise_avi_timer
008073d8 g     F .text	000000f0 lseek
0080d484 g     O .rwdata	00000004 _global_impure_ptr
0080f192 g     O .bss	00000001 g48
0080f193 g     O .bss	00000001 PRE_g35
00805254 g     F .text	000005f4 _realloc_r
0080f608 g       *ABS*	00000000 __bss_end
0080aa84 g     F .text	000000f8 alt_iic_isr_register
00807bcc g     F .text	0000010c alt_tick
0080f194 g     O .bss	00000001 g134_e12
0080f195 g     O .bss	00000001 g78_e7
0080f196 g     O .bss	00000001 _cg111
0080f197 g     O .bss	00000001 g38
0080f198 g     O .bss	00000001 g105
00809b3c g     F .text	000000c8 altera_avalon_uart_init
0080f199 g     O .bss	00000001 _cg97
0080d4bc g     O .rwdata	00000004 __ctype_ptr
0080f19a g     O .bss	00000001 PRE_g116
0080f19b g     O .bss	00000001 _cg132
00805d58 g     F .text	00000018 __fp_lock_all
0080aa3c g     F .text	00000048 alt_ic_irq_enabled
0080f19c g     O .bss	00000001 PRE_g42
00807b34 g     F .text	00000098 alt_alarm_stop
0080f278 g     O .bss	00000004 alt_irq_active
0080f19d g     O .bss	00000001 g117
0080f19e g     O .bss	00000001 _cg20
01008000 g       *ABS*	00000000 __alt_mem_onchip_mem
008000ec g     F .exceptions	000000c8 alt_irq_handler
0080c090 g     O .rwdata	00000028 alt_dev_null
0080f19f g     O .bss	00000001 _cg76
0080f1a0 g     O .bss	00000001 _cg43
0080f1a1 g     O .bss	00000001 _compsys303_a2_local_PVARP_stop
0080a3f4 g     F .text	00000044 alt_dcache_flush_all
0080f1a2 g     O .bss	00000001 g22b
008004a4 g     F .text	00000258 mode1
0080f1a3 g     O .bss	00000001 _cg28
0080f1a4 g     O .bss	00000001 g64
0080f1a5 g     O .bss	00000001 g21
0080f1a6 g     O .bss	00000001 g74b
0080f1a7 g     O .bss	00000001 _cg107
0080f1a8 g     O .bss	00000001 _cg51
0080f1a9 g     O .bss	00000001 _cg14
00800e58 g     F .text	00000034 LED_isr_function
0080f1aa g     O .bss	00000001 _cg68
0080f1ab g     O .bss	00000001 g79
0080f1ac g     O .bss	00000001 g34
0080d4c0 g       *ABS*	00000000 __ram_rwdata_end
00800e24 g     F .text	00000034 debounce_isr_function
0080f1ad g     O .bss	00000001 g5
0080d498 g     O .rwdata	00000008 alt_dev_list
0080f1ae g     O .bss	00000001 g94
0080f1af g     O .bss	00000001 g110
0080f1b0 g     O .bss	00000001 g49
00807cd8 g     F .text	00000120 write
0080f1b1 g     O .bss	00000001 g2
0080f1b2 g     O .bss	00000001 g7
0080f1b3 g     O .bss	00000001 _cg53
0080f1b4 g     O .bss	00000001 _cg16
0080f1b5 g     O .bss	00000001 _compsys303_a2_local_AEI_stop
0080b888 g       *ABS*	00000000 __ram_rodata_end
0080f1b6 g     O .bss	00000001 PRE_g101
00806ed8 g     F .text	000000d4 fstat
0080f1b7 g     O .bss	00000001 g80
0080b3d0 g     F .text	00000008 __umodsi3
0080f1b8 g     O .bss	00000001 PRE_g80
00800db4 g     F .text	00000070 uri_isr_function
0080f1b9 g     O .bss	00000001 g139_fix3
0080f1ba g     O .bss	00000001 g128
00800790 g     F .text	00000124 buttons_isr
0080f1bb g     O .bss	00000001 g136
0080f608 g       *ABS*	00000000 end
0080f1bc g     O .bss	00000001 g143
0080f1bd g     O .bss	00000001 g100
008091d8 g     F .text	0000050c altera_avalon_lcd_16207_write
0080f1be g     O .bss	00000001 g59
0080f1bf g     O .bss	00000001 g99
0080f1c0 g     O .bss	00000001 g54
0080a1cc g     F .text	000001c8 altera_avalon_uart_write
0080f1c1 g     O .bss	00000001 g66
0080f1c2 g     O .bss	00000001 g23
008080a0 g     F .text	000000c0 altera_avalon_jtag_uart_init
0080b438 g       *ABS*	00000000 __CTOR_LIST__
01000000 g       *ABS*	00000000 __alt_stack_pointer
008099b4 g     F .text	00000090 alt_avalon_timer_sc_init
00809a9c g     F .text	00000058 altera_avalon_uart_write_fd
00809af4 g     F .text	00000048 altera_avalon_uart_close_fd
008087c4 g     F .text	00000240 altera_avalon_jtag_uart_write
00805c7c g     F .text	00000004 __sfp_lock_acquire
00804ff0 g     F .text	000000e4 memchr
0080f1c3 g     O .bss	00000001 g14
00806010 g     F .text	00000314 _free_r
0080f1c4 g     O .bss	00000001 _compsys303_a2_local_URI_start
0080f1c5 g     O .bss	00000001 _compsys303_a2_local_VRP_stop
0080b0dc g     F .text	000001b0 __call_exitprocs
0080f1c6 g     O .bss	00000001 g144
0080f1c7 g     O .bss	00000001 g101
00800bc8 g     F .text	00000060 avi_isr_function
0080f1c8 g     O .bss	00000001 g25_e2
0080d48c g     O .rwdata	00000004 __malloc_sbrk_base
008001b4 g     F .text	0000004c _start
0080f1c9 g     O .bss	00000001 _cg100
0080f1ca g     O .bss	00000001 g114
0080f288 g     O .bss	00000004 _alt_tick_rate
0080f1cb g     O .bss	00000001 g56
0080f1cc g     O .bss	00000001 g129
0080f1cd g     O .bss	00000001 g131
0080f1ce g     O .bss	00000001 VSense
0080f28c g     O .bss	00000004 _alt_nticks
0080f1cf g     O .bss	00000001 PRE_g6
00807898 g     F .text	00000120 read
00807e8c g     F .text	00000094 alt_sys_init
0080f1d0 g     O .bss	00000001 g78
0080f1d1 g     O .bss	00000001 g33
0080afa4 g     F .text	00000134 __register_exitproc
0080f1d2 g     O .bss	00000001 _cg133
0080f1d3 g     O .bss	00000001 g122
0080f1d4 g     O .bss	00000001 g71_e6
0080f1d5 g     O .bss	00000001 PRE_g96
00808438 g     F .text	00000074 altera_avalon_jtag_uart_close
0080f1d6 g     O .bss	00000001 PRE_g67
0080b888 g       *ABS*	00000000 __ram_rwdata_start
0080b43c g       *ABS*	00000000 __ram_rodata_start
0080f350 g     O .bss	00000028 __malloc_current_mallinfo
0080f1d7 g     O .bss	00000001 PRE_g83
0080f1d8 g     O .bss	00000001 _cg130
0080f12c g     O .bss	00000004 c
0080f1d9 g     O .bss	00000001 g134
00807f58 g     F .text	00000058 altera_avalon_jtag_uart_read_fd
0080f1da g     O .bss	00000001 g35
0080a7c8 g     F .text	000000b8 alt_get_fd
0080f1db g     O .bss	00000001 _cg38
0080ad08 g     F .text	0000014c alt_busy_sleep
0080f1dc g     O .bss	00000001 g15
00806894 g     F .text	00000070 _close_r
0080f1dd g     O .bss	00000001 g90
0080f1de g     O .bss	00000001 _GO
0080f1df g     O .bss	00000001 g89b
0080af30 g     F .text	00000074 memcmp
0080f1e0 g     O .bss	00000001 URITO
00808008 g     F .text	00000048 altera_avalon_jtag_uart_close_fd
0080f1e1 g     O .bss	00000001 VRPTO
0080f1e2 g     O .bss	00000001 PRE_g11
0080f608 g       *ABS*	00000000 __alt_stack_base
00808050 g     F .text	00000050 altera_avalon_jtag_uart_ioctl_fd
008058b8 g     F .text	0000013c __swsetup_r
00800f3c g     F .text	000033b0 tick
00805df4 g     F .text	000000f0 __sfp
0080f1e3 g     O .bss	00000001 g63
0080f1e4 g     O .bss	00000001 g20
0080f1e5 g     O .bss	00000001 AVITO
0080f1e6 g     O .bss	00000001 g60
0080bc88 g     O .rwdata	00000408 __malloc_av_
0080f1e7 g     O .bss	00000001 g68b
00805c88 g     F .text	00000004 __sinit_lock_release
0080f1e8 g     O .bss	00000001 PRE_g19
008067bc g     F .text	00000060 __sread
0080f1e9 g     O .bss	00000001 g66b
0080a6a8 g     F .text	00000120 alt_find_file
0080f1ea g     O .bss	00000001 g93
0080a438 g     F .text	000000b4 alt_dev_llist_insert
00807594 g     F .text	00000020 __malloc_lock
00807a78 g     F .text	000000bc sbrk
0080f1eb g     O .bss	00000001 _cg22
0080f1ec g     O .bss	00000001 g119
008059f4 g     F .text	000001fc _fflush_r
00800918 g     F .text	0000006c initialise_aei_timer
0080f1ed g     O .bss	00000001 g84b
0080f0f8 g       *ABS*	00000000 __bss_start
0080f1ee g     O .bss	00000001 g86
0080f1ef g     O .bss	00000001 g43
00806638 g     F .text	00000098 memset
00800200 g     F .text	00000180 main
0080f284 g     O .bss	00000004 alt_envp
0080f270 g     O .bss	00000004 __malloc_max_total_mem
0080f1f0 g     O .bss	00000001 PRE_g88
00807fb0 g     F .text	00000058 altera_avalon_jtag_uart_write_fd
0080f1f1 g     O .bss	00000001 PVARPTO
0080f1f2 g     O .bss	00000001 g36
008097b0 g     F .text	0000013c altera_avalon_lcd_16207_init
0080f1f3 g     O .bss	00000001 g89
0080f1f4 g     O .bss	00000001 g46
008066d0 g     F .text	00000008 __sclose
01000000 g       *ABS*	00000000 __alt_heap_limit
00806a14 g     F .text	00000014 fclose
0080f478 g     O .bss	00000190 _atexit0
008048b0 g     F .text	00000740 _malloc_r
0080f1f5 g     O .bss	00000001 g57b
0080d4a4 g     O .rwdata	00000004 alt_errno
008063ec g     F .text	000000b8 _fwalk
0080f1f6 g     O .bss	00000001 g138_e13
0080f1f7 g     O .bss	00000001 g95
0080f1f8 g     O .bss	00000001 g50
0080f1f9 g     O .bss	00000001 g96
0080f1fa g     O .bss	00000001 g51
0080b308 g     F .text	00000060 __divsi3
00805ee4 g     F .text	0000012c _malloc_trim_r
0080b43c g       *ABS*	00000000 __CTOR_END__
0080f1fb g     O .bss	00000001 g138
0080f1fc g     O .bss	00000001 g107
0080b43c g       *ABS*	00000000 __flash_rodata_start
0080f1fd g     O .bss	00000001 g113
0080b43c g       *ABS*	00000000 __DTOR_LIST__
0080f1fe g     O .bss	00000001 _cg117
0080f1ff g     O .bss	00000001 PRE_g129
00800d54 g     F .text	00000060 lri_isr_function
0080f200 g     O .bss	00000001 PRE_g48
00807e58 g     F .text	00000034 alt_irq_init
0080f201 g     O .bss	00000001 _cg112
00807a18 g     F .text	00000060 alt_release_fd
0080f202 g     O .bss	00000001 g104
0080f203 g     O .bss	00000001 g139_e1_fix
0080f204 g     O .bss	00000001 g13
00800380 g     F .text	00000124 mode0
0080f205 g     O .bss	00000001 g98
0080f206 g     O .bss	00000001 g53
0080f207 g     O .bss	00000001 g8
0080f208 g     O .bss	00000001 g57
0080aee4 g     F .text	00000014 atexit
0080681c g     F .text	00000078 _write_r
0080f209 g     O .bss	00000001 _compsys303_a2_local_AVI_start
0080f20a g     O .bss	00000001 g70
0080f20b g     O .bss	00000001 _cg66
0080f20c g     O .bss	00000001 g139_e1
0080f20d g     O .bss	00000001 g91b
0080f20e g     O .bss	00000001 g141
0080f20f g     O .bss	00000001 g36b
0080f210 g     O .bss	00000001 g116
0080d480 g     O .rwdata	00000004 _impure_ptr
0080f27c g     O .bss	00000004 alt_argc
0080f211 g     O .bss	00000001 g6
0080a5b0 g     F .text	00000064 _do_dtors
0080f212 g     O .bss	00000001 g72
0080f213 g     O .bss	00000001 g81
0080f214 g     O .bss	00000001 g117b
00800020 g       .exceptions	00000000 alt_irq_entry
0080f215 g     O .bss	00000001 _compsys303_a2_local_PVARP_start
00805d40 g     F .text	00000018 __fp_unlock_all
0080f216 g     O .bss	00000001 g124
0080f217 g     O .bss	00000001 _cg108
008098ec g     F .text	00000058 altera_avalon_lcd_16207_write_fd
0080f218 g     O .bss	00000001 _cg13
0080f219 g     O .bss	00000001 _cg9
0080f21a g     O .bss	00000001 PRE_g99
0080d490 g     O .rwdata	00000008 alt_fs_list
0080f21b g     O .bss	00000001 g137
0080f21c g     O .bss	00000001 g17_e1
0080f21d g     O .bss	00000001 _compsys303_a2_local_URI_ex
0080f21e g     O .bss	00000001 g0
0080f21f g     O .bss	00000001 _cg89
0080f220 g     O .bss	00000001 g128b
0080f221 g     O .bss	00000001 g139_fix2
0080f222 g     O .bss	00000001 _cg54
0080f223 g     O .bss	00000001 _cg91
0080f224 g     O .bss	00000001 g75
0080f225 g     O .bss	00000001 g30
00800020 g       *ABS*	00000000 __ram_exceptions_start
0080f226 g     O .bss	00000001 PRE_g21
0080f227 g     O .bss	00000001 g16
0080a8b0 g     F .text	00000050 alt_ic_isr_register
0080f228 g     O .bss	00000001 g58
0080f229 g     O .bss	00000001 g63_e5
0080f22a g     O .bss	00000001 _compsys303_a2_local_LRI_stop
0080f22b g     O .bss	00000001 _cg57
0080f22c g     O .bss	00000001 g25
0080f22d g     O .bss	00000001 g68
0080d4c0 g       *ABS*	00000000 _edata
00809a44 g     F .text	00000058 altera_avalon_uart_read_fd
0080f22e g     O .bss	00000001 g142
00800c28 g     F .text	00000064 aei_isr_function
0080f608 g       *ABS*	00000000 _end
0080f22f g     O .bss	00000001 _compsys303_a2_local_LRI_start
0080f230 g     O .bss	00000001 g11
008001b4 g       *ABS*	00000000 __ram_exceptions_end
008084ac g     F .text	000000f4 altera_avalon_jtag_uart_ioctl
0080f231 g     O .bss	00000001 g65
0080f232 g     O .bss	00000001 g22
0080f233 g     O .bss	00000001 g28
0080f234 g     O .bss	00000001 g73
0080f235 g     O .bss	00000001 _cg113
0080a99c g     F .text	000000a0 alt_ic_irq_disable
0080f130 g     O .bss	00000004 uart_read
00806740 g     F .text	0000007c __swrite
0080d488 g     O .rwdata	00000004 __malloc_trim_threshold
0080ace8 g     F .text	00000020 altera_nios2_qsys_irq_init
0080aef8 g     F .text	00000038 exit
0080f236 g     O .bss	00000001 g40_e4
0080f237 g     O .bss	00000001 g125
00806324 g     F .text	000000c8 _fwalk_reent
0080f238 g     O .bss	00000001 g77
0080f239 g     O .bss	00000001 g32
0080f23a g     O .bss	00000001 _compsys303_a2_local_PVARP_ex
0080b368 g     F .text	00000060 __modsi3
0080f23b g     O .bss	00000001 g20b
0080f23c g     O .bss	00000001 g88
0080f23d g     O .bss	00000001 g45
01000000 g       *ABS*	00000000 __alt_data_end
00800020 g     F .exceptions	00000000 alt_exception
00805c80 g     F .text	00000004 __sfp_lock_release
0080f23e g     O .bss	00000001 _cg23
0080f23f g     O .bss	00000001 _compsys303_a2_local_VRP_ex
0080f240 g     O .bss	00000001 PRE_g127
0080f241 g     O .bss	00000001 _compsys303_a2_local_VRP_start
0080f242 g     O .bss	00000001 _cg55
0080f243 g     O .bss	00000001 _cg92
0080f244 g     O .bss	00000001 PRE_g45
0080f245 g     O .bss	00000001 g130
0080b604 g     O .rodata	00000101 _ctype_
00800c8c g     F .text	00000064 pvarp_isr_function
00800a5c g     F .text	00000064 initialise_lri_timer
0080f246 g     O .bss	00000001 g49b
00809edc g     F .text	00000060 altera_avalon_uart_close
0080f247 g     O .bss	00000001 PRE_g73
0080f248 g     O .bss	00000001 PRE_g30
00800ac0 g     F .text	00000070 initialise_uri_timer
0080b418 g     F .text	00000020 _exit
00806bfc g     F .text	00000154 alt_alarm_start
0080f249 g     O .bss	00000001 g121
0080f24a g     O .bss	00000001 g100b
0080f24b g     O .bss	00000001 _cg109
008064a4 g     F .text	00000194 __smakebuf_r
0080f24c g     O .bss	00000001 VPace
0080f24d g     O .bss	00000001 g12b
008043a0 g     F .text	00000074 strlen
0080f24e g     O .bss	00000001 g39
008076b0 g     F .text	00000188 open
0080f24f g     O .bss	00000001 _cg49
0080f250 g     O .bss	00000001 g120
0080f251 g     O .bss	00000001 _cg120
0080a880 g     F .text	00000030 alt_icache_flush_all
0080f252 g     O .bss	00000001 g29
0080f253 g     O .bss	00000001 g67
0080f254 g     O .bss	00000001 g24
0080f255 g     O .bss	00000001 _cg4
00800cf0 g     F .text	00000064 vrp_isr_function
0080f256 g     O .bss	00000001 g133
0080d4a8 g     O .rwdata	00000004 alt_priority_mask
0080f257 g     O .bss	00000001 g109
0080f258 g     O .bss	00000001 _cg32
0080a900 g     F .text	0000009c alt_ic_irq_enable
00809f3c g     F .text	00000230 altera_avalon_uart_read
0080f259 g     O .bss	00000001 g106
0080f25a g     O .bss	00000001 _cg36
0080f25b g     O .bss	00000001 _cg31
0080f25c g     O .bss	00000001 g10
0080d4b0 g     O .rwdata	00000008 alt_alarm_list
0080a54c g     F .text	00000064 _do_ctors
0080f25d g     O .bss	00000001 _cg102
0080f25e g     O .bss	00000001 AEITO
0080f25f g     O .bss	00000001 g69
0080f260 g     O .bss	00000001 g26
00806d50 g     F .text	000000fc close
00800734 g     F .text	0000005c init_buttons_pio
008072ec g     F .text	00000080 alt_load
0080f261 g     O .bss	00000001 PRE_g37
00000000  w      *UND*	00000000 free
00805c84 g     F .text	00000004 __sinit_lock_acquire
0080f262 g     O .bss	00000001 g122_e11
0080f263 g     O .bss	00000001 _cg105
0080f264 g     O .bss	00000001 g74
0080f265 g     O .bss	00000001 g33_e3



Disassembly of section .entry:

00800000 <__reset>:
#if NIOS2_ICACHE_SIZE > 0 && defined(ALT_ALLOW_CODE_AT_RESET) && !defined(ALT_SIM_OPTIMIZE)
    /* Assume the instruction cache size is always a power of two. */
#if NIOS2_ICACHE_SIZE > 0x8000
    movhi r2, %hi(NIOS2_ICACHE_SIZE)
#else
    movui r2, NIOS2_ICACHE_SIZE
  800000:	00840014 	movui	r2,4096
#endif

0:
    initi r2
  800004:	1001483a 	initi	r2
    addi r2, r2, -NIOS2_ICACHE_LINE_SIZE
  800008:	10bff804 	addi	r2,r2,-32
    bgt r2, zero, 0b
  80000c:	00bffd16 	blt	zero,r2,800004 <__reset+0x4>
 * Jump to the _start entry point in the .text section if reset code
 * is allowed or if optimizing for RTL simulation.
 */
#if defined(ALT_ALLOW_CODE_AT_RESET) || defined(ALT_SIM_OPTIMIZE)
    /* Jump to the _start entry point in the .text section. */
    movhi r1, %hi(_start)
  800010:	00402034 	movhi	at,128
    ori r1, r1, %lo(_start)
  800014:	08406d14 	ori	at,at,436
    jmp r1
  800018:	0800683a 	jmp	at
  80001c:	00000000 	call	0 <__alt_mem_sdram_controller-0x800000>

Disassembly of section .exceptions:

00800020 <alt_exception>:
         * Process an exception.  For all exceptions we must preserve all
         * caller saved registers on the stack (See the Nios2 ABI
         * documentation for details).
         */

        addi  sp, sp, -76
  800020:	deffed04 	addi	sp,sp,-76

#endif

#endif

        stw   ra,  0(sp)
  800024:	dfc00015 	stw	ra,0(sp)
        /*
         * Leave a gap in the stack frame at 4(sp) for the muldiv handler to
         * store zero into.
         */

        stw   r1,   8(sp)
  800028:	d8400215 	stw	at,8(sp)
        stw   r2,  12(sp)
  80002c:	d8800315 	stw	r2,12(sp)
        stw   r3,  16(sp)
  800030:	d8c00415 	stw	r3,16(sp)
        stw   r4,  20(sp)
  800034:	d9000515 	stw	r4,20(sp)
        stw   r5,  24(sp)
  800038:	d9400615 	stw	r5,24(sp)
        stw   r6,  28(sp)
  80003c:	d9800715 	stw	r6,28(sp)
        stw   r7,  32(sp)
  800040:	d9c00815 	stw	r7,32(sp)

        rdctl r5, estatus
  800044:	000b307a 	rdctl	r5,estatus

        stw   r8,  36(sp)
  800048:	da000915 	stw	r8,36(sp)
        stw   r9,  40(sp)
  80004c:	da400a15 	stw	r9,40(sp)
        stw   r10, 44(sp)
  800050:	da800b15 	stw	r10,44(sp)
        stw   r11, 48(sp)
  800054:	dac00c15 	stw	r11,48(sp)
        stw   r12, 52(sp)
  800058:	db000d15 	stw	r12,52(sp)
        stw   r13, 56(sp)
  80005c:	db400e15 	stw	r13,56(sp)
        stw   r14, 60(sp)
  800060:	db800f15 	stw	r14,60(sp)
        stw   r15, 64(sp)
  800064:	dbc01015 	stw	r15,64(sp)
        /*
         * ea-4 contains the address of the instruction being executed
         * when the exception occured. For interrupt exceptions, we will
         * will be re-issue the isntruction. Store it in 72(sp)
         */
        stw   r5,  68(sp)  /* estatus */
  800068:	d9401115 	stw	r5,68(sp)
        addi  r15, ea, -4  /* instruction that caused exception */
  80006c:	ebffff04 	addi	r15,ea,-4
        stw   r15,  72(sp)
  800070:	dbc01215 	stw	r15,72(sp)
#else
        /*
         * Test to see if the exception was a software exception or caused 
         * by an external interrupt, and vector accordingly.
         */
        rdctl r4, ipending
  800074:	0009313a 	rdctl	r4,ipending
        andi  r2, r5, 1
  800078:	2880004c 	andi	r2,r5,1
        beq   r2, zero, .Lnot_irq
  80007c:	10000326 	beq	r2,zero,80008c <alt_exception+0x6c>
        beq   r4, zero, .Lnot_irq
  800080:	20000226 	beq	r4,zero,80008c <alt_exception+0x6c>
        /*
         * Now that all necessary registers have been preserved, call 
         * alt_irq_handler() to process the interrupts.
         */

        call alt_irq_handler
  800084:	08000ec0 	call	8000ec <alt_irq_handler>

        .section .exceptions.irqreturn, "xa"

        br    .Lexception_exit
  800088:	00000306 	br	800098 <alt_exception+0x78>
         * upon completion, so we write ea (address of instruction *after*
         * the one where the exception occured) into 72(sp). The actual
         * instruction that caused the exception is written in r2, which these
         * handlers will utilize.
         */
        stw   ea,  72(sp)  /* Don't re-issue */
  80008c:	df401215 	stw	ea,72(sp)
        ldw   r2, -4(ea)   /* Instruction that caused exception */
  800090:	e8bfff17 	ldw	r2,-4(ea)
#ifdef NIOS2_HAS_DEBUG_STUB
       /*
        *  Either tell the user now (if there is a debugger attached) or go into
        *  the debug monitor which will loop until a debugger is attached.
        */
        break
  800094:	003da03a 	break	0
        /* 
         * Restore the saved registers, so that all general purpose registers 
         * have been restored to their state at the time the interrupt occured.
         */

        ldw   r5,  68(sp)
  800098:	d9401117 	ldw	r5,68(sp)
        ldw   ea,  72(sp)  /* This becomes the PC once eret is executed */
  80009c:	df401217 	ldw	ea,72(sp)
        ldw   ra,   0(sp)
  8000a0:	dfc00017 	ldw	ra,0(sp)

        wrctl estatus, r5
  8000a4:	2801707a 	wrctl	estatus,r5

        ldw   r1,   8(sp)
  8000a8:	d8400217 	ldw	at,8(sp)
        ldw   r2,  12(sp)
  8000ac:	d8800317 	ldw	r2,12(sp)
        ldw   r3,  16(sp)
  8000b0:	d8c00417 	ldw	r3,16(sp)
        ldw   r4,  20(sp)
  8000b4:	d9000517 	ldw	r4,20(sp)
        ldw   r5,  24(sp)
  8000b8:	d9400617 	ldw	r5,24(sp)
        ldw   r6,  28(sp)
  8000bc:	d9800717 	ldw	r6,28(sp)
        ldw   r7,  32(sp)
  8000c0:	d9c00817 	ldw	r7,32(sp)
#ifdef ALT_STACK_CHECK
        ldw   et, %gprel(alt_exception_old_stack_limit)(gp)
#endif
#endif

        ldw   r8,  36(sp)
  8000c4:	da000917 	ldw	r8,36(sp)
        ldw   r9,  40(sp)
  8000c8:	da400a17 	ldw	r9,40(sp)
        ldw   r10, 44(sp)
  8000cc:	da800b17 	ldw	r10,44(sp)
        ldw   r11, 48(sp)
  8000d0:	dac00c17 	ldw	r11,48(sp)
        ldw   r12, 52(sp)
  8000d4:	db000d17 	ldw	r12,52(sp)
        ldw   r13, 56(sp)
  8000d8:	db400e17 	ldw	r13,56(sp)
        ldw   r14, 60(sp)
  8000dc:	db800f17 	ldw	r14,60(sp)
        ldw   r15, 64(sp)
  8000e0:	dbc01017 	ldw	r15,64(sp)
#endif

        ldw   sp,  76(sp)

#else
        addi  sp, sp, 76
  8000e4:	dec01304 	addi	sp,sp,76

        /*
         * Return to the interrupted instruction.
         */

        eret
  8000e8:	ef80083a 	eret

008000ec <alt_irq_handler>:
 * instruction is present if the macro ALT_CI_INTERRUPT_VECTOR defined.
 */

void alt_irq_handler (void) __attribute__ ((section (".exceptions")));
void alt_irq_handler (void)
{
  8000ec:	defff904 	addi	sp,sp,-28
  8000f0:	dfc00615 	stw	ra,24(sp)
  8000f4:	df000515 	stw	fp,20(sp)
  8000f8:	df000504 	addi	fp,sp,20
#ifndef NIOS2_EIC_PRESENT
static ALT_INLINE alt_u32 ALT_ALWAYS_INLINE alt_irq_pending (void)
{
  alt_u32 active;

  NIOS2_READ_IPENDING (active);
  8000fc:	0005313a 	rdctl	r2,ipending
  800100:	e0bffc15 	stw	r2,-16(fp)

  return active;
  800104:	e0bffc17 	ldw	r2,-16(fp)
   * Consider the case where the high priority interupt is asserted during
   * the interrupt entry sequence for a lower priority interrupt to see why
   * this is the case.
   */

  active = alt_irq_pending ();
  800108:	e0bfff15 	stw	r2,-4(fp)

  do
  {
    i = 0;
  80010c:	e03ffd15 	stw	zero,-12(fp)
    mask = 1;
  800110:	00800044 	movi	r2,1
  800114:	e0bffe15 	stw	r2,-8(fp)
     * called to clear the interrupt condition.
     */

    do
    {
      if (active & mask)
  800118:	e0ffff17 	ldw	r3,-4(fp)
  80011c:	e0bffe17 	ldw	r2,-8(fp)
  800120:	1884703a 	and	r2,r3,r2
  800124:	1005003a 	cmpeq	r2,r2,zero
  800128:	1000161e 	bne	r2,zero,800184 <alt_irq_handler+0x98>
      { 
#ifdef ALT_ENHANCED_INTERRUPT_API_PRESENT
        alt_irq[i].handler(alt_irq[i].context); 
  80012c:	e0bffd17 	ldw	r2,-12(fp)
  800130:	00c02074 	movhi	r3,129
  800134:	18fcde04 	addi	r3,r3,-3208
  800138:	100490fa 	slli	r2,r2,3
  80013c:	10c5883a 	add	r2,r2,r3
  800140:	11400017 	ldw	r5,0(r2)
  800144:	e0bffd17 	ldw	r2,-12(fp)
  800148:	00c02074 	movhi	r3,129
  80014c:	18fcde04 	addi	r3,r3,-3208
  800150:	100490fa 	slli	r2,r2,3
  800154:	10c5883a 	add	r2,r2,r3
  800158:	10800104 	addi	r2,r2,4
  80015c:	11000017 	ldw	r4,0(r2)
  800160:	283ee83a 	callr	r5
#ifndef NIOS2_EIC_PRESENT
static ALT_INLINE alt_u32 ALT_ALWAYS_INLINE alt_irq_pending (void)
{
  alt_u32 active;

  NIOS2_READ_IPENDING (active);
  800164:	0005313a 	rdctl	r2,ipending
  800168:	e0bffb15 	stw	r2,-20(fp)

  return active;
  80016c:	e0bffb17 	ldw	r2,-20(fp)
      mask <<= 1;
      i++;

    } while (1);

    active = alt_irq_pending ();
  800170:	e0bfff15 	stw	r2,-4(fp)
    
  } while (active);
  800174:	e0bfff17 	ldw	r2,-4(fp)
  800178:	1004c03a 	cmpne	r2,r2,zero
  80017c:	103fe31e 	bne	r2,zero,80010c <alt_irq_handler+0x20>
  800180:	00000706 	br	8001a0 <alt_irq_handler+0xb4>
#else
        alt_irq[i].handler(alt_irq[i].context, i); 
#endif
        break;
      }
      mask <<= 1;
  800184:	e0bffe17 	ldw	r2,-8(fp)
  800188:	1085883a 	add	r2,r2,r2
  80018c:	e0bffe15 	stw	r2,-8(fp)
      i++;
  800190:	e0bffd17 	ldw	r2,-12(fp)
  800194:	10800044 	addi	r2,r2,1
  800198:	e0bffd15 	stw	r2,-12(fp)

    } while (1);
  80019c:	003fde06 	br	800118 <alt_irq_handler+0x2c>
  /*
   * Notify the operating system that interrupt processing is complete.
   */ 

  ALT_OS_INT_EXIT();
}
  8001a0:	e037883a 	mov	sp,fp
  8001a4:	dfc00117 	ldw	ra,4(sp)
  8001a8:	df000017 	ldw	fp,0(sp)
  8001ac:	dec00204 	addi	sp,sp,8
  8001b0:	f800283a 	ret

Disassembly of section .text:

008001b4 <_start>:

    /* Assume the data cache size is always a power of two. */
#if NIOS2_DCACHE_SIZE > 0x8000
    movhi r2, %hi(NIOS2_DCACHE_SIZE)
#else
    movui r2, NIOS2_DCACHE_SIZE
  8001b4:	00820014 	movui	r2,2048
#endif

0:
    initd 0(r2)
  8001b8:	10000033 	initd	0(r2)
    addi r2, r2, -NIOS2_DCACHE_LINE_SIZE
  8001bc:	10bff804 	addi	r2,r2,-32
    bgt r2, zero, 0b
  8001c0:	00bffd16 	blt	zero,r2,8001b8 <_start+0x4>
#if (NIOS2_NUM_OF_SHADOW_REG_SETS == 0)    
    /*
     * Now that the caches are initialized, set up the stack pointer.
     * The value provided by the linker is assumed to be correctly aligned.
     */
    movhi sp, %hi(__alt_stack_pointer)
  8001c4:	06c04034 	movhi	sp,256
    ori sp, sp, %lo(__alt_stack_pointer)
  8001c8:	dec00014 	ori	sp,sp,0

    /* Set up the global pointer. */
    movhi gp, %hi(_gp)
  8001cc:	06802074 	movhi	gp,129
    ori gp, gp, %lo(_gp)
  8001d0:	d6951f14 	ori	gp,gp,21628
 */
#ifndef ALT_SIM_OPTIMIZE
    /* Log that the BSS is about to be cleared. */
    ALT_LOG_PUTS(alt_log_msg_bss)

    movhi r2, %hi(__bss_start)
  8001d4:	00802034 	movhi	r2,128
    ori r2, r2, %lo(__bss_start)
  8001d8:	10bc3e14 	ori	r2,r2,61688

    movhi r3, %hi(__bss_end)
  8001dc:	00c02034 	movhi	r3,128
    ori r3, r3, %lo(__bss_end)
  8001e0:	18fd8214 	ori	r3,r3,62984

    beq r2, r3, 1f
  8001e4:	10c00326 	beq	r2,r3,8001f4 <_start+0x40>

0:
    stw zero, (r2)
  8001e8:	10000015 	stw	zero,0(r2)
    addi r2, r2, 4
  8001ec:	10800104 	addi	r2,r2,4
    bltu r2, r3, 0b
  8001f0:	10fffd36 	bltu	r2,r3,8001e8 <_start+0x34>
     * section aren't defined until alt_load() has been called).
     */
    mov   et, zero
#endif

    call alt_load
  8001f4:	08072ec0 	call	8072ec <alt_load>

    /* Log that alt_main is about to be called. */
    ALT_LOG_PUTS(alt_log_msg_alt_main)

    /* Call the C entry point. It should never return. */
    call alt_main
  8001f8:	08075280 	call	807528 <alt_main>

008001fc <alt_after_alt_main>:

    /* Wait in infinite loop in case alt_main does return. */
alt_after_alt_main:
    br alt_after_alt_main
  8001fc:	003fff06 	br	8001fc <alt_after_alt_main>

00800200 <main>:
static volatile int setURITO = 0;

int fp, c;																							// Variables for UART read and write
char* uart_read;																					// Buffer character pointer for uart read
//=============================================
int main() {
  800200:	defffe04 	addi	sp,sp,-8
  800204:	dfc00115 	stw	ra,4(sp)
  800208:	df000015 	stw	fp,0(sp)
  80020c:	d839883a 	mov	fp,sp
	printf("Welcome to the Nios II Pacemaker! \n");
  800210:	01002074 	movhi	r4,129
  800214:	212d0f04 	addi	r4,r4,-19396
  800218:	080438c0 	call	80438c <puts>

	reset();
  80021c:	0800e8c0 	call	800e8c <reset>
	if (IORD_ALTERA_AVALON_PIO_DATA(SWITCHES_BASE) == 0) {
  800220:	00804074 	movhi	r2,257
  800224:	10842404 	addi	r2,r2,4240
  800228:	10800037 	ldwio	r2,0(r2)
  80022c:	1004c03a 	cmpne	r2,r2,zero
  800230:	1000021e 	bne	r2,zero,80023c <main+0x3c>
		init_buttons_pio();																			// Initialise buttons if in correct mode
  800234:	08007340 	call	800734 <init_buttons_pio>
  800238:	00000206 	br	800244 <main+0x44>
	} else {
		init_uart();																				// Initialise uart if in correct mode
  80023c:	08006fc0 	call	8006fc <init_uart>
  800240:	00000006 	br	800244 <main+0x44>
	}

	while(1) {
		crit_flag = 1;																				// Enter critical section
  800244:	00800044 	movi	r2,1
  800248:	d0a72415 	stw	r2,-25456(gp)
		tick();																						// Tick
  80024c:	0800f3c0 	call	800f3c <tick>
		AVITO = 0;																					// Reset flags
  800250:	00802074 	movhi	r2,129
  800254:	10bc7944 	addi	r2,r2,-3611
  800258:	10000005 	stb	zero,0(r2)
		AEITO = 0;
  80025c:	00802074 	movhi	r2,129
  800260:	10bc9784 	addi	r2,r2,-3490
  800264:	10000005 	stb	zero,0(r2)
		PVARPTO = 0;
  800268:	00802074 	movhi	r2,129
  80026c:	10bc7c44 	addi	r2,r2,-3599
  800270:	10000005 	stb	zero,0(r2)
		VRPTO = 0;
  800274:	00802074 	movhi	r2,129
  800278:	10bc7844 	addi	r2,r2,-3615
  80027c:	10000005 	stb	zero,0(r2)
		LRITO = 0;
  800280:	00802074 	movhi	r2,129
  800284:	10bc5544 	addi	r2,r2,-3755
  800288:	10000005 	stb	zero,0(r2)
		URITO = 0;
  80028c:	00802074 	movhi	r2,129
  800290:	10bc7804 	addi	r2,r2,-3616
  800294:	10000005 	stb	zero,0(r2)
		crit_flag = 0;																				// Exit critical section
  800298:	d0272415 	stw	zero,-25456(gp)
		if (setAVITO) {																				// Update flags if necessary
  80029c:	d0a72517 	ldw	r2,-25452(gp)
  8002a0:	1005003a 	cmpeq	r2,r2,zero
  8002a4:	1000051e 	bne	r2,zero,8002bc <main+0xbc>
			AVITO = 1;
  8002a8:	00c02074 	movhi	r3,129
  8002ac:	18fc7944 	addi	r3,r3,-3611
  8002b0:	00800044 	movi	r2,1
  8002b4:	18800005 	stb	r2,0(r3)
			setAVITO = 0;
  8002b8:	d0272515 	stw	zero,-25452(gp)
		}
		if (setAEITO) {
  8002bc:	d0a72617 	ldw	r2,-25448(gp)
  8002c0:	1005003a 	cmpeq	r2,r2,zero
  8002c4:	1000051e 	bne	r2,zero,8002dc <main+0xdc>
			AEITO = 1;
  8002c8:	00c02074 	movhi	r3,129
  8002cc:	18fc9784 	addi	r3,r3,-3490
  8002d0:	00800044 	movi	r2,1
  8002d4:	18800005 	stb	r2,0(r3)
			setAEITO = 0;
  8002d8:	d0272615 	stw	zero,-25448(gp)
		}
		if (setPVARPTO) {
  8002dc:	d0a72717 	ldw	r2,-25444(gp)
  8002e0:	1005003a 	cmpeq	r2,r2,zero
  8002e4:	1000051e 	bne	r2,zero,8002fc <main+0xfc>
			PVARPTO = 1;
  8002e8:	00c02074 	movhi	r3,129
  8002ec:	18fc7c44 	addi	r3,r3,-3599
  8002f0:	00800044 	movi	r2,1
  8002f4:	18800005 	stb	r2,0(r3)
			setPVARPTO = 0;
  8002f8:	d0272715 	stw	zero,-25444(gp)
		}
		if (setVRPTO) {
  8002fc:	d0a72817 	ldw	r2,-25440(gp)
  800300:	1005003a 	cmpeq	r2,r2,zero
  800304:	1000051e 	bne	r2,zero,80031c <main+0x11c>
			VRPTO = 1;
  800308:	00c02074 	movhi	r3,129
  80030c:	18fc7844 	addi	r3,r3,-3615
  800310:	00800044 	movi	r2,1
  800314:	18800005 	stb	r2,0(r3)
			setVRPTO = 0;
  800318:	d0272815 	stw	zero,-25440(gp)
		}
		if (setLRITO) {
  80031c:	d0a72917 	ldw	r2,-25436(gp)
  800320:	1005003a 	cmpeq	r2,r2,zero
  800324:	1000051e 	bne	r2,zero,80033c <main+0x13c>
			LRITO = 1;
  800328:	00c02074 	movhi	r3,129
  80032c:	18fc5544 	addi	r3,r3,-3755
  800330:	00800044 	movi	r2,1
  800334:	18800005 	stb	r2,0(r3)
			setLRITO = 0;
  800338:	d0272915 	stw	zero,-25436(gp)
		}
		if (setURITO) {
  80033c:	d0a72a17 	ldw	r2,-25432(gp)
  800340:	1005003a 	cmpeq	r2,r2,zero
  800344:	1000051e 	bne	r2,zero,80035c <main+0x15c>
			URITO = 1;
  800348:	00c02074 	movhi	r3,129
  80034c:	18fc7804 	addi	r3,r3,-3616
  800350:	00800044 	movi	r2,1
  800354:	18800005 	stb	r2,0(r3)
			setURITO = 0;
  800358:	d0272a15 	stw	zero,-25432(gp)
		}

		if (IORD_ALTERA_AVALON_PIO_DATA(SWITCHES_BASE) == 0) {										// Select mode
  80035c:	00804074 	movhi	r2,257
  800360:	10842404 	addi	r2,r2,4240
  800364:	10800037 	ldwio	r2,0(r2)
  800368:	1004c03a 	cmpne	r2,r2,zero
  80036c:	1000021e 	bne	r2,zero,800378 <main+0x178>
			mode0();
  800370:	08003800 	call	800380 <mode0>
  800374:	003fb306 	br	800244 <main+0x44>
		} else {
			mode1();
  800378:	08004a40 	call	8004a4 <mode1>
		}
	}
  80037c:	003fb106 	br	800244 <main+0x44>

00800380 <mode0>:
	return 0;
}

void mode0() {
  800380:	defffe04 	addi	sp,sp,-8
  800384:	dfc00115 	stw	ra,4(sp)
  800388:	df000015 	stw	fp,0(sp)
  80038c:	d839883a 	mov	fp,sp
	 * Contains logic for timers, inputs, buttons and outputs for Mode 0
	 *
	 * Parameters: NONE
	 * Returns: NONE
	 */
	if (VPace == 1) {																			 	// VPace signal handler
  800390:	00802074 	movhi	r2,129
  800394:	10bc9304 	addi	r2,r2,-3508
  800398:	10800003 	ldbu	r2,0(r2)
  80039c:	10803fcc 	andi	r2,r2,255
  8003a0:	1080201c 	xori	r2,r2,128
  8003a4:	10bfe004 	addi	r2,r2,-128
  8003a8:	10800058 	cmpnei	r2,r2,1
  8003ac:	1000121e 	bne	r2,zero,8003f8 <mode0+0x78>
		printf("** vpace set **\n");
  8003b0:	01002074 	movhi	r4,129
  8003b4:	212d1804 	addi	r4,r4,-19360
  8003b8:	080438c0 	call	80438c <puts>
		if (vrp_running == 1) {																		// If in VRP phase, ignore as VR
  8003bc:	d0a72217 	ldw	r2,-25464(gp)
  8003c0:	10800060 	cmpeqi	r2,r2,1
  8003c4:	1000321e 	bne	r2,zero,800490 <mode0+0x110>
			return;
		}
		initialise_pvarp_timer();
  8003c8:	08009840 	call	800984 <initialise_pvarp_timer>
		initialise_vrp_timer();
  8003cc:	08009f00 	call	8009f0 <initialise_vrp_timer>
		if (aei_running == 0) {
  8003d0:	d0a72317 	ldw	r2,-25460(gp)
  8003d4:	1004c03a 	cmpne	r2,r2,zero
  8003d8:	1000011e 	bne	r2,zero,8003e0 <mode0+0x60>
			initialise_aei_timer();
  8003dc:	08009180 	call	800918 <initialise_aei_timer>
		}
		initialise_lri_timer();
  8003e0:	0800a5c0 	call	800a5c <initialise_lri_timer>
		initialise_uri_timer();
  8003e4:	0800ac00 	call	800ac0 <initialise_uri_timer>
		vpace_LED_on = 1;																			// Set LED on
  8003e8:	00800044 	movi	r2,1
  8003ec:	d0a71f15 	stw	r2,-25476(gp)
		initialise_LED_timer(&vpace_LED_on);
  8003f0:	d1271f04 	addi	r4,gp,-25476
  8003f4:	0800b7c0 	call	800b7c <initialise_LED_timer>
	}
	if (APace == 1) {																				// APace signal handler
  8003f8:	00802074 	movhi	r2,129
  8003fc:	10bc4e84 	addi	r2,r2,-3782
  800400:	10800003 	ldbu	r2,0(r2)
  800404:	10803fcc 	andi	r2,r2,255
  800408:	1080201c 	xori	r2,r2,128
  80040c:	10bfe004 	addi	r2,r2,-128
  800410:	10800058 	cmpnei	r2,r2,1
  800414:	10000b1e 	bne	r2,zero,800444 <mode0+0xc4>
		printf("** apace set **\n");
  800418:	01002074 	movhi	r4,129
  80041c:	212d1c04 	addi	r4,r4,-19344
  800420:	080438c0 	call	80438c <puts>
		if (pvarp_running == 1) {																	// If in PVARP phase, ignore as AR
  800424:	d0a72117 	ldw	r2,-25468(gp)
  800428:	10800060 	cmpeqi	r2,r2,1
  80042c:	1000181e 	bne	r2,zero,800490 <mode0+0x110>
			return;
		}
		initialise_avi_timer();
  800430:	08008b40 	call	8008b4 <initialise_avi_timer>
		apace_LED_on = 1;																			// Set LED on
  800434:	00800044 	movi	r2,1
  800438:	d0a72015 	stw	r2,-25472(gp)
		initialise_LED_timer(&apace_LED_on);
  80043c:	d1272004 	addi	r4,gp,-25472
  800440:	0800b7c0 	call	800b7c <initialise_LED_timer>
	}

	if (vpace_LED_on == 1) {																		// LED Logic
  800444:	d0a71f17 	ldw	r2,-25476(gp)
  800448:	10800058 	cmpnei	r2,r2,1
  80044c:	1000051e 	bne	r2,zero,800464 <mode0+0xe4>
		IOWR_ALTERA_AVALON_PIO_DATA(LEDS_GREEN_BASE, 0x01);											// LED 1
  800450:	00c04074 	movhi	r3,257
  800454:	18c41804 	addi	r3,r3,4192
  800458:	00800044 	movi	r2,1
  80045c:	18800035 	stwio	r2,0(r3)
  800460:	00000b06 	br	800490 <mode0+0x110>
	} else if (apace_LED_on == 1) {
  800464:	d0a72017 	ldw	r2,-25472(gp)
  800468:	10800058 	cmpnei	r2,r2,1
  80046c:	1000051e 	bne	r2,zero,800484 <mode0+0x104>
		IOWR_ALTERA_AVALON_PIO_DATA(LEDS_GREEN_BASE, 0x02);											// LED 2
  800470:	00c04074 	movhi	r3,257
  800474:	18c41804 	addi	r3,r3,4192
  800478:	00800084 	movi	r2,2
  80047c:	18800035 	stwio	r2,0(r3)
  800480:	00000306 	br	800490 <mode0+0x110>
	} else {
		IOWR_ALTERA_AVALON_PIO_DATA(LEDS_GREEN_BASE, 0x00);											// No LEDs
  800484:	00804074 	movhi	r2,257
  800488:	10841804 	addi	r2,r2,4192
  80048c:	10000035 	stwio	zero,0(r2)
	}
}
  800490:	e037883a 	mov	sp,fp
  800494:	dfc00117 	ldw	ra,4(sp)
  800498:	df000017 	ldw	fp,0(sp)
  80049c:	dec00204 	addi	sp,sp,8
  8004a0:	f800283a 	ret

008004a4 <mode1>:

void mode1() {
  8004a4:	defffe04 	addi	sp,sp,-8
  8004a8:	dfc00115 	stw	ra,4(sp)
  8004ac:	df000015 	stw	fp,0(sp)
  8004b0:	d839883a 	mov	fp,sp
	 *
	 * Parameters: NONE
	 * Returns: NONE
	 */

	c = read(fp, uart_read, 1);																		// Read from UART into buffer, non blocking
  8004b4:	d1272b17 	ldw	r4,-25428(gp)
  8004b8:	d1672d17 	ldw	r5,-25420(gp)
  8004bc:	01800044 	movi	r6,1
  8004c0:	08078980 	call	807898 <read>
  8004c4:	d0a72c15 	stw	r2,-25424(gp)
	if (c) {
  8004c8:	d0a72c17 	ldw	r2,-25424(gp)
  8004cc:	1005003a 	cmpeq	r2,r2,zero
  8004d0:	1000531e 	bne	r2,zero,800620 <mode1+0x17c>
		if (*uart_read != 0) {																		// Ignore an empty buffer
  8004d4:	d0a72d17 	ldw	r2,-25420(gp)
  8004d8:	10800003 	ldbu	r2,0(r2)
  8004dc:	10803fcc 	andi	r2,r2,255
  8004e0:	1080201c 	xori	r2,r2,128
  8004e4:	10bfe004 	addi	r2,r2,-128
  8004e8:	1005003a 	cmpeq	r2,r2,zero
  8004ec:	1000451e 	bne	r2,zero,800604 <mode1+0x160>
			if(*uart_read == 'A') {																	// ASense received
  8004f0:	d0a72d17 	ldw	r2,-25420(gp)
  8004f4:	10800003 	ldbu	r2,0(r2)
  8004f8:	10803fcc 	andi	r2,r2,255
  8004fc:	1080201c 	xori	r2,r2,128
  800500:	10bfe004 	addi	r2,r2,-128
  800504:	10801058 	cmpnei	r2,r2,65
  800508:	1000151e 	bne	r2,zero,800560 <mode1+0xbc>
				if (pvarp_running == 1) {															// If in PVARP phase, ignore as AR
  80050c:	d0a72117 	ldw	r2,-25468(gp)
  800510:	10800058 	cmpnei	r2,r2,1
  800514:	1000061e 	bne	r2,zero,800530 <mode1+0x8c>
					printf("ar registered\n");
  800518:	01002074 	movhi	r4,129
  80051c:	212d2004 	addi	r4,r4,-19328
  800520:	080438c0 	call	80438c <puts>
					*uart_read = 0;																	// Clear buffer
  800524:	d0a72d17 	ldw	r2,-25420(gp)
  800528:	10000005 	stb	zero,0(r2)
					return;
  80052c:	00006e06 	br	8006e8 <mode1+0x244>
				}
				printf("asense received\n");
  800530:	01002074 	movhi	r4,129
  800534:	212d2404 	addi	r4,r4,-19312
  800538:	080438c0 	call	80438c <puts>
				initialise_avi_timer();
  80053c:	08008b40 	call	8008b4 <initialise_avi_timer>
				ASense = 1;																			// Set ASense as sensed
  800540:	00c02074 	movhi	r3,129
  800544:	18fc6384 	addi	r3,r3,-3698
  800548:	00800044 	movi	r2,1
  80054c:	18800005 	stb	r2,0(r3)
				initialise_debounce_timer(&ASense);
  800550:	01002074 	movhi	r4,129
  800554:	213c6384 	addi	r4,r4,-3698
  800558:	0800b300 	call	800b30 <initialise_debounce_timer>
  80055c:	00002606 	br	8005f8 <mode1+0x154>
			} else if (*uart_read == 'V') {
  800560:	d0a72d17 	ldw	r2,-25420(gp)
  800564:	10800003 	ldbu	r2,0(r2)
  800568:	10803fcc 	andi	r2,r2,255
  80056c:	1080201c 	xori	r2,r2,128
  800570:	10bfe004 	addi	r2,r2,-128
  800574:	10801598 	cmpnei	r2,r2,86
  800578:	1000191e 	bne	r2,zero,8005e0 <mode1+0x13c>
				if (vrp_running == 1) {																// If in VRP phase, ignore as VR
  80057c:	d0a72217 	ldw	r2,-25464(gp)
  800580:	10800058 	cmpnei	r2,r2,1
  800584:	1000061e 	bne	r2,zero,8005a0 <mode1+0xfc>
					printf("vr registered\n");
  800588:	01002074 	movhi	r4,129
  80058c:	212d2804 	addi	r4,r4,-19296
  800590:	080438c0 	call	80438c <puts>
					*uart_read = 0;																	// Clear buffer
  800594:	d0a72d17 	ldw	r2,-25420(gp)
  800598:	10000005 	stb	zero,0(r2)
					return;
  80059c:	00005206 	br	8006e8 <mode1+0x244>
				}
				printf("vsense received\n");
  8005a0:	01002074 	movhi	r4,129
  8005a4:	212d2c04 	addi	r4,r4,-19280
  8005a8:	080438c0 	call	80438c <puts>
				initialise_pvarp_timer();
  8005ac:	08009840 	call	800984 <initialise_pvarp_timer>
				initialise_vrp_timer();
  8005b0:	08009f00 	call	8009f0 <initialise_vrp_timer>
				initialise_aei_timer();
  8005b4:	08009180 	call	800918 <initialise_aei_timer>
				initialise_lri_timer();
  8005b8:	0800a5c0 	call	800a5c <initialise_lri_timer>
				initialise_uri_timer();
  8005bc:	0800ac00 	call	800ac0 <initialise_uri_timer>
				VSense = 1;																			// Set VSense as sensed
  8005c0:	00c02074 	movhi	r3,129
  8005c4:	18fc7384 	addi	r3,r3,-3634
  8005c8:	00800044 	movi	r2,1
  8005cc:	18800005 	stb	r2,0(r3)
				initialise_debounce_timer(&VSense);
  8005d0:	01002074 	movhi	r4,129
  8005d4:	213c7384 	addi	r4,r4,-3634
  8005d8:	0800b300 	call	800b30 <initialise_debounce_timer>
  8005dc:	00000606 	br	8005f8 <mode1+0x154>
			} else {
				VSense = 0;
  8005e0:	00802074 	movhi	r2,129
  8005e4:	10bc7384 	addi	r2,r2,-3634
  8005e8:	10000005 	stb	zero,0(r2)
				ASense = 0;
  8005ec:	00802074 	movhi	r2,129
  8005f0:	10bc6384 	addi	r2,r2,-3698
  8005f4:	10000005 	stb	zero,0(r2)
			}
			*uart_read = 0;																			// Clear buffer
  8005f8:	d0a72d17 	ldw	r2,-25420(gp)
  8005fc:	10000005 	stb	zero,0(r2)
  800600:	00000d06 	br	800638 <mode1+0x194>
		} else {
			VSense = 0;
  800604:	00802074 	movhi	r2,129
  800608:	10bc7384 	addi	r2,r2,-3634
  80060c:	10000005 	stb	zero,0(r2)
			ASense = 0;
  800610:	00802074 	movhi	r2,129
  800614:	10bc6384 	addi	r2,r2,-3698
  800618:	10000005 	stb	zero,0(r2)
  80061c:	00000606 	br	800638 <mode1+0x194>
		}
	} else {
		VSense = 0;
  800620:	00802074 	movhi	r2,129
  800624:	10bc7384 	addi	r2,r2,-3634
  800628:	10000005 	stb	zero,0(r2)
		ASense = 0;
  80062c:	00802074 	movhi	r2,129
  800630:	10bc6384 	addi	r2,r2,-3698
  800634:	10000005 	stb	zero,0(r2)
	}

	if (VPace == 1) {																			 	// VPace signal handler
  800638:	00802074 	movhi	r2,129
  80063c:	10bc9304 	addi	r2,r2,-3508
  800640:	10800003 	ldbu	r2,0(r2)
  800644:	10803fcc 	andi	r2,r2,255
  800648:	1080201c 	xori	r2,r2,128
  80064c:	10bfe004 	addi	r2,r2,-128
  800650:	10800058 	cmpnei	r2,r2,1
  800654:	1000101e 	bne	r2,zero,800698 <mode1+0x1f4>
		printf("** vpace set **\n");
  800658:	01002074 	movhi	r4,129
  80065c:	212d1804 	addi	r4,r4,-19360
  800660:	080438c0 	call	80438c <puts>
		if (vrp_running == 1) {																		// If in VRP phase, ignore as VR
  800664:	d0a72217 	ldw	r2,-25464(gp)
  800668:	10800060 	cmpeqi	r2,r2,1
  80066c:	10001e1e 	bne	r2,zero,8006e8 <mode1+0x244>
			return;
		}
		initialise_pvarp_timer();
  800670:	08009840 	call	800984 <initialise_pvarp_timer>
		initialise_vrp_timer();
  800674:	08009f00 	call	8009f0 <initialise_vrp_timer>
		initialise_aei_timer();
  800678:	08009180 	call	800918 <initialise_aei_timer>
		initialise_lri_timer();
  80067c:	0800a5c0 	call	800a5c <initialise_lri_timer>
		initialise_uri_timer();
  800680:	0800ac00 	call	800ac0 <initialise_uri_timer>
		write(fp,"V",1);
  800684:	d1272b17 	ldw	r4,-25428(gp)
  800688:	01402074 	movhi	r5,129
  80068c:	296d3004 	addi	r5,r5,-19264
  800690:	01800044 	movi	r6,1
  800694:	0807cd80 	call	807cd8 <write>
	}
	if (APace == 1) {																				// APace signal handler
  800698:	00802074 	movhi	r2,129
  80069c:	10bc4e84 	addi	r2,r2,-3782
  8006a0:	10800003 	ldbu	r2,0(r2)
  8006a4:	10803fcc 	andi	r2,r2,255
  8006a8:	1080201c 	xori	r2,r2,128
  8006ac:	10bfe004 	addi	r2,r2,-128
  8006b0:	10800058 	cmpnei	r2,r2,1
  8006b4:	10000c1e 	bne	r2,zero,8006e8 <mode1+0x244>
		printf("** apace set **\n");
  8006b8:	01002074 	movhi	r4,129
  8006bc:	212d1c04 	addi	r4,r4,-19344
  8006c0:	080438c0 	call	80438c <puts>
		if (pvarp_running == 1) {																	// If in PVARP phase, ignore as AR
  8006c4:	d0a72117 	ldw	r2,-25468(gp)
  8006c8:	10800060 	cmpeqi	r2,r2,1
  8006cc:	1000061e 	bne	r2,zero,8006e8 <mode1+0x244>
			return;
		}
		initialise_avi_timer();
  8006d0:	08008b40 	call	8008b4 <initialise_avi_timer>
		write(fp,"A",1);
  8006d4:	d1272b17 	ldw	r4,-25428(gp)
  8006d8:	01402074 	movhi	r5,129
  8006dc:	296d3104 	addi	r5,r5,-19260
  8006e0:	01800044 	movi	r6,1
  8006e4:	0807cd80 	call	807cd8 <write>
	}
}
  8006e8:	e037883a 	mov	sp,fp
  8006ec:	dfc00117 	ldw	ra,4(sp)
  8006f0:	df000017 	ldw	fp,0(sp)
  8006f4:	dec00204 	addi	sp,sp,8
  8006f8:	f800283a 	ret

008006fc <init_uart>:

void init_uart() {
  8006fc:	defffe04 	addi	sp,sp,-8
  800700:	dfc00115 	stw	ra,4(sp)
  800704:	df000015 	stw	fp,0(sp)
  800708:	d839883a 	mov	fp,sp
	fp = open(UART_NAME, O_NONBLOCK | O_RDWR);														// Open file pointer for non blocking, rw
  80070c:	01002074 	movhi	r4,129
  800710:	212d3204 	addi	r4,r4,-19256
  800714:	01500084 	movi	r5,16386
  800718:	08076b00 	call	8076b0 <open>
  80071c:	d0a72b15 	stw	r2,-25428(gp)
}
  800720:	e037883a 	mov	sp,fp
  800724:	dfc00117 	ldw	ra,4(sp)
  800728:	df000017 	ldw	fp,0(sp)
  80072c:	dec00204 	addi	sp,sp,8
  800730:	f800283a 	ret

00800734 <init_buttons_pio>:

void init_buttons_pio() {
  800734:	defffd04 	addi	sp,sp,-12
  800738:	dfc00215 	stw	ra,8(sp)
  80073c:	df000115 	stw	fp,4(sp)
  800740:	df000104 	addi	fp,sp,4
	 * Initialises buttons and their interrupts for mode 0
	 *
	 * Parameters: NONE
	 * Returns: NONE
	 */
	void* context_going_to_be_passed = (void*) &buttonValue; 										// Cast before passing to ISR
  800744:	d0a00004 	addi	r2,gp,-32768
  800748:	e0bfff15 	stw	r2,-4(fp)
	IOWR_ALTERA_AVALON_PIO_EDGE_CAP(BUTTONS_BASE, 0); 												// Clears the edge capture register
  80074c:	00804074 	movhi	r2,257
  800750:	10842b04 	addi	r2,r2,4268
  800754:	10000035 	stwio	zero,0(r2)
	IOWR_ALTERA_AVALON_PIO_IRQ_MASK(BUTTONS_BASE, 0x7); 											// Enable interrupts for all buttons
  800758:	00c04074 	movhi	r3,257
  80075c:	18c42a04 	addi	r3,r3,4264
  800760:	008001c4 	movi	r2,7
  800764:	18800035 	stwio	r2,0(r3)
	alt_irq_register(BUTTONS_IRQ, context_going_to_be_passed, buttons_isr); 						// Register the ISR
  800768:	01000104 	movi	r4,4
  80076c:	e17fff17 	ldw	r5,-4(fp)
  800770:	01802034 	movhi	r6,128
  800774:	3181e404 	addi	r6,r6,1936
  800778:	080700c0 	call	80700c <alt_irq_register>
}
  80077c:	e037883a 	mov	sp,fp
  800780:	dfc00117 	ldw	ra,4(sp)
  800784:	df000017 	ldw	fp,0(sp)
  800788:	dec00204 	addi	sp,sp,8
  80078c:	f800283a 	ret

00800790 <buttons_isr>:

void buttons_isr(void* context) {
  800790:	defffc04 	addi	sp,sp,-16
  800794:	dfc00315 	stw	ra,12(sp)
  800798:	df000215 	stw	fp,8(sp)
  80079c:	df000204 	addi	fp,sp,8
  8007a0:	e13fff15 	stw	r4,-4(fp)
	 * Determines which button is pressed, sets necessary bits and starts corresponding timers
	 *
	 * Parameters: context
	 * Returns: NONE
	 */
	int* temp = (int*) context;
  8007a4:	e0bfff17 	ldw	r2,-4(fp)
  8007a8:	e0bffe15 	stw	r2,-8(fp)
	(*temp) = IORD_ALTERA_AVALON_PIO_EDGE_CAP(BUTTONS_BASE);
  8007ac:	00804074 	movhi	r2,257
  8007b0:	10842b04 	addi	r2,r2,4268
  8007b4:	10c00037 	ldwio	r3,0(r2)
  8007b8:	e0bffe17 	ldw	r2,-8(fp)
  8007bc:	10c00015 	stw	r3,0(r2)
	IOWR_ALTERA_AVALON_PIO_EDGE_CAP(BUTTONS_BASE, 0);												// Clear the edge capture register
  8007c0:	00804074 	movhi	r2,257
  8007c4:	10842b04 	addi	r2,r2,4268
  8007c8:	10000035 	stwio	zero,0(r2)
	if ((*temp & 0x01) > 0) {																		// VSense button
  8007cc:	e0bffe17 	ldw	r2,-8(fp)
  8007d0:	10800017 	ldw	r2,0(r2)
  8007d4:	1080004c 	andi	r2,r2,1
  8007d8:	10800050 	cmplti	r2,r2,1
  8007dc:	1000191e 	bne	r2,zero,800844 <buttons_isr+0xb4>
		if (vrp_running == 1) {																		// If in VRP phase, ignore as VR
  8007e0:	d0a72217 	ldw	r2,-25464(gp)
  8007e4:	10800058 	cmpnei	r2,r2,1
  8007e8:	1000041e 	bne	r2,zero,8007fc <buttons_isr+0x6c>
			printf("vr registered\n");
  8007ec:	01002074 	movhi	r4,129
  8007f0:	212d2804 	addi	r4,r4,-19296
  8007f4:	080438c0 	call	80438c <puts>
			return;
  8007f8:	00002906 	br	8008a0 <buttons_isr+0x110>
		}
		printf("vsense pressed\n");
  8007fc:	01002074 	movhi	r4,129
  800800:	212d3504 	addi	r4,r4,-19244
  800804:	080438c0 	call	80438c <puts>
		initialise_pvarp_timer();
  800808:	08009840 	call	800984 <initialise_pvarp_timer>
		initialise_vrp_timer();
  80080c:	08009f00 	call	8009f0 <initialise_vrp_timer>
		if (aei_running == 0) {
  800810:	d0a72317 	ldw	r2,-25460(gp)
  800814:	1004c03a 	cmpne	r2,r2,zero
  800818:	1000011e 	bne	r2,zero,800820 <buttons_isr+0x90>
			initialise_aei_timer();
  80081c:	08009180 	call	800918 <initialise_aei_timer>
		}
		initialise_lri_timer();
  800820:	0800a5c0 	call	800a5c <initialise_lri_timer>
		initialise_uri_timer();
  800824:	0800ac00 	call	800ac0 <initialise_uri_timer>
		VSense = 1;																					// Set VSense as pressed
  800828:	00c02074 	movhi	r3,129
  80082c:	18fc7384 	addi	r3,r3,-3634
  800830:	00800044 	movi	r2,1
  800834:	18800005 	stb	r2,0(r3)
		initialise_debounce_timer(&VSense);
  800838:	01002074 	movhi	r4,129
  80083c:	213c7384 	addi	r4,r4,-3634
  800840:	0800b300 	call	800b30 <initialise_debounce_timer>
	}
	if ((*temp & 0x02) > 0) {																		// ASense button
  800844:	e0bffe17 	ldw	r2,-8(fp)
  800848:	10800017 	ldw	r2,0(r2)
  80084c:	1080008c 	andi	r2,r2,2
  800850:	10800050 	cmplti	r2,r2,1
  800854:	1000121e 	bne	r2,zero,8008a0 <buttons_isr+0x110>
		if (pvarp_running == 1) {																	// If in PVARP phase, ignore as AR
  800858:	d0a72117 	ldw	r2,-25468(gp)
  80085c:	10800058 	cmpnei	r2,r2,1
  800860:	1000041e 	bne	r2,zero,800874 <buttons_isr+0xe4>
			printf("ar registered\n");
  800864:	01002074 	movhi	r4,129
  800868:	212d2004 	addi	r4,r4,-19328
  80086c:	080438c0 	call	80438c <puts>
			return;
  800870:	00000b06 	br	8008a0 <buttons_isr+0x110>
		}
		printf("asense pressed\n");
  800874:	01002074 	movhi	r4,129
  800878:	212d3904 	addi	r4,r4,-19228
  80087c:	080438c0 	call	80438c <puts>
		initialise_avi_timer();
  800880:	08008b40 	call	8008b4 <initialise_avi_timer>
		ASense = 1;																					// Set ASense as pressed
  800884:	00c02074 	movhi	r3,129
  800888:	18fc6384 	addi	r3,r3,-3698
  80088c:	00800044 	movi	r2,1
  800890:	18800005 	stb	r2,0(r3)
		initialise_debounce_timer(&ASense);
  800894:	01002074 	movhi	r4,129
  800898:	213c6384 	addi	r4,r4,-3698
  80089c:	0800b300 	call	800b30 <initialise_debounce_timer>
	}
}
  8008a0:	e037883a 	mov	sp,fp
  8008a4:	dfc00117 	ldw	ra,4(sp)
  8008a8:	df000017 	ldw	fp,0(sp)
  8008ac:	dec00204 	addi	sp,sp,8
  8008b0:	f800283a 	ret

008008b4 <initialise_avi_timer>:

void initialise_avi_timer() {
  8008b4:	defffc04 	addi	sp,sp,-16
  8008b8:	dfc00315 	stw	ra,12(sp)
  8008bc:	df000215 	stw	fp,8(sp)
  8008c0:	df000204 	addi	fp,sp,8
	 * Initialises the timer for measuring the AVI period
	 *
	 * Parameters: NONE
	 * Returns: NONE
	 */
	printf("avi timer start\n");
  8008c4:	01002074 	movhi	r4,129
  8008c8:	212d3d04 	addi	r4,r4,-19212
  8008cc:	080438c0 	call	80438c <puts>
	int avi_context = 0;
  8008d0:	e03fff15 	stw	zero,-4(fp)
	void* avi_timer_context = (void*) &avi_context;
  8008d4:	e0bfff04 	addi	r2,fp,-4
  8008d8:	e0bffe15 	stw	r2,-8(fp)
	alt_alarm_stop(&avi_timer);																		// Stop the timer before running it again
  8008dc:	01002074 	movhi	r4,129
  8008e0:	213ca404 	addi	r4,r4,-3440
  8008e4:	0807b340 	call	807b34 <alt_alarm_stop>
	alt_alarm_start(&avi_timer, AVI_VALUE, avi_isr_function, avi_timer_context);
  8008e8:	01002074 	movhi	r4,129
  8008ec:	213ca404 	addi	r4,r4,-3440
  8008f0:	01404b04 	movi	r5,300
  8008f4:	01802034 	movhi	r6,128
  8008f8:	3182f204 	addi	r6,r6,3016
  8008fc:	e1fffe17 	ldw	r7,-8(fp)
  800900:	0806bfc0 	call	806bfc <alt_alarm_start>
}
  800904:	e037883a 	mov	sp,fp
  800908:	dfc00117 	ldw	ra,4(sp)
  80090c:	df000017 	ldw	fp,0(sp)
  800910:	dec00204 	addi	sp,sp,8
  800914:	f800283a 	ret

00800918 <initialise_aei_timer>:

void initialise_aei_timer() {
  800918:	defffc04 	addi	sp,sp,-16
  80091c:	dfc00315 	stw	ra,12(sp)
  800920:	df000215 	stw	fp,8(sp)
  800924:	df000204 	addi	fp,sp,8
	 * Initialises the timer for measuring the AEI period
	 *
	 * Parameters: NONE
	 * Returns: NONE
	 */
	printf("aei timer start\n");
  800928:	01002074 	movhi	r4,129
  80092c:	212d4104 	addi	r4,r4,-19196
  800930:	080438c0 	call	80438c <puts>
	int aei_context = 0;																			// Update that AEI timer is running
  800934:	e03fff15 	stw	zero,-4(fp)
	void* aei_timer_context = (void*) &aei_context;
  800938:	e0bfff04 	addi	r2,fp,-4
  80093c:	e0bffe15 	stw	r2,-8(fp)
	aei_running = 1;
  800940:	00800044 	movi	r2,1
  800944:	d0a72315 	stw	r2,-25460(gp)
	alt_alarm_stop(&aei_timer);
  800948:	01002074 	movhi	r4,129
  80094c:	213caa04 	addi	r4,r4,-3416
  800950:	0807b340 	call	807b34 <alt_alarm_stop>
	alt_alarm_start(&aei_timer, AEI_VALUE, aei_isr_function, aei_timer_context);
  800954:	01002074 	movhi	r4,129
  800958:	213caa04 	addi	r4,r4,-3416
  80095c:	0140c804 	movi	r5,800
  800960:	01802034 	movhi	r6,128
  800964:	31830a04 	addi	r6,r6,3112
  800968:	e1fffe17 	ldw	r7,-8(fp)
  80096c:	0806bfc0 	call	806bfc <alt_alarm_start>
}
  800970:	e037883a 	mov	sp,fp
  800974:	dfc00117 	ldw	ra,4(sp)
  800978:	df000017 	ldw	fp,0(sp)
  80097c:	dec00204 	addi	sp,sp,8
  800980:	f800283a 	ret

00800984 <initialise_pvarp_timer>:

void initialise_pvarp_timer() {
  800984:	defffc04 	addi	sp,sp,-16
  800988:	dfc00315 	stw	ra,12(sp)
  80098c:	df000215 	stw	fp,8(sp)
  800990:	df000204 	addi	fp,sp,8
	 * Initialises the timer for measuring the PVARP period
	 *
	 * Parameters: NONE
	 * Returns: NONE
	 */
	printf("pvarp timer start\n");
  800994:	01002074 	movhi	r4,129
  800998:	212d4504 	addi	r4,r4,-19180
  80099c:	080438c0 	call	80438c <puts>
	int pvarp_context = 0;
  8009a0:	e03fff15 	stw	zero,-4(fp)
	pvarp_running = 1;																				// Update that PVARP timer is running
  8009a4:	00800044 	movi	r2,1
  8009a8:	d0a72115 	stw	r2,-25468(gp)
	void* pvarp_timer_context = (void*) &pvarp_context;
  8009ac:	e0bfff04 	addi	r2,fp,-4
  8009b0:	e0bffe15 	stw	r2,-8(fp)
	alt_alarm_stop(&pvarp_timer);
  8009b4:	01002074 	movhi	r4,129
  8009b8:	213cb004 	addi	r4,r4,-3392
  8009bc:	0807b340 	call	807b34 <alt_alarm_stop>
	alt_alarm_start(&pvarp_timer, PVARP_VALUE, pvarp_isr_function, pvarp_timer_context);
  8009c0:	01002074 	movhi	r4,129
  8009c4:	213cb004 	addi	r4,r4,-3392
  8009c8:	01400c84 	movi	r5,50
  8009cc:	01802034 	movhi	r6,128
  8009d0:	31832304 	addi	r6,r6,3212
  8009d4:	e1fffe17 	ldw	r7,-8(fp)
  8009d8:	0806bfc0 	call	806bfc <alt_alarm_start>
}
  8009dc:	e037883a 	mov	sp,fp
  8009e0:	dfc00117 	ldw	ra,4(sp)
  8009e4:	df000017 	ldw	fp,0(sp)
  8009e8:	dec00204 	addi	sp,sp,8
  8009ec:	f800283a 	ret

008009f0 <initialise_vrp_timer>:

void initialise_vrp_timer() {
  8009f0:	defffc04 	addi	sp,sp,-16
  8009f4:	dfc00315 	stw	ra,12(sp)
  8009f8:	df000215 	stw	fp,8(sp)
  8009fc:	df000204 	addi	fp,sp,8
	 * Initialises the timer for measuring the VRP period
	 *
	 * Parameters: NONE
	 * Returns: NONE
	 */
	printf("vrp timer start\n");
  800a00:	01002074 	movhi	r4,129
  800a04:	212d4a04 	addi	r4,r4,-19160
  800a08:	080438c0 	call	80438c <puts>
	int vrp_context = 0;
  800a0c:	e03fff15 	stw	zero,-4(fp)
	vrp_running = 1;																				// Update that VRP timer is running
  800a10:	00800044 	movi	r2,1
  800a14:	d0a72215 	stw	r2,-25464(gp)
	void* vrp_timer_context = (void*) &vrp_context;
  800a18:	e0bfff04 	addi	r2,fp,-4
  800a1c:	e0bffe15 	stw	r2,-8(fp)
	alt_alarm_stop(&vrp_timer);
  800a20:	01002074 	movhi	r4,129
  800a24:	213cb604 	addi	r4,r4,-3368
  800a28:	0807b340 	call	807b34 <alt_alarm_stop>
	alt_alarm_start(&vrp_timer, VRP_VALUE, vrp_isr_function, vrp_timer_context);
  800a2c:	01002074 	movhi	r4,129
  800a30:	213cb604 	addi	r4,r4,-3368
  800a34:	01402584 	movi	r5,150
  800a38:	01802034 	movhi	r6,128
  800a3c:	31833c04 	addi	r6,r6,3312
  800a40:	e1fffe17 	ldw	r7,-8(fp)
  800a44:	0806bfc0 	call	806bfc <alt_alarm_start>
}
  800a48:	e037883a 	mov	sp,fp
  800a4c:	dfc00117 	ldw	ra,4(sp)
  800a50:	df000017 	ldw	fp,0(sp)
  800a54:	dec00204 	addi	sp,sp,8
  800a58:	f800283a 	ret

00800a5c <initialise_lri_timer>:

void initialise_lri_timer() {
  800a5c:	defffc04 	addi	sp,sp,-16
  800a60:	dfc00315 	stw	ra,12(sp)
  800a64:	df000215 	stw	fp,8(sp)
  800a68:	df000204 	addi	fp,sp,8
	 * Initialises the timer for measuring the LRI period
	 *
	 * Parameters: NONE
	 * Returns: NONE
	 */
	printf("lri timer start\n");
  800a6c:	01002074 	movhi	r4,129
  800a70:	212d4e04 	addi	r4,r4,-19144
  800a74:	080438c0 	call	80438c <puts>
	int lri_context = 0;
  800a78:	e03fff15 	stw	zero,-4(fp)
	void* lri_timer_context = (void*) &lri_context;
  800a7c:	e0bfff04 	addi	r2,fp,-4
  800a80:	e0bffe15 	stw	r2,-8(fp)
	alt_alarm_stop(&lri_timer);																		// Stop LRI timer before running it again
  800a84:	01002074 	movhi	r4,129
  800a88:	213cbc04 	addi	r4,r4,-3344
  800a8c:	0807b340 	call	807b34 <alt_alarm_stop>
	alt_alarm_start(&lri_timer, LRI_VALUE, lri_isr_function, lri_timer_context);
  800a90:	01002074 	movhi	r4,129
  800a94:	213cbc04 	addi	r4,r4,-3344
  800a98:	0140fa04 	movi	r5,1000
  800a9c:	01802034 	movhi	r6,128
  800aa0:	31835504 	addi	r6,r6,3412
  800aa4:	e1fffe17 	ldw	r7,-8(fp)
  800aa8:	0806bfc0 	call	806bfc <alt_alarm_start>
}
  800aac:	e037883a 	mov	sp,fp
  800ab0:	dfc00117 	ldw	ra,4(sp)
  800ab4:	df000017 	ldw	fp,0(sp)
  800ab8:	dec00204 	addi	sp,sp,8
  800abc:	f800283a 	ret

00800ac0 <initialise_uri_timer>:

void initialise_uri_timer() {
  800ac0:	defffc04 	addi	sp,sp,-16
  800ac4:	dfc00315 	stw	ra,12(sp)
  800ac8:	df000215 	stw	fp,8(sp)
  800acc:	df000204 	addi	fp,sp,8
	 * Initialises the timer for measuring the URI period
	 *
	 * Parameters: NONE
	 * Returns: NONE
	 */
	printf("uri timer start\n");
  800ad0:	01002074 	movhi	r4,129
  800ad4:	212d5204 	addi	r4,r4,-19128
  800ad8:	080438c0 	call	80438c <puts>
	int uri_context = 0;
  800adc:	e03fff15 	stw	zero,-4(fp)
	void* uri_timer_context = (void*) &uri_context;
  800ae0:	e0bfff04 	addi	r2,fp,-4
  800ae4:	e0bffe15 	stw	r2,-8(fp)
	URI_NOTRUNNING = 0;
  800ae8:	00802074 	movhi	r2,129
  800aec:	10bc5284 	addi	r2,r2,-3766
  800af0:	10000005 	stb	zero,0(r2)
	alt_alarm_stop(&uri_timer);																		// Stop URI timer before running it again
  800af4:	01002074 	movhi	r4,129
  800af8:	213cc204 	addi	r4,r4,-3320
  800afc:	0807b340 	call	807b34 <alt_alarm_stop>
	alt_alarm_start(&uri_timer, URI_VALUE, uri_isr_function, uri_timer_context);
  800b00:	01002074 	movhi	r4,129
  800b04:	213cc204 	addi	r4,r4,-3320
  800b08:	01409604 	movi	r5,600
  800b0c:	01802034 	movhi	r6,128
  800b10:	31836d04 	addi	r6,r6,3508
  800b14:	e1fffe17 	ldw	r7,-8(fp)
  800b18:	0806bfc0 	call	806bfc <alt_alarm_start>
}
  800b1c:	e037883a 	mov	sp,fp
  800b20:	dfc00117 	ldw	ra,4(sp)
  800b24:	df000017 	ldw	fp,0(sp)
  800b28:	dec00204 	addi	sp,sp,8
  800b2c:	f800283a 	ret

00800b30 <initialise_debounce_timer>:

void initialise_debounce_timer(int* context) {
  800b30:	defffc04 	addi	sp,sp,-16
  800b34:	dfc00315 	stw	ra,12(sp)
  800b38:	df000215 	stw	fp,8(sp)
  800b3c:	df000204 	addi	fp,sp,8
  800b40:	e13fff15 	stw	r4,-4(fp)
	 * Initialises the timer for measuring the debounce period for switches
	 *
	 * Parameters: NONE
	 * Returns: NONE
	 */
	void* debounce_timer_context = (void*) context;
  800b44:	e0bfff17 	ldw	r2,-4(fp)
  800b48:	e0bffe15 	stw	r2,-8(fp)
	alt_alarm_start(&debounce_timer, SIGNAL_VALUE, debounce_isr_function, debounce_timer_context);
  800b4c:	01002074 	movhi	r4,129
  800b50:	213cc804 	addi	r4,r4,-3296
  800b54:	01400044 	movi	r5,1
  800b58:	01802034 	movhi	r6,128
  800b5c:	31838904 	addi	r6,r6,3620
  800b60:	e1fffe17 	ldw	r7,-8(fp)
  800b64:	0806bfc0 	call	806bfc <alt_alarm_start>
}
  800b68:	e037883a 	mov	sp,fp
  800b6c:	dfc00117 	ldw	ra,4(sp)
  800b70:	df000017 	ldw	fp,0(sp)
  800b74:	dec00204 	addi	sp,sp,8
  800b78:	f800283a 	ret

00800b7c <initialise_LED_timer>:

void initialise_LED_timer(int* context) {
  800b7c:	defffc04 	addi	sp,sp,-16
  800b80:	dfc00315 	stw	ra,12(sp)
  800b84:	df000215 	stw	fp,8(sp)
  800b88:	df000204 	addi	fp,sp,8
  800b8c:	e13fff15 	stw	r4,-4(fp)
	 * Initialises the timer for measuring the LED extension period
	 *
	 * Parameters: NONE
	 * Returns: NONE
	 */
	void* LED_timer_context = (void*) context;
  800b90:	e0bfff17 	ldw	r2,-4(fp)
  800b94:	e0bffe15 	stw	r2,-8(fp)
	alt_alarm_start(&LED_timer, DEBOUNCE_VALUE, LED_isr_function, LED_timer_context);
  800b98:	01002074 	movhi	r4,129
  800b9c:	213cce04 	addi	r4,r4,-3272
  800ba0:	01400c84 	movi	r5,50
  800ba4:	01802034 	movhi	r6,128
  800ba8:	31839604 	addi	r6,r6,3672
  800bac:	e1fffe17 	ldw	r7,-8(fp)
  800bb0:	0806bfc0 	call	806bfc <alt_alarm_start>
}
  800bb4:	e037883a 	mov	sp,fp
  800bb8:	dfc00117 	ldw	ra,4(sp)
  800bbc:	df000017 	ldw	fp,0(sp)
  800bc0:	dec00204 	addi	sp,sp,8
  800bc4:	f800283a 	ret

00800bc8 <avi_isr_function>:

alt_u32 avi_isr_function(void* context) {
  800bc8:	defffd04 	addi	sp,sp,-12
  800bcc:	dfc00215 	stw	ra,8(sp)
  800bd0:	df000115 	stw	fp,4(sp)
  800bd4:	df000104 	addi	fp,sp,4
  800bd8:	e13fff15 	stw	r4,-4(fp)
	 * ISR function that is called when AVI timer times out
	 *
	 * Parameters: context
	 * Returns: alt_u32 representing the next timer value
	 */
	printf("avi timer end\n");
  800bdc:	01002074 	movhi	r4,129
  800be0:	212d5604 	addi	r4,r4,-19112
  800be4:	080438c0 	call	80438c <puts>
	if (crit_flag) {																				// Check for critical section
  800be8:	d0a72417 	ldw	r2,-25456(gp)
  800bec:	1005003a 	cmpeq	r2,r2,zero
  800bf0:	1000031e 	bne	r2,zero,800c00 <avi_isr_function+0x38>
		setAVITO = 1;																				// If in crit section, set flag to be updated
  800bf4:	00800044 	movi	r2,1
  800bf8:	d0a72515 	stw	r2,-25452(gp)
  800bfc:	00000406 	br	800c10 <avi_isr_function+0x48>
	} else {
		AVITO = 1;																					// Else update flag
  800c00:	00c02074 	movhi	r3,129
  800c04:	18fc7944 	addi	r3,r3,-3611
  800c08:	00800044 	movi	r2,1
  800c0c:	18800005 	stb	r2,0(r3)
	}
	return 0;
  800c10:	0005883a 	mov	r2,zero
}
  800c14:	e037883a 	mov	sp,fp
  800c18:	dfc00117 	ldw	ra,4(sp)
  800c1c:	df000017 	ldw	fp,0(sp)
  800c20:	dec00204 	addi	sp,sp,8
  800c24:	f800283a 	ret

00800c28 <aei_isr_function>:

alt_u32 aei_isr_function(void* context) {
  800c28:	defffd04 	addi	sp,sp,-12
  800c2c:	dfc00215 	stw	ra,8(sp)
  800c30:	df000115 	stw	fp,4(sp)
  800c34:	df000104 	addi	fp,sp,4
  800c38:	e13fff15 	stw	r4,-4(fp)
	 * ISR function that is called when AEI timer times out
	 *
	 * Parameters: context
	 * Returns: alt_u32 representing the next timer value
	 */
	printf("aei timer end\n");
  800c3c:	01002074 	movhi	r4,129
  800c40:	212d5a04 	addi	r4,r4,-19096
  800c44:	080438c0 	call	80438c <puts>
	aei_running = 0;
  800c48:	d0272315 	stw	zero,-25460(gp)
	if (crit_flag) {
  800c4c:	d0a72417 	ldw	r2,-25456(gp)
  800c50:	1005003a 	cmpeq	r2,r2,zero
  800c54:	1000031e 	bne	r2,zero,800c64 <aei_isr_function+0x3c>
		setAEITO = 1;
  800c58:	00800044 	movi	r2,1
  800c5c:	d0a72615 	stw	r2,-25448(gp)
  800c60:	00000406 	br	800c74 <aei_isr_function+0x4c>
	} else {
		AEITO = 1;
  800c64:	00c02074 	movhi	r3,129
  800c68:	18fc9784 	addi	r3,r3,-3490
  800c6c:	00800044 	movi	r2,1
  800c70:	18800005 	stb	r2,0(r3)
	}
	return 0;
  800c74:	0005883a 	mov	r2,zero
}
  800c78:	e037883a 	mov	sp,fp
  800c7c:	dfc00117 	ldw	ra,4(sp)
  800c80:	df000017 	ldw	fp,0(sp)
  800c84:	dec00204 	addi	sp,sp,8
  800c88:	f800283a 	ret

00800c8c <pvarp_isr_function>:

alt_u32 pvarp_isr_function(void* context) {
  800c8c:	defffd04 	addi	sp,sp,-12
  800c90:	dfc00215 	stw	ra,8(sp)
  800c94:	df000115 	stw	fp,4(sp)
  800c98:	df000104 	addi	fp,sp,4
  800c9c:	e13fff15 	stw	r4,-4(fp)
	 * ISR function that is called when PVARP timer times out
	 *
	 * Parameters: context
	 * Returns: alt_u32 representing the next timer value
	 */
	printf("pvarp timer end\n");
  800ca0:	01002074 	movhi	r4,129
  800ca4:	212d5e04 	addi	r4,r4,-19080
  800ca8:	080438c0 	call	80438c <puts>
	pvarp_running = 0;
  800cac:	d0272115 	stw	zero,-25468(gp)
	if (crit_flag) {
  800cb0:	d0a72417 	ldw	r2,-25456(gp)
  800cb4:	1005003a 	cmpeq	r2,r2,zero
  800cb8:	1000031e 	bne	r2,zero,800cc8 <pvarp_isr_function+0x3c>
		setPVARPTO = 1;
  800cbc:	00800044 	movi	r2,1
  800cc0:	d0a72715 	stw	r2,-25444(gp)
  800cc4:	00000406 	br	800cd8 <pvarp_isr_function+0x4c>
	} else {
		PVARPTO = 1;
  800cc8:	00c02074 	movhi	r3,129
  800ccc:	18fc7c44 	addi	r3,r3,-3599
  800cd0:	00800044 	movi	r2,1
  800cd4:	18800005 	stb	r2,0(r3)
	}
	return 0;
  800cd8:	0005883a 	mov	r2,zero
}
  800cdc:	e037883a 	mov	sp,fp
  800ce0:	dfc00117 	ldw	ra,4(sp)
  800ce4:	df000017 	ldw	fp,0(sp)
  800ce8:	dec00204 	addi	sp,sp,8
  800cec:	f800283a 	ret

00800cf0 <vrp_isr_function>:

alt_u32 vrp_isr_function(void* context) {
  800cf0:	defffd04 	addi	sp,sp,-12
  800cf4:	dfc00215 	stw	ra,8(sp)
  800cf8:	df000115 	stw	fp,4(sp)
  800cfc:	df000104 	addi	fp,sp,4
  800d00:	e13fff15 	stw	r4,-4(fp)
	 * ISR function that is called when VRP timer times out
	 *
	 * Parameters: context
	 * Returns: alt_u32 representing the next timer value
	 */
	printf("vrp timer end\n");
  800d04:	01002074 	movhi	r4,129
  800d08:	212d6204 	addi	r4,r4,-19064
  800d0c:	080438c0 	call	80438c <puts>
	vrp_running = 0;
  800d10:	d0272215 	stw	zero,-25464(gp)
	if (crit_flag) {
  800d14:	d0a72417 	ldw	r2,-25456(gp)
  800d18:	1005003a 	cmpeq	r2,r2,zero
  800d1c:	1000031e 	bne	r2,zero,800d2c <vrp_isr_function+0x3c>
		setVRPTO = 1;
  800d20:	00800044 	movi	r2,1
  800d24:	d0a72815 	stw	r2,-25440(gp)
  800d28:	00000406 	br	800d3c <vrp_isr_function+0x4c>
	} else {
		VRPTO = 1;
  800d2c:	00c02074 	movhi	r3,129
  800d30:	18fc7844 	addi	r3,r3,-3615
  800d34:	00800044 	movi	r2,1
  800d38:	18800005 	stb	r2,0(r3)
	}
	return 0;
  800d3c:	0005883a 	mov	r2,zero
}
  800d40:	e037883a 	mov	sp,fp
  800d44:	dfc00117 	ldw	ra,4(sp)
  800d48:	df000017 	ldw	fp,0(sp)
  800d4c:	dec00204 	addi	sp,sp,8
  800d50:	f800283a 	ret

00800d54 <lri_isr_function>:

alt_u32 lri_isr_function(void* context) {
  800d54:	defffd04 	addi	sp,sp,-12
  800d58:	dfc00215 	stw	ra,8(sp)
  800d5c:	df000115 	stw	fp,4(sp)
  800d60:	df000104 	addi	fp,sp,4
  800d64:	e13fff15 	stw	r4,-4(fp)
	 * ISR function that is called when LRI timer times out
	 *
	 * Parameters: context
	 * Returns: alt_u32 representing the next timer value
	 */
	printf("lri timer end\n");
  800d68:	01002074 	movhi	r4,129
  800d6c:	212d6604 	addi	r4,r4,-19048
  800d70:	080438c0 	call	80438c <puts>
	if (crit_flag) {
  800d74:	d0a72417 	ldw	r2,-25456(gp)
  800d78:	1005003a 	cmpeq	r2,r2,zero
  800d7c:	1000031e 	bne	r2,zero,800d8c <lri_isr_function+0x38>
		setLRITO = 1;
  800d80:	00800044 	movi	r2,1
  800d84:	d0a72915 	stw	r2,-25436(gp)
  800d88:	00000406 	br	800d9c <lri_isr_function+0x48>
	} else {
		LRITO = 1;
  800d8c:	00c02074 	movhi	r3,129
  800d90:	18fc5544 	addi	r3,r3,-3755
  800d94:	00800044 	movi	r2,1
  800d98:	18800005 	stb	r2,0(r3)
	}
	return 0;
  800d9c:	0005883a 	mov	r2,zero
}
  800da0:	e037883a 	mov	sp,fp
  800da4:	dfc00117 	ldw	ra,4(sp)
  800da8:	df000017 	ldw	fp,0(sp)
  800dac:	dec00204 	addi	sp,sp,8
  800db0:	f800283a 	ret

00800db4 <uri_isr_function>:

alt_u32 uri_isr_function(void* context) {
  800db4:	defffd04 	addi	sp,sp,-12
  800db8:	dfc00215 	stw	ra,8(sp)
  800dbc:	df000115 	stw	fp,4(sp)
  800dc0:	df000104 	addi	fp,sp,4
  800dc4:	e13fff15 	stw	r4,-4(fp)
	 * ISR function that is called when URI timer times out
	 *
	 * Parameters: context
	 * Returns: alt_u32 representing the next timer value
	 */
	printf("uri timer end\n");
  800dc8:	01002074 	movhi	r4,129
  800dcc:	212d6a04 	addi	r4,r4,-19032
  800dd0:	080438c0 	call	80438c <puts>
	URI_NOTRUNNING = 1;
  800dd4:	00c02074 	movhi	r3,129
  800dd8:	18fc5284 	addi	r3,r3,-3766
  800ddc:	00800044 	movi	r2,1
  800de0:	18800005 	stb	r2,0(r3)
	if (crit_flag) {
  800de4:	d0a72417 	ldw	r2,-25456(gp)
  800de8:	1005003a 	cmpeq	r2,r2,zero
  800dec:	1000031e 	bne	r2,zero,800dfc <uri_isr_function+0x48>
		setURITO = 1;
  800df0:	00800044 	movi	r2,1
  800df4:	d0a72a15 	stw	r2,-25432(gp)
  800df8:	00000406 	br	800e0c <uri_isr_function+0x58>
	} else {
		URITO = 1;
  800dfc:	00c02074 	movhi	r3,129
  800e00:	18fc7804 	addi	r3,r3,-3616
  800e04:	00800044 	movi	r2,1
  800e08:	18800005 	stb	r2,0(r3)
	}
	return 0;
  800e0c:	0005883a 	mov	r2,zero
}
  800e10:	e037883a 	mov	sp,fp
  800e14:	dfc00117 	ldw	ra,4(sp)
  800e18:	df000017 	ldw	fp,0(sp)
  800e1c:	dec00204 	addi	sp,sp,8
  800e20:	f800283a 	ret

00800e24 <debounce_isr_function>:

alt_u32 debounce_isr_function(void* context) {
  800e24:	defffd04 	addi	sp,sp,-12
  800e28:	df000215 	stw	fp,8(sp)
  800e2c:	df000204 	addi	fp,sp,8
  800e30:	e13fff15 	stw	r4,-4(fp)
	 * Sets the context variable (reference to the button pressed value) to 0
	 *
	 * Parameters: context
	 * Returns: alt_u32 representing the next timer value
	 */
	int *temp = (int*) context;
  800e34:	e0bfff17 	ldw	r2,-4(fp)
  800e38:	e0bffe15 	stw	r2,-8(fp)
	*temp = 0;
  800e3c:	e0bffe17 	ldw	r2,-8(fp)
  800e40:	10000015 	stw	zero,0(r2)
	return 0;
  800e44:	0005883a 	mov	r2,zero
}
  800e48:	e037883a 	mov	sp,fp
  800e4c:	df000017 	ldw	fp,0(sp)
  800e50:	dec00104 	addi	sp,sp,4
  800e54:	f800283a 	ret

00800e58 <LED_isr_function>:

alt_u32 LED_isr_function(void* context) {
  800e58:	defffd04 	addi	sp,sp,-12
  800e5c:	df000215 	stw	fp,8(sp)
  800e60:	df000204 	addi	fp,sp,8
  800e64:	e13fff15 	stw	r4,-4(fp)
	 * Sets the context variable (reference to the LED on value) to 0
	 *
	 * Parameters: context
	 * Returns: alt_u32 representing the next timer value
	 */
	int *temp = (int*) context;
  800e68:	e0bfff17 	ldw	r2,-4(fp)
  800e6c:	e0bffe15 	stw	r2,-8(fp)
	*temp = 0;
  800e70:	e0bffe17 	ldw	r2,-8(fp)
  800e74:	10000015 	stw	zero,0(r2)
	return 0;
  800e78:	0005883a 	mov	r2,zero
}
  800e7c:	e037883a 	mov	sp,fp
  800e80:	df000017 	ldw	fp,0(sp)
  800e84:	dec00104 	addi	sp,sp,4
  800e88:	f800283a 	ret

00800e8c <reset>:
char g139_e1_fix_fix;
char g139_e1_fix;
char g139_e1;
char g143_e2;
int _PRE_GO;
void reset(){
  800e8c:	deffff04 	addi	sp,sp,-4
  800e90:	df000015 	stw	fp,0(sp)
  800e94:	d839883a 	mov	fp,sp
   _GO = 1;
  800e98:	00800044 	movi	r2,1
  800e9c:	d0a75885 	stb	r2,-25246(gp)
   _PRE_GO = 0;
  800ea0:	d0273715 	stw	zero,-25380(gp)
   PRE_g3 = 0;
  800ea4:	d0273845 	stb	zero,-25375(gp)
   PRE_g6 = 0;
  800ea8:	d02754c5 	stb	zero,-25261(gp)
   PRE_g8 = 0;
  800eac:	d0274305 	stb	zero,-25332(gp)
   PRE_g11 = 0;
  800eb0:	d0275985 	stb	zero,-25242(gp)
   PRE_g19 = 0;
  800eb4:	d0275b05 	stb	zero,-25236(gp)
   PRE_g21 = 0;
  800eb8:	d0276a85 	stb	zero,-25174(gp)
   PRE_g27 = 0;
  800ebc:	d0273445 	stb	zero,-25391(gp)
   PRE_g30 = 0;
  800ec0:	d0277305 	stb	zero,-25140(gp)
   PRE_g35 = 0;
  800ec4:	d02745c5 	stb	zero,-25321(gp)
   PRE_g37 = 0;
  800ec8:	d0277945 	stb	zero,-25115(gp)
   PRE_g42 = 0;
  800ecc:	d0274805 	stb	zero,-25312(gp)
   PRE_g45 = 0;
  800ed0:	d0277205 	stb	zero,-25144(gp)
   PRE_g48 = 0;
  800ed4:	d0276105 	stb	zero,-25212(gp)
   PRE_g50 = 0;
  800ed8:	d02744c5 	stb	zero,-25325(gp)
   PRE_g56 = 0;
  800edc:	d02739c5 	stb	zero,-25369(gp)
   PRE_g65 = 0;
  800ee0:	d0273b85 	stb	zero,-25362(gp)
   PRE_g67 = 0;
  800ee4:	d0275685 	stb	zero,-25254(gp)
   PRE_g73 = 0;
  800ee8:	d02772c5 	stb	zero,-25141(gp)
   PRE_g75 = 0;
  800eec:	d0273a45 	stb	zero,-25367(gp)
   PRE_g80 = 0;
  800ef0:	d0274f05 	stb	zero,-25284(gp)
   PRE_g83 = 0;
  800ef4:	d02756c5 	stb	zero,-25253(gp)
   PRE_g88 = 0;
  800ef8:	d0275d05 	stb	zero,-25228(gp)
   PRE_g90 = 0;
  800efc:	d0273245 	stb	zero,-25399(gp)
   PRE_g96 = 0;
  800f00:	d0275645 	stb	zero,-25255(gp)
   PRE_g99 = 0;
  800f04:	d0276785 	stb	zero,-25186(gp)
   PRE_g101 = 0;
  800f08:	d0274e85 	stb	zero,-25286(gp)
   PRE_g104 = 0;
  800f0c:	d0274505 	stb	zero,-25324(gp)
   PRE_g116 = 0;
  800f10:	d0274785 	stb	zero,-25314(gp)
   PRE_g118 = 0;
  800f14:	d0273d85 	stb	zero,-25354(gp)
   PRE_g124 = 0;
  800f18:	d0274445 	stb	zero,-25327(gp)
   PRE_g127 = 0;
  800f1c:	d0277105 	stb	zero,-25148(gp)
   PRE_g129 = 0;
  800f20:	d02760c5 	stb	zero,-25213(gp)
   PRE_g136 = 0;
  800f24:	d0274385 	stb	zero,-25330(gp)
   PRE_g141 = 0;
  800f28:	d0273d05 	stb	zero,-25356(gp)
   return;
}
  800f2c:	e037883a 	mov	sp,fp
  800f30:	df000017 	ldw	fp,0(sp)
  800f34:	dec00104 	addi	sp,sp,4
  800f38:	f800283a 	ret

00800f3c <tick>:
void tick(){
  800f3c:	deff9d04 	addi	sp,sp,-396
  800f40:	df006215 	stw	fp,392(sp)
  800f44:	df006204 	addi	fp,sp,392
   if(_PRE_GO == 1){
  800f48:	d0a73717 	ldw	r2,-25380(gp)
  800f4c:	10800058 	cmpnei	r2,r2,1
  800f50:	1000011e 	bne	r2,zero,800f58 <tick+0x1c>
      _GO = 0;
  800f54:	d0275885 	stb	zero,-25246(gp)
   }
   {
      g0 = _GO;
  800f58:	d0a75883 	ldbu	r2,-25246(gp)
  800f5c:	d0a76885 	stb	r2,-25182(gp)
      if(g0){
  800f60:	d0a76883 	ldbu	r2,-25182(gp)
  800f64:	10803fcc 	andi	r2,r2,255
  800f68:	1080201c 	xori	r2,r2,128
  800f6c:	10bfe004 	addi	r2,r2,-128
  800f70:	1005003a 	cmpeq	r2,r2,zero
  800f74:	1000021e 	bne	r2,zero,800f80 <tick+0x44>
         URI_NOTRUNNING = 1;
  800f78:	00800044 	movi	r2,1
  800f7c:	d0a73385 	stb	r2,-25394(gp)
      }
      g1 = g0;
  800f80:	d0a76883 	ldbu	r2,-25182(gp)
  800f84:	d0a73c05 	stb	r2,-25360(gp)
      g2 = g1;
  800f88:	d0a73c03 	ldbu	r2,-25360(gp)
  800f8c:	d0a74d45 	stb	r2,-25291(gp)
      g142 =(PRE_g141);
  800f90:	d0a73d03 	ldbu	r2,-25356(gp)
  800f94:	d0a76c85 	stb	r2,-25166(gp)
      g140 = g0;
  800f98:	d0a76883 	ldbu	r2,-25182(gp)
  800f9c:	d0a738c5 	stb	r2,-25373(gp)
      g141 =(g142||g140);
  800fa0:	d0a76c83 	ldbu	r2,-25166(gp)
  800fa4:	10803fcc 	andi	r2,r2,255
  800fa8:	1080201c 	xori	r2,r2,128
  800fac:	10bfe004 	addi	r2,r2,-128
  800fb0:	1004c03a 	cmpne	r2,r2,zero
  800fb4:	1000061e 	bne	r2,zero,800fd0 <tick+0x94>
  800fb8:	d0a738c3 	ldbu	r2,-25373(gp)
  800fbc:	10803fcc 	andi	r2,r2,255
  800fc0:	1080201c 	xori	r2,r2,128
  800fc4:	10bfe004 	addi	r2,r2,-128
  800fc8:	1005003a 	cmpeq	r2,r2,zero
  800fcc:	1000031e 	bne	r2,zero,800fdc <tick+0xa0>
  800fd0:	00800044 	movi	r2,1
  800fd4:	e0bfff15 	stw	r2,-4(fp)
  800fd8:	00000106 	br	800fe0 <tick+0xa4>
  800fdc:	e03fff15 	stw	zero,-4(fp)
  800fe0:	e0ffff17 	ldw	r3,-4(fp)
  800fe4:	1805883a 	mov	r2,r3
  800fe8:	d0a76485 	stb	r2,-25198(gp)
      if(g141){
  800fec:	d0a76483 	ldbu	r2,-25198(gp)
  800ff0:	10803fcc 	andi	r2,r2,255
  800ff4:	1080201c 	xori	r2,r2,128
  800ff8:	10bfe004 	addi	r2,r2,-128
  800ffc:	1005003a 	cmpeq	r2,r2,zero
  801000:	1000021e 	bne	r2,zero,80100c <tick+0xd0>
         VPace = 0;
  801004:	d0277405 	stb	zero,-25136(gp)
         APace = 0;
  801008:	d0272f85 	stb	zero,-25410(gp)
      }
      g137 =(PRE_g136);
  80100c:	d0a74383 	ldbu	r2,-25330(gp)
  801010:	d0a767c5 	stb	r2,-25185(gp)
      g135 = g1;
  801014:	d0a73c03 	ldbu	r2,-25360(gp)
  801018:	d0a73c85 	stb	r2,-25358(gp)
      g136 =(g137||g135);
  80101c:	d0a767c3 	ldbu	r2,-25185(gp)
  801020:	10803fcc 	andi	r2,r2,255
  801024:	1080201c 	xori	r2,r2,128
  801028:	10bfe004 	addi	r2,r2,-128
  80102c:	1004c03a 	cmpne	r2,r2,zero
  801030:	1000061e 	bne	r2,zero,80104c <tick+0x110>
  801034:	d0a73c83 	ldbu	r2,-25358(gp)
  801038:	10803fcc 	andi	r2,r2,255
  80103c:	1080201c 	xori	r2,r2,128
  801040:	10bfe004 	addi	r2,r2,-128
  801044:	1005003a 	cmpeq	r2,r2,zero
  801048:	1000031e 	bne	r2,zero,801058 <tick+0x11c>
  80104c:	00800044 	movi	r2,1
  801050:	e0bffe15 	stw	r2,-8(fp)
  801054:	00000106 	br	80105c <tick+0x120>
  801058:	e03ffe15 	stw	zero,-8(fp)
  80105c:	e0fffe17 	ldw	r3,-8(fp)
  801060:	1805883a 	mov	r2,r3
  801064:	d0a74fc5 	stb	r2,-25281(gp)
      if(g136){
  801068:	d0a74fc3 	ldbu	r2,-25281(gp)
  80106c:	10803fcc 	andi	r2,r2,255
  801070:	1080201c 	xori	r2,r2,128
  801074:	10bfe004 	addi	r2,r2,-128
  801078:	1005003a 	cmpeq	r2,r2,zero
  80107c:	1000121e 	bne	r2,zero,8010c8 <tick+0x18c>
         _compsys303_a2_local_LRI_start = 0;
  801080:	d0276cc5 	stb	zero,-25165(gp)
         _compsys303_a2_local_LRI_ex = 0;
  801084:	d0273a05 	stb	zero,-25368(gp)
         _compsys303_a2_local_LRI_stop = 0;
  801088:	d0276b85 	stb	zero,-25170(gp)
         _compsys303_a2_local_VRP_start = 0;
  80108c:	d0277145 	stb	zero,-25147(gp)
         _compsys303_a2_local_VRP_ex = 0;
  801090:	d02770c5 	stb	zero,-25149(gp)
         _compsys303_a2_local_VRP_stop = 0;
  801094:	d0275245 	stb	zero,-25271(gp)
         _compsys303_a2_local_AVI_start = 0;
  801098:	d0276345 	stb	zero,-25203(gp)
         _compsys303_a2_local_AVI_ex = 0;
  80109c:	d02743c5 	stb	zero,-25329(gp)
         _compsys303_a2_local_AVI_stop = 0;
  8010a0:	d0273fc5 	stb	zero,-25345(gp)
         _compsys303_a2_local_PVARP_start = 0;
  8010a4:	d0276645 	stb	zero,-25191(gp)
         _compsys303_a2_local_PVARP_ex = 0;
  8010a8:	d0276f85 	stb	zero,-25154(gp)
         _compsys303_a2_local_PVARP_stop = 0;
  8010ac:	d0274945 	stb	zero,-25307(gp)
         _compsys303_a2_local_AEI_start = 0;
  8010b0:	d0273285 	stb	zero,-25398(gp)
         _compsys303_a2_local_AEI_ex = 0;
  8010b4:	d0273805 	stb	zero,-25376(gp)
         _compsys303_a2_local_AEI_stop = 0;
  8010b8:	d0274e45 	stb	zero,-25287(gp)
         _compsys303_a2_local_URI_start = 0;
  8010bc:	d0275205 	stb	zero,-25272(gp)
         _compsys303_a2_local_URI_ex = 0;
  8010c0:	d0276845 	stb	zero,-25183(gp)
         _compsys303_a2_local_URI_stop = 0;
  8010c4:	d0272f45 	stb	zero,-25411(gp)
      }
      g119 =(PRE_g118);
  8010c8:	d0a73d83 	ldbu	r2,-25354(gp)
  8010cc:	d0a75c05 	stb	r2,-25232(gp)
      g119b = g119;
  8010d0:	d0a75c03 	ldbu	r2,-25232(gp)
  8010d4:	d0a742c5 	stb	r2,-25333(gp)
      _cg119 = _compsys303_a2_local_URI_stop;
  8010d8:	d0a72f43 	ldbu	r2,-25411(gp)
  8010dc:	d0a74245 	stb	r2,-25335(gp)
      g120 =(g119b&&(!(_cg119)));
  8010e0:	d0a742c3 	ldbu	r2,-25333(gp)
  8010e4:	10803fcc 	andi	r2,r2,255
  8010e8:	1080201c 	xori	r2,r2,128
  8010ec:	10bfe004 	addi	r2,r2,-128
  8010f0:	1005003a 	cmpeq	r2,r2,zero
  8010f4:	1000091e 	bne	r2,zero,80111c <tick+0x1e0>
  8010f8:	d0a74243 	ldbu	r2,-25335(gp)
  8010fc:	10803fcc 	andi	r2,r2,255
  801100:	1080201c 	xori	r2,r2,128
  801104:	10bfe004 	addi	r2,r2,-128
  801108:	1004c03a 	cmpne	r2,r2,zero
  80110c:	1000031e 	bne	r2,zero,80111c <tick+0x1e0>
  801110:	00800044 	movi	r2,1
  801114:	e0bffd15 	stw	r2,-12(fp)
  801118:	00000106 	br	801120 <tick+0x1e4>
  80111c:	e03ffd15 	stw	zero,-12(fp)
  801120:	e0fffd17 	ldw	r3,-12(fp)
  801124:	1805883a 	mov	r2,r3
  801128:	d0a77505 	stb	r2,-25132(gp)
      _cg120 = URITO;
  80112c:	d0a75903 	ldbu	r2,-25244(gp)
  801130:	d0a77545 	stb	r2,-25131(gp)
      g121 =(g120&&_cg120);
  801134:	d0a77503 	ldbu	r2,-25132(gp)
  801138:	10803fcc 	andi	r2,r2,255
  80113c:	1080201c 	xori	r2,r2,128
  801140:	10bfe004 	addi	r2,r2,-128
  801144:	1005003a 	cmpeq	r2,r2,zero
  801148:	1000091e 	bne	r2,zero,801170 <tick+0x234>
  80114c:	d0a77543 	ldbu	r2,-25131(gp)
  801150:	10803fcc 	andi	r2,r2,255
  801154:	1080201c 	xori	r2,r2,128
  801158:	10bfe004 	addi	r2,r2,-128
  80115c:	1005003a 	cmpeq	r2,r2,zero
  801160:	1000031e 	bne	r2,zero,801170 <tick+0x234>
  801164:	00800044 	movi	r2,1
  801168:	e0bffc15 	stw	r2,-16(fp)
  80116c:	00000106 	br	801174 <tick+0x238>
  801170:	e03ffc15 	stw	zero,-16(fp)
  801174:	e0fffc17 	ldw	r3,-16(fp)
  801178:	1805883a 	mov	r2,r3
  80117c:	d0a77345 	stb	r2,-25139(gp)
      if(g121){
  801180:	d0a77343 	ldbu	r2,-25139(gp)
  801184:	10803fcc 	andi	r2,r2,255
  801188:	1080201c 	xori	r2,r2,128
  80118c:	10bfe004 	addi	r2,r2,-128
  801190:	1005003a 	cmpeq	r2,r2,zero
  801194:	1000021e 	bne	r2,zero,8011a0 <tick+0x264>
         _compsys303_a2_local_URI_ex =(_compsys303_a2_local_URI_ex||1);
  801198:	00800044 	movi	r2,1
  80119c:	d0a76845 	stb	r2,-25183(gp)
      }
      g57 =(PRE_g56);
  8011a0:	d0a739c3 	ldbu	r2,-25369(gp)
  8011a4:	d0a76305 	stb	r2,-25204(gp)
      g57b = g57;
  8011a8:	d0a76303 	ldbu	r2,-25204(gp)
  8011ac:	d0a75e45 	stb	r2,-25223(gp)
      _cg57 = _compsys303_a2_local_URI_ex;
  8011b0:	d0a76843 	ldbu	r2,-25183(gp)
  8011b4:	d0a76bc5 	stb	r2,-25169(gp)
      g58 =(g57b&&_cg57);
  8011b8:	d0a75e43 	ldbu	r2,-25223(gp)
  8011bc:	10803fcc 	andi	r2,r2,255
  8011c0:	1080201c 	xori	r2,r2,128
  8011c4:	10bfe004 	addi	r2,r2,-128
  8011c8:	1005003a 	cmpeq	r2,r2,zero
  8011cc:	1000091e 	bne	r2,zero,8011f4 <tick+0x2b8>
  8011d0:	d0a76bc3 	ldbu	r2,-25169(gp)
  8011d4:	10803fcc 	andi	r2,r2,255
  8011d8:	1080201c 	xori	r2,r2,128
  8011dc:	10bfe004 	addi	r2,r2,-128
  8011e0:	1005003a 	cmpeq	r2,r2,zero
  8011e4:	1000031e 	bne	r2,zero,8011f4 <tick+0x2b8>
  8011e8:	00800044 	movi	r2,1
  8011ec:	e0bffb15 	stw	r2,-20(fp)
  8011f0:	00000106 	br	8011f8 <tick+0x2bc>
  8011f4:	e03ffb15 	stw	zero,-20(fp)
  8011f8:	e0fffb17 	ldw	r3,-20(fp)
  8011fc:	1805883a 	mov	r2,r3
  801200:	d0a76b05 	stb	r2,-25172(gp)
      if(g58){
  801204:	d0a76b03 	ldbu	r2,-25172(gp)
  801208:	10803fcc 	andi	r2,r2,255
  80120c:	1080201c 	xori	r2,r2,128
  801210:	10bfe004 	addi	r2,r2,-128
  801214:	1005003a 	cmpeq	r2,r2,zero
  801218:	1000021e 	bne	r2,zero,801224 <tick+0x2e8>
         VPace =(VPace||1);
  80121c:	00800044 	movi	r2,1
  801220:	d0a77405 	stb	r2,-25136(gp)
      }
      g59 =(g57b&&(!(_cg57)));
  801224:	d0a75e43 	ldbu	r2,-25223(gp)
  801228:	10803fcc 	andi	r2,r2,255
  80122c:	1080201c 	xori	r2,r2,128
  801230:	10bfe004 	addi	r2,r2,-128
  801234:	1005003a 	cmpeq	r2,r2,zero
  801238:	1000091e 	bne	r2,zero,801260 <tick+0x324>
  80123c:	d0a76bc3 	ldbu	r2,-25169(gp)
  801240:	10803fcc 	andi	r2,r2,255
  801244:	1080201c 	xori	r2,r2,128
  801248:	10bfe004 	addi	r2,r2,-128
  80124c:	1004c03a 	cmpne	r2,r2,zero
  801250:	1000031e 	bne	r2,zero,801260 <tick+0x324>
  801254:	00800044 	movi	r2,1
  801258:	e0bffa15 	stw	r2,-24(fp)
  80125c:	00000106 	br	801264 <tick+0x328>
  801260:	e03ffa15 	stw	zero,-24(fp)
  801264:	e0fffa17 	ldw	r3,-24(fp)
  801268:	1805883a 	mov	r2,r3
  80126c:	d0a75085 	stb	r2,-25278(gp)
      _cg59 = URI_NOTRUNNING;
  801270:	d0a73383 	ldbu	r2,-25394(gp)
  801274:	d0a73185 	stb	r2,-25402(gp)
      g60 =(g59&&_cg59);
  801278:	d0a75083 	ldbu	r2,-25278(gp)
  80127c:	10803fcc 	andi	r2,r2,255
  801280:	1080201c 	xori	r2,r2,128
  801284:	10bfe004 	addi	r2,r2,-128
  801288:	1005003a 	cmpeq	r2,r2,zero
  80128c:	1000091e 	bne	r2,zero,8012b4 <tick+0x378>
  801290:	d0a73183 	ldbu	r2,-25402(gp)
  801294:	10803fcc 	andi	r2,r2,255
  801298:	1080201c 	xori	r2,r2,128
  80129c:	10bfe004 	addi	r2,r2,-128
  8012a0:	1005003a 	cmpeq	r2,r2,zero
  8012a4:	1000031e 	bne	r2,zero,8012b4 <tick+0x378>
  8012a8:	00800044 	movi	r2,1
  8012ac:	e0bff915 	stw	r2,-28(fp)
  8012b0:	00000106 	br	8012b8 <tick+0x37c>
  8012b4:	e03ff915 	stw	zero,-28(fp)
  8012b8:	e0fff917 	ldw	r3,-28(fp)
  8012bc:	1805883a 	mov	r2,r3
  8012c0:	d0a75a85 	stb	r2,-25238(gp)
      if(g60){
  8012c4:	d0a75a83 	ldbu	r2,-25238(gp)
  8012c8:	10803fcc 	andi	r2,r2,255
  8012cc:	1080201c 	xori	r2,r2,128
  8012d0:	10bfe004 	addi	r2,r2,-128
  8012d4:	1005003a 	cmpeq	r2,r2,zero
  8012d8:	1000021e 	bne	r2,zero,8012e4 <tick+0x3a8>
         VPace =(VPace||1);
  8012dc:	00800044 	movi	r2,1
  8012e0:	d0a77405 	stb	r2,-25136(gp)
      }
      g4 =(PRE_g3);
  8012e4:	d0a73843 	ldbu	r2,-25375(gp)
  8012e8:	d0a73005 	stb	r2,-25408(gp)
      _cg4 = VSense;
  8012ec:	d0a75483 	ldbu	r2,-25262(gp)
  8012f0:	d0a77645 	stb	r2,-25127(gp)
      g16 =(g4&&(!(_cg4)));
  8012f4:	d0a73003 	ldbu	r2,-25408(gp)
  8012f8:	10803fcc 	andi	r2,r2,255
  8012fc:	1080201c 	xori	r2,r2,128
  801300:	10bfe004 	addi	r2,r2,-128
  801304:	1005003a 	cmpeq	r2,r2,zero
  801308:	1000091e 	bne	r2,zero,801330 <tick+0x3f4>
  80130c:	d0a77643 	ldbu	r2,-25127(gp)
  801310:	10803fcc 	andi	r2,r2,255
  801314:	1080201c 	xori	r2,r2,128
  801318:	10bfe004 	addi	r2,r2,-128
  80131c:	1004c03a 	cmpne	r2,r2,zero
  801320:	1000031e 	bne	r2,zero,801330 <tick+0x3f4>
  801324:	00800044 	movi	r2,1
  801328:	e0bff815 	stw	r2,-32(fp)
  80132c:	00000106 	br	801334 <tick+0x3f8>
  801330:	e03ff815 	stw	zero,-32(fp)
  801334:	e0fff817 	ldw	r3,-32(fp)
  801338:	1805883a 	mov	r2,r3
  80133c:	d0a76ac5 	stb	r2,-25173(gp)
      _cg16 = VPace;
  801340:	d0a77403 	ldbu	r2,-25136(gp)
  801344:	d0a74e05 	stb	r2,-25288(gp)
      g3 =(g2||(g16&&(!(_cg16))));
  801348:	d0a74d43 	ldbu	r2,-25291(gp)
  80134c:	10803fcc 	andi	r2,r2,255
  801350:	1080201c 	xori	r2,r2,128
  801354:	10bfe004 	addi	r2,r2,-128
  801358:	1004c03a 	cmpne	r2,r2,zero
  80135c:	10000c1e 	bne	r2,zero,801390 <tick+0x454>
  801360:	d0a76ac3 	ldbu	r2,-25173(gp)
  801364:	10803fcc 	andi	r2,r2,255
  801368:	1080201c 	xori	r2,r2,128
  80136c:	10bfe004 	addi	r2,r2,-128
  801370:	1005003a 	cmpeq	r2,r2,zero
  801374:	1000091e 	bne	r2,zero,80139c <tick+0x460>
  801378:	d0a74e03 	ldbu	r2,-25288(gp)
  80137c:	10803fcc 	andi	r2,r2,255
  801380:	1080201c 	xori	r2,r2,128
  801384:	10bfe004 	addi	r2,r2,-128
  801388:	1004c03a 	cmpne	r2,r2,zero
  80138c:	1000031e 	bne	r2,zero,80139c <tick+0x460>
  801390:	00800044 	movi	r2,1
  801394:	e0bff715 	stw	r2,-36(fp)
  801398:	00000106 	br	8013a0 <tick+0x464>
  80139c:	e03ff715 	stw	zero,-36(fp)
  8013a0:	e0fff717 	ldw	r3,-36(fp)
  8013a4:	1805883a 	mov	r2,r3
  8013a8:	d0a73345 	stb	r2,-25395(gp)
      g5 =((g16&&_cg16)||(g4&&_cg4));
  8013ac:	d0a76ac3 	ldbu	r2,-25173(gp)
  8013b0:	10803fcc 	andi	r2,r2,255
  8013b4:	1080201c 	xori	r2,r2,128
  8013b8:	10bfe004 	addi	r2,r2,-128
  8013bc:	1005003a 	cmpeq	r2,r2,zero
  8013c0:	1000061e 	bne	r2,zero,8013dc <tick+0x4a0>
  8013c4:	d0a74e03 	ldbu	r2,-25288(gp)
  8013c8:	10803fcc 	andi	r2,r2,255
  8013cc:	1080201c 	xori	r2,r2,128
  8013d0:	10bfe004 	addi	r2,r2,-128
  8013d4:	1004c03a 	cmpne	r2,r2,zero
  8013d8:	10000c1e 	bne	r2,zero,80140c <tick+0x4d0>
  8013dc:	d0a73003 	ldbu	r2,-25408(gp)
  8013e0:	10803fcc 	andi	r2,r2,255
  8013e4:	1080201c 	xori	r2,r2,128
  8013e8:	10bfe004 	addi	r2,r2,-128
  8013ec:	1005003a 	cmpeq	r2,r2,zero
  8013f0:	1000091e 	bne	r2,zero,801418 <tick+0x4dc>
  8013f4:	d0a77643 	ldbu	r2,-25127(gp)
  8013f8:	10803fcc 	andi	r2,r2,255
  8013fc:	1080201c 	xori	r2,r2,128
  801400:	10bfe004 	addi	r2,r2,-128
  801404:	1005003a 	cmpeq	r2,r2,zero
  801408:	1000031e 	bne	r2,zero,801418 <tick+0x4dc>
  80140c:	00800044 	movi	r2,1
  801410:	e0bff615 	stw	r2,-40(fp)
  801414:	00000106 	br	80141c <tick+0x4e0>
  801418:	e03ff615 	stw	zero,-40(fp)
  80141c:	e0fff617 	ldw	r3,-40(fp)
  801420:	1805883a 	mov	r2,r3
  801424:	d0a74c45 	stb	r2,-25295(gp)
      if(g5){
  801428:	d0a74c43 	ldbu	r2,-25295(gp)
  80142c:	10803fcc 	andi	r2,r2,255
  801430:	1080201c 	xori	r2,r2,128
  801434:	10bfe004 	addi	r2,r2,-128
  801438:	1005003a 	cmpeq	r2,r2,zero
  80143c:	1000021e 	bne	r2,zero,801448 <tick+0x50c>
         _compsys303_a2_local_LRI_start =(_compsys303_a2_local_LRI_start||1);
  801440:	00800044 	movi	r2,1
  801444:	d0a76cc5 	stb	r2,-25165(gp)
      }
      g12 =(PRE_g11);
  801448:	d0a75983 	ldbu	r2,-25242(gp)
  80144c:	d0a73e45 	stb	r2,-25351(gp)
      g12b = g12;
  801450:	d0a73e43 	ldbu	r2,-25351(gp)
  801454:	d0a77445 	stb	r2,-25135(gp)
      if(g12b){
  801458:	d0a77443 	ldbu	r2,-25135(gp)
  80145c:	10803fcc 	andi	r2,r2,255
  801460:	1080201c 	xori	r2,r2,128
  801464:	10bfe004 	addi	r2,r2,-128
  801468:	1005003a 	cmpeq	r2,r2,zero
  80146c:	1000021e 	bne	r2,zero,801478 <tick+0x53c>
         _compsys303_a2_local_LRI_start =(_compsys303_a2_local_LRI_start||1);
  801470:	00800044 	movi	r2,1
  801474:	d0a76cc5 	stb	r2,-25165(gp)
      }
      g38 =(PRE_g37);
  801478:	d0a77943 	ldbu	r2,-25115(gp)
  80147c:	d0a746c5 	stb	r2,-25317(gp)
      _cg38 = VRPTO;
  801480:	d0a75943 	ldbu	r2,-25243(gp)
  801484:	d0a757c5 	stb	r2,-25249(gp)
      g39 =(g38&&_cg38);
  801488:	d0a746c3 	ldbu	r2,-25317(gp)
  80148c:	10803fcc 	andi	r2,r2,255
  801490:	1080201c 	xori	r2,r2,128
  801494:	10bfe004 	addi	r2,r2,-128
  801498:	1005003a 	cmpeq	r2,r2,zero
  80149c:	1000091e 	bne	r2,zero,8014c4 <tick+0x588>
  8014a0:	d0a757c3 	ldbu	r2,-25249(gp)
  8014a4:	10803fcc 	andi	r2,r2,255
  8014a8:	1080201c 	xori	r2,r2,128
  8014ac:	10bfe004 	addi	r2,r2,-128
  8014b0:	1005003a 	cmpeq	r2,r2,zero
  8014b4:	1000031e 	bne	r2,zero,8014c4 <tick+0x588>
  8014b8:	00800044 	movi	r2,1
  8014bc:	e0bff515 	stw	r2,-44(fp)
  8014c0:	00000106 	br	8014c8 <tick+0x58c>
  8014c4:	e03ff515 	stw	zero,-44(fp)
  8014c8:	e0fff517 	ldw	r3,-44(fp)
  8014cc:	1805883a 	mov	r2,r3
  8014d0:	d0a77485 	stb	r2,-25134(gp)
      if(g39){
  8014d4:	d0a77483 	ldbu	r2,-25134(gp)
  8014d8:	10803fcc 	andi	r2,r2,255
  8014dc:	1080201c 	xori	r2,r2,128
  8014e0:	10bfe004 	addi	r2,r2,-128
  8014e4:	1005003a 	cmpeq	r2,r2,zero
  8014e8:	1000021e 	bne	r2,zero,8014f4 <tick+0x5b8>
         _compsys303_a2_local_VRP_ex =(_compsys303_a2_local_VRP_ex||1);
  8014ec:	00800044 	movi	r2,1
  8014f0:	d0a770c5 	stb	r2,-25149(gp)
      }
      g7 =(PRE_g6);
  8014f4:	d0a754c3 	ldbu	r2,-25261(gp)
  8014f8:	d0a74d85 	stb	r2,-25290(gp)
      g7b = g7;
  8014fc:	d0a74d83 	ldbu	r2,-25290(gp)
  801500:	d0a73d45 	stb	r2,-25355(gp)
      _cg7 = _compsys303_a2_local_VRP_ex;
  801504:	d0a770c3 	ldbu	r2,-25149(gp)
  801508:	d0a73685 	stb	r2,-25382(gp)
      g6 =(g5||g12b||(g7b&&(!(_cg7))));
  80150c:	d0a74c43 	ldbu	r2,-25295(gp)
  801510:	10803fcc 	andi	r2,r2,255
  801514:	1080201c 	xori	r2,r2,128
  801518:	10bfe004 	addi	r2,r2,-128
  80151c:	1004c03a 	cmpne	r2,r2,zero
  801520:	1000121e 	bne	r2,zero,80156c <tick+0x630>
  801524:	d0a77443 	ldbu	r2,-25135(gp)
  801528:	10803fcc 	andi	r2,r2,255
  80152c:	1080201c 	xori	r2,r2,128
  801530:	10bfe004 	addi	r2,r2,-128
  801534:	1004c03a 	cmpne	r2,r2,zero
  801538:	10000c1e 	bne	r2,zero,80156c <tick+0x630>
  80153c:	d0a73d43 	ldbu	r2,-25355(gp)
  801540:	10803fcc 	andi	r2,r2,255
  801544:	1080201c 	xori	r2,r2,128
  801548:	10bfe004 	addi	r2,r2,-128
  80154c:	1005003a 	cmpeq	r2,r2,zero
  801550:	1000091e 	bne	r2,zero,801578 <tick+0x63c>
  801554:	d0a73683 	ldbu	r2,-25382(gp)
  801558:	10803fcc 	andi	r2,r2,255
  80155c:	1080201c 	xori	r2,r2,128
  801560:	10bfe004 	addi	r2,r2,-128
  801564:	1004c03a 	cmpne	r2,r2,zero
  801568:	1000031e 	bne	r2,zero,801578 <tick+0x63c>
  80156c:	00800044 	movi	r2,1
  801570:	e0bff415 	stw	r2,-48(fp)
  801574:	00000106 	br	80157c <tick+0x640>
  801578:	e03ff415 	stw	zero,-48(fp)
  80157c:	e0fff417 	ldw	r3,-48(fp)
  801580:	1805883a 	mov	r2,r3
  801584:	d0a76545 	stb	r2,-25195(gp)
      g9 =(PRE_g8);
  801588:	d0a74303 	ldbu	r2,-25332(gp)
  80158c:	d0a73585 	stb	r2,-25386(gp)
      _cg9 = VSense;
  801590:	d0a75483 	ldbu	r2,-25262(gp)
  801594:	d0a76745 	stb	r2,-25187(gp)
      g13 =(g9&&(!(_cg9)));
  801598:	d0a73583 	ldbu	r2,-25386(gp)
  80159c:	10803fcc 	andi	r2,r2,255
  8015a0:	1080201c 	xori	r2,r2,128
  8015a4:	10bfe004 	addi	r2,r2,-128
  8015a8:	1005003a 	cmpeq	r2,r2,zero
  8015ac:	1000091e 	bne	r2,zero,8015d4 <tick+0x698>
  8015b0:	d0a76743 	ldbu	r2,-25187(gp)
  8015b4:	10803fcc 	andi	r2,r2,255
  8015b8:	1080201c 	xori	r2,r2,128
  8015bc:	10bfe004 	addi	r2,r2,-128
  8015c0:	1004c03a 	cmpne	r2,r2,zero
  8015c4:	1000031e 	bne	r2,zero,8015d4 <tick+0x698>
  8015c8:	00800044 	movi	r2,1
  8015cc:	e0bff315 	stw	r2,-52(fp)
  8015d0:	00000106 	br	8015d8 <tick+0x69c>
  8015d4:	e03ff315 	stw	zero,-52(fp)
  8015d8:	e0fff317 	ldw	r3,-52(fp)
  8015dc:	1805883a 	mov	r2,r3
  8015e0:	d0a76205 	stb	r2,-25208(gp)
      _cg13 = VPace;
  8015e4:	d0a77403 	ldbu	r2,-25136(gp)
  8015e8:	d0a76705 	stb	r2,-25188(gp)
      g10 =((g9&&_cg9)||(g13&&_cg13));
  8015ec:	d0a73583 	ldbu	r2,-25386(gp)
  8015f0:	10803fcc 	andi	r2,r2,255
  8015f4:	1080201c 	xori	r2,r2,128
  8015f8:	10bfe004 	addi	r2,r2,-128
  8015fc:	1005003a 	cmpeq	r2,r2,zero
  801600:	1000061e 	bne	r2,zero,80161c <tick+0x6e0>
  801604:	d0a76743 	ldbu	r2,-25187(gp)
  801608:	10803fcc 	andi	r2,r2,255
  80160c:	1080201c 	xori	r2,r2,128
  801610:	10bfe004 	addi	r2,r2,-128
  801614:	1004c03a 	cmpne	r2,r2,zero
  801618:	10000c1e 	bne	r2,zero,80164c <tick+0x710>
  80161c:	d0a76203 	ldbu	r2,-25208(gp)
  801620:	10803fcc 	andi	r2,r2,255
  801624:	1080201c 	xori	r2,r2,128
  801628:	10bfe004 	addi	r2,r2,-128
  80162c:	1005003a 	cmpeq	r2,r2,zero
  801630:	1000091e 	bne	r2,zero,801658 <tick+0x71c>
  801634:	d0a76703 	ldbu	r2,-25188(gp)
  801638:	10803fcc 	andi	r2,r2,255
  80163c:	1080201c 	xori	r2,r2,128
  801640:	10bfe004 	addi	r2,r2,-128
  801644:	1005003a 	cmpeq	r2,r2,zero
  801648:	1000031e 	bne	r2,zero,801658 <tick+0x71c>
  80164c:	00800044 	movi	r2,1
  801650:	e0bff215 	stw	r2,-56(fp)
  801654:	00000106 	br	80165c <tick+0x720>
  801658:	e03ff215 	stw	zero,-56(fp)
  80165c:	e0fff217 	ldw	r3,-56(fp)
  801660:	1805883a 	mov	r2,r3
  801664:	d0a77805 	stb	r2,-25120(gp)
      if(g10){
  801668:	d0a77803 	ldbu	r2,-25120(gp)
  80166c:	10803fcc 	andi	r2,r2,255
  801670:	1080201c 	xori	r2,r2,128
  801674:	10bfe004 	addi	r2,r2,-128
  801678:	1005003a 	cmpeq	r2,r2,zero
  80167c:	1000021e 	bne	r2,zero,801688 <tick+0x74c>
         _compsys303_a2_local_LRI_stop =(_compsys303_a2_local_LRI_stop||1);
  801680:	00800044 	movi	r2,1
  801684:	d0a76b85 	stb	r2,-25170(gp)
      }
      g22 =(PRE_g21);
  801688:	d0a76a83 	ldbu	r2,-25174(gp)
  80168c:	d0a76d85 	stb	r2,-25162(gp)
      g22b = g22;
  801690:	d0a76d83 	ldbu	r2,-25162(gp)
  801694:	d0a74985 	stb	r2,-25306(gp)
      _cg22 = _compsys303_a2_local_LRI_stop;
  801698:	d0a76b83 	ldbu	r2,-25170(gp)
  80169c:	d0a75bc5 	stb	r2,-25233(gp)
      g23 =(g22b&&(!(_cg22)));
  8016a0:	d0a74983 	ldbu	r2,-25306(gp)
  8016a4:	10803fcc 	andi	r2,r2,255
  8016a8:	1080201c 	xori	r2,r2,128
  8016ac:	10bfe004 	addi	r2,r2,-128
  8016b0:	1005003a 	cmpeq	r2,r2,zero
  8016b4:	1000091e 	bne	r2,zero,8016dc <tick+0x7a0>
  8016b8:	d0a75bc3 	ldbu	r2,-25233(gp)
  8016bc:	10803fcc 	andi	r2,r2,255
  8016c0:	1080201c 	xori	r2,r2,128
  8016c4:	10bfe004 	addi	r2,r2,-128
  8016c8:	1004c03a 	cmpne	r2,r2,zero
  8016cc:	1000031e 	bne	r2,zero,8016dc <tick+0x7a0>
  8016d0:	00800044 	movi	r2,1
  8016d4:	e0bff115 	stw	r2,-60(fp)
  8016d8:	00000106 	br	8016e0 <tick+0x7a4>
  8016dc:	e03ff115 	stw	zero,-60(fp)
  8016e0:	e0fff117 	ldw	r3,-60(fp)
  8016e4:	1805883a 	mov	r2,r3
  8016e8:	d0a75185 	stb	r2,-25274(gp)
      _cg23 = LRITO;
  8016ec:	d0a73643 	ldbu	r2,-25383(gp)
  8016f0:	d0a77085 	stb	r2,-25150(gp)
      g24 =(g23&&_cg23);
  8016f4:	d0a75183 	ldbu	r2,-25274(gp)
  8016f8:	10803fcc 	andi	r2,r2,255
  8016fc:	1080201c 	xori	r2,r2,128
  801700:	10bfe004 	addi	r2,r2,-128
  801704:	1005003a 	cmpeq	r2,r2,zero
  801708:	1000091e 	bne	r2,zero,801730 <tick+0x7f4>
  80170c:	d0a77083 	ldbu	r2,-25150(gp)
  801710:	10803fcc 	andi	r2,r2,255
  801714:	1080201c 	xori	r2,r2,128
  801718:	10bfe004 	addi	r2,r2,-128
  80171c:	1005003a 	cmpeq	r2,r2,zero
  801720:	1000031e 	bne	r2,zero,801730 <tick+0x7f4>
  801724:	00800044 	movi	r2,1
  801728:	e0bff015 	stw	r2,-64(fp)
  80172c:	00000106 	br	801734 <tick+0x7f8>
  801730:	e03ff015 	stw	zero,-64(fp)
  801734:	e0fff017 	ldw	r3,-64(fp)
  801738:	1805883a 	mov	r2,r3
  80173c:	d0a77605 	stb	r2,-25128(gp)
      if(g24){
  801740:	d0a77603 	ldbu	r2,-25128(gp)
  801744:	10803fcc 	andi	r2,r2,255
  801748:	1080201c 	xori	r2,r2,128
  80174c:	10bfe004 	addi	r2,r2,-128
  801750:	1005003a 	cmpeq	r2,r2,zero
  801754:	1000021e 	bne	r2,zero,801760 <tick+0x824>
         _compsys303_a2_local_LRI_ex =(_compsys303_a2_local_LRI_ex||1);
  801758:	00800044 	movi	r2,1
  80175c:	d0a73a05 	stb	r2,-25368(gp)
      }
      g14 =(g13&&(!(_cg13)));
  801760:	d0a76203 	ldbu	r2,-25208(gp)
  801764:	10803fcc 	andi	r2,r2,255
  801768:	1080201c 	xori	r2,r2,128
  80176c:	10bfe004 	addi	r2,r2,-128
  801770:	1005003a 	cmpeq	r2,r2,zero
  801774:	1000091e 	bne	r2,zero,80179c <tick+0x860>
  801778:	d0a76703 	ldbu	r2,-25188(gp)
  80177c:	10803fcc 	andi	r2,r2,255
  801780:	1080201c 	xori	r2,r2,128
  801784:	10bfe004 	addi	r2,r2,-128
  801788:	1004c03a 	cmpne	r2,r2,zero
  80178c:	1000031e 	bne	r2,zero,80179c <tick+0x860>
  801790:	00800044 	movi	r2,1
  801794:	e0bfef15 	stw	r2,-68(fp)
  801798:	00000106 	br	8017a0 <tick+0x864>
  80179c:	e03fef15 	stw	zero,-68(fp)
  8017a0:	e0ffef17 	ldw	r3,-68(fp)
  8017a4:	1805883a 	mov	r2,r3
  8017a8:	d0a751c5 	stb	r2,-25273(gp)
      _cg14 = _compsys303_a2_local_LRI_ex;
  8017ac:	d0a73a03 	ldbu	r2,-25368(gp)
  8017b0:	d0a74b45 	stb	r2,-25299(gp)
      g8 =((g7b&&_cg7)||(g14&&(!(_cg14))));
  8017b4:	d0a73d43 	ldbu	r2,-25355(gp)
  8017b8:	10803fcc 	andi	r2,r2,255
  8017bc:	1080201c 	xori	r2,r2,128
  8017c0:	10bfe004 	addi	r2,r2,-128
  8017c4:	1005003a 	cmpeq	r2,r2,zero
  8017c8:	1000061e 	bne	r2,zero,8017e4 <tick+0x8a8>
  8017cc:	d0a73683 	ldbu	r2,-25382(gp)
  8017d0:	10803fcc 	andi	r2,r2,255
  8017d4:	1080201c 	xori	r2,r2,128
  8017d8:	10bfe004 	addi	r2,r2,-128
  8017dc:	1004c03a 	cmpne	r2,r2,zero
  8017e0:	10000c1e 	bne	r2,zero,801814 <tick+0x8d8>
  8017e4:	d0a751c3 	ldbu	r2,-25273(gp)
  8017e8:	10803fcc 	andi	r2,r2,255
  8017ec:	1080201c 	xori	r2,r2,128
  8017f0:	10bfe004 	addi	r2,r2,-128
  8017f4:	1005003a 	cmpeq	r2,r2,zero
  8017f8:	1000091e 	bne	r2,zero,801820 <tick+0x8e4>
  8017fc:	d0a74b43 	ldbu	r2,-25299(gp)
  801800:	10803fcc 	andi	r2,r2,255
  801804:	1080201c 	xori	r2,r2,128
  801808:	10bfe004 	addi	r2,r2,-128
  80180c:	1004c03a 	cmpne	r2,r2,zero
  801810:	1000031e 	bne	r2,zero,801820 <tick+0x8e4>
  801814:	00800044 	movi	r2,1
  801818:	e0bfee15 	stw	r2,-72(fp)
  80181c:	00000106 	br	801824 <tick+0x8e8>
  801820:	e03fee15 	stw	zero,-72(fp)
  801824:	e0ffee17 	ldw	r3,-72(fp)
  801828:	1805883a 	mov	r2,r3
  80182c:	d0a762c5 	stb	r2,-25205(gp)
      g15 =(g14&&_cg14);
  801830:	d0a751c3 	ldbu	r2,-25273(gp)
  801834:	10803fcc 	andi	r2,r2,255
  801838:	1080201c 	xori	r2,r2,128
  80183c:	10bfe004 	addi	r2,r2,-128
  801840:	1005003a 	cmpeq	r2,r2,zero
  801844:	1000091e 	bne	r2,zero,80186c <tick+0x930>
  801848:	d0a74b43 	ldbu	r2,-25299(gp)
  80184c:	10803fcc 	andi	r2,r2,255
  801850:	1080201c 	xori	r2,r2,128
  801854:	10bfe004 	addi	r2,r2,-128
  801858:	1005003a 	cmpeq	r2,r2,zero
  80185c:	1000031e 	bne	r2,zero,80186c <tick+0x930>
  801860:	00800044 	movi	r2,1
  801864:	e0bfed15 	stw	r2,-76(fp)
  801868:	00000106 	br	801870 <tick+0x934>
  80186c:	e03fed15 	stw	zero,-76(fp)
  801870:	e0ffed17 	ldw	r3,-76(fp)
  801874:	1805883a 	mov	r2,r3
  801878:	d0a75805 	stb	r2,-25248(gp)
      if(g15){
  80187c:	d0a75803 	ldbu	r2,-25248(gp)
  801880:	10803fcc 	andi	r2,r2,255
  801884:	1080201c 	xori	r2,r2,128
  801888:	10bfe004 	addi	r2,r2,-128
  80188c:	1005003a 	cmpeq	r2,r2,zero
  801890:	1000021e 	bne	r2,zero,80189c <tick+0x960>
         VPace =(VPace||1);
  801894:	00800044 	movi	r2,1
  801898:	d0a77405 	stb	r2,-25136(gp)
      }
      g11 =(g10||g15);
  80189c:	d0a77803 	ldbu	r2,-25120(gp)
  8018a0:	10803fcc 	andi	r2,r2,255
  8018a4:	1080201c 	xori	r2,r2,128
  8018a8:	10bfe004 	addi	r2,r2,-128
  8018ac:	1004c03a 	cmpne	r2,r2,zero
  8018b0:	1000061e 	bne	r2,zero,8018cc <tick+0x990>
  8018b4:	d0a75803 	ldbu	r2,-25248(gp)
  8018b8:	10803fcc 	andi	r2,r2,255
  8018bc:	1080201c 	xori	r2,r2,128
  8018c0:	10bfe004 	addi	r2,r2,-128
  8018c4:	1005003a 	cmpeq	r2,r2,zero
  8018c8:	1000031e 	bne	r2,zero,8018d8 <tick+0x99c>
  8018cc:	00800044 	movi	r2,1
  8018d0:	e0bfec15 	stw	r2,-80(fp)
  8018d4:	00000106 	br	8018dc <tick+0x9a0>
  8018d8:	e03fec15 	stw	zero,-80(fp)
  8018dc:	e0ffec17 	ldw	r3,-80(fp)
  8018e0:	1805883a 	mov	r2,r3
  8018e4:	d0a76d05 	stb	r2,-25164(gp)
      g18 = g1;
  8018e8:	d0a73c03 	ldbu	r2,-25360(gp)
  8018ec:	d0a74405 	stb	r2,-25328(gp)
      g20 =(PRE_g19);
  8018f0:	d0a75b03 	ldbu	r2,-25236(gp)
  8018f4:	d0a75a05 	stb	r2,-25240(gp)
      g20b = g20;
  8018f8:	d0a75a03 	ldbu	r2,-25240(gp)
  8018fc:	d0a76fc5 	stb	r2,-25153(gp)
      _cg20 = _compsys303_a2_local_LRI_start;
  801900:	d0a76cc3 	ldbu	r2,-25165(gp)
  801904:	d0a74885 	stb	r2,-25310(gp)
      g19 =(g18||g24||(g20b&&(!(_cg20)))||(g22b&&_cg22));
  801908:	d0a74403 	ldbu	r2,-25328(gp)
  80190c:	10803fcc 	andi	r2,r2,255
  801910:	1080201c 	xori	r2,r2,128
  801914:	10bfe004 	addi	r2,r2,-128
  801918:	1004c03a 	cmpne	r2,r2,zero
  80191c:	10001e1e 	bne	r2,zero,801998 <tick+0xa5c>
  801920:	d0a77603 	ldbu	r2,-25128(gp)
  801924:	10803fcc 	andi	r2,r2,255
  801928:	1080201c 	xori	r2,r2,128
  80192c:	10bfe004 	addi	r2,r2,-128
  801930:	1004c03a 	cmpne	r2,r2,zero
  801934:	1000181e 	bne	r2,zero,801998 <tick+0xa5c>
  801938:	d0a76fc3 	ldbu	r2,-25153(gp)
  80193c:	10803fcc 	andi	r2,r2,255
  801940:	1080201c 	xori	r2,r2,128
  801944:	10bfe004 	addi	r2,r2,-128
  801948:	1005003a 	cmpeq	r2,r2,zero
  80194c:	1000061e 	bne	r2,zero,801968 <tick+0xa2c>
  801950:	d0a74883 	ldbu	r2,-25310(gp)
  801954:	10803fcc 	andi	r2,r2,255
  801958:	1080201c 	xori	r2,r2,128
  80195c:	10bfe004 	addi	r2,r2,-128
  801960:	1005003a 	cmpeq	r2,r2,zero
  801964:	10000c1e 	bne	r2,zero,801998 <tick+0xa5c>
  801968:	d0a74983 	ldbu	r2,-25306(gp)
  80196c:	10803fcc 	andi	r2,r2,255
  801970:	1080201c 	xori	r2,r2,128
  801974:	10bfe004 	addi	r2,r2,-128
  801978:	1005003a 	cmpeq	r2,r2,zero
  80197c:	1000091e 	bne	r2,zero,8019a4 <tick+0xa68>
  801980:	d0a75bc3 	ldbu	r2,-25233(gp)
  801984:	10803fcc 	andi	r2,r2,255
  801988:	1080201c 	xori	r2,r2,128
  80198c:	10bfe004 	addi	r2,r2,-128
  801990:	1005003a 	cmpeq	r2,r2,zero
  801994:	1000031e 	bne	r2,zero,8019a4 <tick+0xa68>
  801998:	00800044 	movi	r2,1
  80199c:	e0bfeb15 	stw	r2,-84(fp)
  8019a0:	00000106 	br	8019a8 <tick+0xa6c>
  8019a4:	e03feb15 	stw	zero,-84(fp)
  8019a8:	e0ffeb17 	ldw	r3,-84(fp)
  8019ac:	1805883a 	mov	r2,r3
  8019b0:	d0a73085 	stb	r2,-25406(gp)
      g21 =((g23&&(!(_cg23)))||(g20b&&_cg20));
  8019b4:	d0a75183 	ldbu	r2,-25274(gp)
  8019b8:	10803fcc 	andi	r2,r2,255
  8019bc:	1080201c 	xori	r2,r2,128
  8019c0:	10bfe004 	addi	r2,r2,-128
  8019c4:	1005003a 	cmpeq	r2,r2,zero
  8019c8:	1000061e 	bne	r2,zero,8019e4 <tick+0xaa8>
  8019cc:	d0a77083 	ldbu	r2,-25150(gp)
  8019d0:	10803fcc 	andi	r2,r2,255
  8019d4:	1080201c 	xori	r2,r2,128
  8019d8:	10bfe004 	addi	r2,r2,-128
  8019dc:	1005003a 	cmpeq	r2,r2,zero
  8019e0:	10000c1e 	bne	r2,zero,801a14 <tick+0xad8>
  8019e4:	d0a76fc3 	ldbu	r2,-25153(gp)
  8019e8:	10803fcc 	andi	r2,r2,255
  8019ec:	1080201c 	xori	r2,r2,128
  8019f0:	10bfe004 	addi	r2,r2,-128
  8019f4:	1005003a 	cmpeq	r2,r2,zero
  8019f8:	1000091e 	bne	r2,zero,801a20 <tick+0xae4>
  8019fc:	d0a74883 	ldbu	r2,-25310(gp)
  801a00:	10803fcc 	andi	r2,r2,255
  801a04:	1080201c 	xori	r2,r2,128
  801a08:	10bfe004 	addi	r2,r2,-128
  801a0c:	1005003a 	cmpeq	r2,r2,zero
  801a10:	1000031e 	bne	r2,zero,801a20 <tick+0xae4>
  801a14:	00800044 	movi	r2,1
  801a18:	e0bfea15 	stw	r2,-88(fp)
  801a1c:	00000106 	br	801a24 <tick+0xae8>
  801a20:	e03fea15 	stw	zero,-88(fp)
  801a24:	e0ffea17 	ldw	r3,-88(fp)
  801a28:	1805883a 	mov	r2,r3
  801a2c:	d0a74a45 	stb	r2,-25303(gp)
      g26 = g1;
  801a30:	d0a73c03 	ldbu	r2,-25360(gp)
  801a34:	d0a77905 	stb	r2,-25116(gp)
      g28 =(PRE_g27);
  801a38:	d0a73443 	ldbu	r2,-25391(gp)
  801a3c:	d0a76dc5 	stb	r2,-25161(gp)
      _cg28 = VSense;
  801a40:	d0a75483 	ldbu	r2,-25262(gp)
  801a44:	d0a749c5 	stb	r2,-25305(gp)
      g32 =(g28&&(!(_cg28)));
  801a48:	d0a76dc3 	ldbu	r2,-25161(gp)
  801a4c:	10803fcc 	andi	r2,r2,255
  801a50:	1080201c 	xori	r2,r2,128
  801a54:	10bfe004 	addi	r2,r2,-128
  801a58:	1005003a 	cmpeq	r2,r2,zero
  801a5c:	1000091e 	bne	r2,zero,801a84 <tick+0xb48>
  801a60:	d0a749c3 	ldbu	r2,-25305(gp)
  801a64:	10803fcc 	andi	r2,r2,255
  801a68:	1080201c 	xori	r2,r2,128
  801a6c:	10bfe004 	addi	r2,r2,-128
  801a70:	1004c03a 	cmpne	r2,r2,zero
  801a74:	1000031e 	bne	r2,zero,801a84 <tick+0xb48>
  801a78:	00800044 	movi	r2,1
  801a7c:	e0bfe915 	stw	r2,-92(fp)
  801a80:	00000106 	br	801a88 <tick+0xb4c>
  801a84:	e03fe915 	stw	zero,-92(fp)
  801a88:	e0ffe917 	ldw	r3,-92(fp)
  801a8c:	1805883a 	mov	r2,r3
  801a90:	d0a76f45 	stb	r2,-25155(gp)
      _cg32 = VPace;
  801a94:	d0a77403 	ldbu	r2,-25136(gp)
  801a98:	d0a77705 	stb	r2,-25124(gp)
      g31 =(PRE_g30);
  801a9c:	d0a77303 	ldbu	r2,-25140(gp)
  801aa0:	d0a74085 	stb	r2,-25342(gp)
      g31b = g31;
  801aa4:	d0a74083 	ldbu	r2,-25342(gp)
  801aa8:	d0a733c5 	stb	r2,-25393(gp)
      _cg31 = _compsys303_a2_local_VRP_ex;
  801aac:	d0a770c3 	ldbu	r2,-25149(gp)
  801ab0:	d0a777c5 	stb	r2,-25121(gp)
      g27 =(g26||(g32&&(!(_cg32)))||(g31b&&_cg31));
  801ab4:	d0a77903 	ldbu	r2,-25116(gp)
  801ab8:	10803fcc 	andi	r2,r2,255
  801abc:	1080201c 	xori	r2,r2,128
  801ac0:	10bfe004 	addi	r2,r2,-128
  801ac4:	1004c03a 	cmpne	r2,r2,zero
  801ac8:	1000181e 	bne	r2,zero,801b2c <tick+0xbf0>
  801acc:	d0a76f43 	ldbu	r2,-25155(gp)
  801ad0:	10803fcc 	andi	r2,r2,255
  801ad4:	1080201c 	xori	r2,r2,128
  801ad8:	10bfe004 	addi	r2,r2,-128
  801adc:	1005003a 	cmpeq	r2,r2,zero
  801ae0:	1000061e 	bne	r2,zero,801afc <tick+0xbc0>
  801ae4:	d0a77703 	ldbu	r2,-25124(gp)
  801ae8:	10803fcc 	andi	r2,r2,255
  801aec:	1080201c 	xori	r2,r2,128
  801af0:	10bfe004 	addi	r2,r2,-128
  801af4:	1005003a 	cmpeq	r2,r2,zero
  801af8:	10000c1e 	bne	r2,zero,801b2c <tick+0xbf0>
  801afc:	d0a733c3 	ldbu	r2,-25393(gp)
  801b00:	10803fcc 	andi	r2,r2,255
  801b04:	1080201c 	xori	r2,r2,128
  801b08:	10bfe004 	addi	r2,r2,-128
  801b0c:	1005003a 	cmpeq	r2,r2,zero
  801b10:	1000091e 	bne	r2,zero,801b38 <tick+0xbfc>
  801b14:	d0a777c3 	ldbu	r2,-25121(gp)
  801b18:	10803fcc 	andi	r2,r2,255
  801b1c:	1080201c 	xori	r2,r2,128
  801b20:	10bfe004 	addi	r2,r2,-128
  801b24:	1005003a 	cmpeq	r2,r2,zero
  801b28:	1000031e 	bne	r2,zero,801b38 <tick+0xbfc>
  801b2c:	00800044 	movi	r2,1
  801b30:	e0bfe815 	stw	r2,-96(fp)
  801b34:	00000106 	br	801b3c <tick+0xc00>
  801b38:	e03fe815 	stw	zero,-96(fp)
  801b3c:	e0ffe817 	ldw	r3,-96(fp)
  801b40:	1805883a 	mov	r2,r3
  801b44:	d0a731c5 	stb	r2,-25401(gp)
      g29 =((g28&&_cg28)||(g32&&_cg32));
  801b48:	d0a76dc3 	ldbu	r2,-25161(gp)
  801b4c:	10803fcc 	andi	r2,r2,255
  801b50:	1080201c 	xori	r2,r2,128
  801b54:	10bfe004 	addi	r2,r2,-128
  801b58:	1005003a 	cmpeq	r2,r2,zero
  801b5c:	1000061e 	bne	r2,zero,801b78 <tick+0xc3c>
  801b60:	d0a749c3 	ldbu	r2,-25305(gp)
  801b64:	10803fcc 	andi	r2,r2,255
  801b68:	1080201c 	xori	r2,r2,128
  801b6c:	10bfe004 	addi	r2,r2,-128
  801b70:	1004c03a 	cmpne	r2,r2,zero
  801b74:	10000c1e 	bne	r2,zero,801ba8 <tick+0xc6c>
  801b78:	d0a76f43 	ldbu	r2,-25155(gp)
  801b7c:	10803fcc 	andi	r2,r2,255
  801b80:	1080201c 	xori	r2,r2,128
  801b84:	10bfe004 	addi	r2,r2,-128
  801b88:	1005003a 	cmpeq	r2,r2,zero
  801b8c:	1000091e 	bne	r2,zero,801bb4 <tick+0xc78>
  801b90:	d0a77703 	ldbu	r2,-25124(gp)
  801b94:	10803fcc 	andi	r2,r2,255
  801b98:	1080201c 	xori	r2,r2,128
  801b9c:	10bfe004 	addi	r2,r2,-128
  801ba0:	1005003a 	cmpeq	r2,r2,zero
  801ba4:	1000031e 	bne	r2,zero,801bb4 <tick+0xc78>
  801ba8:	00800044 	movi	r2,1
  801bac:	e0bfe715 	stw	r2,-100(fp)
  801bb0:	00000106 	br	801bb8 <tick+0xc7c>
  801bb4:	e03fe715 	stw	zero,-100(fp)
  801bb8:	e0ffe717 	ldw	r3,-100(fp)
  801bbc:	1805883a 	mov	r2,r3
  801bc0:	d0a77585 	stb	r2,-25130(gp)
      if(g29){
  801bc4:	d0a77583 	ldbu	r2,-25130(gp)
  801bc8:	10803fcc 	andi	r2,r2,255
  801bcc:	1080201c 	xori	r2,r2,128
  801bd0:	10bfe004 	addi	r2,r2,-128
  801bd4:	1005003a 	cmpeq	r2,r2,zero
  801bd8:	1000021e 	bne	r2,zero,801be4 <tick+0xca8>
         _compsys303_a2_local_VRP_start =(_compsys303_a2_local_VRP_start||1);
  801bdc:	00800044 	movi	r2,1
  801be0:	d0a77145 	stb	r2,-25147(gp)
      }
      g30 =(g29||(g31b&&(!(_cg31))));
  801be4:	d0a77583 	ldbu	r2,-25130(gp)
  801be8:	10803fcc 	andi	r2,r2,255
  801bec:	1080201c 	xori	r2,r2,128
  801bf0:	10bfe004 	addi	r2,r2,-128
  801bf4:	1004c03a 	cmpne	r2,r2,zero
  801bf8:	10000c1e 	bne	r2,zero,801c2c <tick+0xcf0>
  801bfc:	d0a733c3 	ldbu	r2,-25393(gp)
  801c00:	10803fcc 	andi	r2,r2,255
  801c04:	1080201c 	xori	r2,r2,128
  801c08:	10bfe004 	addi	r2,r2,-128
  801c0c:	1005003a 	cmpeq	r2,r2,zero
  801c10:	1000091e 	bne	r2,zero,801c38 <tick+0xcfc>
  801c14:	d0a777c3 	ldbu	r2,-25121(gp)
  801c18:	10803fcc 	andi	r2,r2,255
  801c1c:	1080201c 	xori	r2,r2,128
  801c20:	10bfe004 	addi	r2,r2,-128
  801c24:	1004c03a 	cmpne	r2,r2,zero
  801c28:	1000031e 	bne	r2,zero,801c38 <tick+0xcfc>
  801c2c:	00800044 	movi	r2,1
  801c30:	e0bfe615 	stw	r2,-104(fp)
  801c34:	00000106 	br	801c3c <tick+0xd00>
  801c38:	e03fe615 	stw	zero,-104(fp)
  801c3c:	e0ffe617 	ldw	r3,-104(fp)
  801c40:	1805883a 	mov	r2,r3
  801c44:	d0a76a45 	stb	r2,-25175(gp)
      g34 = g1;
  801c48:	d0a73c03 	ldbu	r2,-25360(gp)
  801c4c:	d0a74c05 	stb	r2,-25296(gp)
      g36 =(PRE_g35);
  801c50:	d0a745c3 	ldbu	r2,-25321(gp)
  801c54:	d0a75d85 	stb	r2,-25226(gp)
      g36b = g36;
  801c58:	d0a75d83 	ldbu	r2,-25226(gp)
  801c5c:	d0a764c5 	stb	r2,-25197(gp)
      _cg36 = _compsys303_a2_local_VRP_start;
  801c60:	d0a77143 	ldbu	r2,-25147(gp)
  801c64:	d0a77785 	stb	r2,-25122(gp)
      g35 =((g36b&&(!(_cg36)))||g34||g39);
  801c68:	d0a764c3 	ldbu	r2,-25197(gp)
  801c6c:	10803fcc 	andi	r2,r2,255
  801c70:	1080201c 	xori	r2,r2,128
  801c74:	10bfe004 	addi	r2,r2,-128
  801c78:	1005003a 	cmpeq	r2,r2,zero
  801c7c:	1000061e 	bne	r2,zero,801c98 <tick+0xd5c>
  801c80:	d0a77783 	ldbu	r2,-25122(gp)
  801c84:	10803fcc 	andi	r2,r2,255
  801c88:	1080201c 	xori	r2,r2,128
  801c8c:	10bfe004 	addi	r2,r2,-128
  801c90:	1005003a 	cmpeq	r2,r2,zero
  801c94:	10000c1e 	bne	r2,zero,801cc8 <tick+0xd8c>
  801c98:	d0a74c03 	ldbu	r2,-25296(gp)
  801c9c:	10803fcc 	andi	r2,r2,255
  801ca0:	1080201c 	xori	r2,r2,128
  801ca4:	10bfe004 	addi	r2,r2,-128
  801ca8:	1004c03a 	cmpne	r2,r2,zero
  801cac:	1000061e 	bne	r2,zero,801cc8 <tick+0xd8c>
  801cb0:	d0a77483 	ldbu	r2,-25134(gp)
  801cb4:	10803fcc 	andi	r2,r2,255
  801cb8:	1080201c 	xori	r2,r2,128
  801cbc:	10bfe004 	addi	r2,r2,-128
  801cc0:	1005003a 	cmpeq	r2,r2,zero
  801cc4:	1000031e 	bne	r2,zero,801cd4 <tick+0xd98>
  801cc8:	00800044 	movi	r2,1
  801ccc:	e0bfe515 	stw	r2,-108(fp)
  801cd0:	00000106 	br	801cd8 <tick+0xd9c>
  801cd4:	e03fe515 	stw	zero,-108(fp)
  801cd8:	e0ffe517 	ldw	r3,-108(fp)
  801cdc:	1805883a 	mov	r2,r3
  801ce0:	d0a75785 	stb	r2,-25250(gp)
      g37 =((g38&&(!(_cg38)))||(g36b&&_cg36));
  801ce4:	d0a746c3 	ldbu	r2,-25317(gp)
  801ce8:	10803fcc 	andi	r2,r2,255
  801cec:	1080201c 	xori	r2,r2,128
  801cf0:	10bfe004 	addi	r2,r2,-128
  801cf4:	1005003a 	cmpeq	r2,r2,zero
  801cf8:	1000061e 	bne	r2,zero,801d14 <tick+0xdd8>
  801cfc:	d0a757c3 	ldbu	r2,-25249(gp)
  801d00:	10803fcc 	andi	r2,r2,255
  801d04:	1080201c 	xori	r2,r2,128
  801d08:	10bfe004 	addi	r2,r2,-128
  801d0c:	1005003a 	cmpeq	r2,r2,zero
  801d10:	10000c1e 	bne	r2,zero,801d44 <tick+0xe08>
  801d14:	d0a764c3 	ldbu	r2,-25197(gp)
  801d18:	10803fcc 	andi	r2,r2,255
  801d1c:	1080201c 	xori	r2,r2,128
  801d20:	10bfe004 	addi	r2,r2,-128
  801d24:	1005003a 	cmpeq	r2,r2,zero
  801d28:	1000091e 	bne	r2,zero,801d50 <tick+0xe14>
  801d2c:	d0a77783 	ldbu	r2,-25122(gp)
  801d30:	10803fcc 	andi	r2,r2,255
  801d34:	1080201c 	xori	r2,r2,128
  801d38:	10bfe004 	addi	r2,r2,-128
  801d3c:	1005003a 	cmpeq	r2,r2,zero
  801d40:	1000031e 	bne	r2,zero,801d50 <tick+0xe14>
  801d44:	00800044 	movi	r2,1
  801d48:	e0bfe415 	stw	r2,-112(fp)
  801d4c:	00000106 	br	801d54 <tick+0xe18>
  801d50:	e03fe415 	stw	zero,-112(fp)
  801d54:	e0ffe417 	ldw	r3,-112(fp)
  801d58:	1805883a 	mov	r2,r3
  801d5c:	d0a74105 	stb	r2,-25340(gp)
      g41 = g1;
  801d60:	d0a73c03 	ldbu	r2,-25360(gp)
  801d64:	d0a741c5 	stb	r2,-25337(gp)
      g102 =(PRE_g101);
  801d68:	d0a74e83 	ldbu	r2,-25286(gp)
  801d6c:	d0a73885 	stb	r2,-25374(gp)
      _cg102 = ASense;
  801d70:	d0a74483 	ldbu	r2,-25326(gp)
  801d74:	d0a77845 	stb	r2,-25119(gp)
      g108 =(g102&&(!(_cg102)));
  801d78:	d0a73883 	ldbu	r2,-25374(gp)
  801d7c:	10803fcc 	andi	r2,r2,255
  801d80:	1080201c 	xori	r2,r2,128
  801d84:	10bfe004 	addi	r2,r2,-128
  801d88:	1005003a 	cmpeq	r2,r2,zero
  801d8c:	1000091e 	bne	r2,zero,801db4 <tick+0xe78>
  801d90:	d0a77843 	ldbu	r2,-25119(gp)
  801d94:	10803fcc 	andi	r2,r2,255
  801d98:	1080201c 	xori	r2,r2,128
  801d9c:	10bfe004 	addi	r2,r2,-128
  801da0:	1004c03a 	cmpne	r2,r2,zero
  801da4:	1000031e 	bne	r2,zero,801db4 <tick+0xe78>
  801da8:	00800044 	movi	r2,1
  801dac:	e0bfe315 	stw	r2,-116(fp)
  801db0:	00000106 	br	801db8 <tick+0xe7c>
  801db4:	e03fe315 	stw	zero,-116(fp)
  801db8:	e0ffe317 	ldw	r3,-116(fp)
  801dbc:	1805883a 	mov	r2,r3
  801dc0:	d0a73045 	stb	r2,-25407(gp)
      _cg108 = APace;
  801dc4:	d0a72f83 	ldbu	r2,-25410(gp)
  801dc8:	d0a766c5 	stb	r2,-25189(gp)
      g103 =((g102&&_cg102)||(g108&&_cg108));
  801dcc:	d0a73883 	ldbu	r2,-25374(gp)
  801dd0:	10803fcc 	andi	r2,r2,255
  801dd4:	1080201c 	xori	r2,r2,128
  801dd8:	10bfe004 	addi	r2,r2,-128
  801ddc:	1005003a 	cmpeq	r2,r2,zero
  801de0:	1000061e 	bne	r2,zero,801dfc <tick+0xec0>
  801de4:	d0a77843 	ldbu	r2,-25119(gp)
  801de8:	10803fcc 	andi	r2,r2,255
  801dec:	1080201c 	xori	r2,r2,128
  801df0:	10bfe004 	addi	r2,r2,-128
  801df4:	1004c03a 	cmpne	r2,r2,zero
  801df8:	10000c1e 	bne	r2,zero,801e2c <tick+0xef0>
  801dfc:	d0a73043 	ldbu	r2,-25407(gp)
  801e00:	10803fcc 	andi	r2,r2,255
  801e04:	1080201c 	xori	r2,r2,128
  801e08:	10bfe004 	addi	r2,r2,-128
  801e0c:	1005003a 	cmpeq	r2,r2,zero
  801e10:	1000091e 	bne	r2,zero,801e38 <tick+0xefc>
  801e14:	d0a766c3 	ldbu	r2,-25189(gp)
  801e18:	10803fcc 	andi	r2,r2,255
  801e1c:	1080201c 	xori	r2,r2,128
  801e20:	10bfe004 	addi	r2,r2,-128
  801e24:	1005003a 	cmpeq	r2,r2,zero
  801e28:	1000031e 	bne	r2,zero,801e38 <tick+0xefc>
  801e2c:	00800044 	movi	r2,1
  801e30:	e0bfe215 	stw	r2,-120(fp)
  801e34:	00000106 	br	801e3c <tick+0xf00>
  801e38:	e03fe215 	stw	zero,-120(fp)
  801e3c:	e0ffe217 	ldw	r3,-120(fp)
  801e40:	1805883a 	mov	r2,r3
  801e44:	d0a73405 	stb	r2,-25392(gp)
      if(g103){
  801e48:	d0a73403 	ldbu	r2,-25392(gp)
  801e4c:	10803fcc 	andi	r2,r2,255
  801e50:	1080201c 	xori	r2,r2,128
  801e54:	10bfe004 	addi	r2,r2,-128
  801e58:	1005003a 	cmpeq	r2,r2,zero
  801e5c:	1000021e 	bne	r2,zero,801e68 <tick+0xf2c>
         _compsys303_a2_local_AEI_stop =(_compsys303_a2_local_AEI_stop||1);
  801e60:	00800044 	movi	r2,1
  801e64:	d0a74e45 	stb	r2,-25287(gp)
      }
      g91 =(PRE_g90);
  801e68:	d0a73243 	ldbu	r2,-25399(gp)
  801e6c:	d0a72f05 	stb	r2,-25412(gp)
      g91b = g91;
  801e70:	d0a72f03 	ldbu	r2,-25412(gp)
  801e74:	d0a76445 	stb	r2,-25199(gp)
      _cg91 = _compsys303_a2_local_AEI_stop;
  801e78:	d0a74e43 	ldbu	r2,-25287(gp)
  801e7c:	d0a769c5 	stb	r2,-25177(gp)
      g92 =(g91b&&(!(_cg91)));
  801e80:	d0a76443 	ldbu	r2,-25199(gp)
  801e84:	10803fcc 	andi	r2,r2,255
  801e88:	1080201c 	xori	r2,r2,128
  801e8c:	10bfe004 	addi	r2,r2,-128
  801e90:	1005003a 	cmpeq	r2,r2,zero
  801e94:	1000091e 	bne	r2,zero,801ebc <tick+0xf80>
  801e98:	d0a769c3 	ldbu	r2,-25177(gp)
  801e9c:	10803fcc 	andi	r2,r2,255
  801ea0:	1080201c 	xori	r2,r2,128
  801ea4:	10bfe004 	addi	r2,r2,-128
  801ea8:	1004c03a 	cmpne	r2,r2,zero
  801eac:	1000031e 	bne	r2,zero,801ebc <tick+0xf80>
  801eb0:	00800044 	movi	r2,1
  801eb4:	e0bfe115 	stw	r2,-124(fp)
  801eb8:	00000106 	br	801ec0 <tick+0xf84>
  801ebc:	e03fe115 	stw	zero,-124(fp)
  801ec0:	e0ffe117 	ldw	r3,-124(fp)
  801ec4:	1805883a 	mov	r2,r3
  801ec8:	d0a73bc5 	stb	r2,-25361(gp)
      _cg92 = AEITO;
  801ecc:	d0a77883 	ldbu	r2,-25118(gp)
  801ed0:	d0a771c5 	stb	r2,-25145(gp)
      g93 =(g92&&_cg92);
  801ed4:	d0a73bc3 	ldbu	r2,-25361(gp)
  801ed8:	10803fcc 	andi	r2,r2,255
  801edc:	1080201c 	xori	r2,r2,128
  801ee0:	10bfe004 	addi	r2,r2,-128
  801ee4:	1005003a 	cmpeq	r2,r2,zero
  801ee8:	1000091e 	bne	r2,zero,801f10 <tick+0xfd4>
  801eec:	d0a771c3 	ldbu	r2,-25145(gp)
  801ef0:	10803fcc 	andi	r2,r2,255
  801ef4:	1080201c 	xori	r2,r2,128
  801ef8:	10bfe004 	addi	r2,r2,-128
  801efc:	1005003a 	cmpeq	r2,r2,zero
  801f00:	1000031e 	bne	r2,zero,801f10 <tick+0xfd4>
  801f04:	00800044 	movi	r2,1
  801f08:	e0bfe015 	stw	r2,-128(fp)
  801f0c:	00000106 	br	801f14 <tick+0xfd8>
  801f10:	e03fe015 	stw	zero,-128(fp)
  801f14:	e0ffe017 	ldw	r3,-128(fp)
  801f18:	1805883a 	mov	r2,r3
  801f1c:	d0a75b85 	stb	r2,-25234(gp)
      if(g93){
  801f20:	d0a75b83 	ldbu	r2,-25234(gp)
  801f24:	10803fcc 	andi	r2,r2,255
  801f28:	1080201c 	xori	r2,r2,128
  801f2c:	10bfe004 	addi	r2,r2,-128
  801f30:	1005003a 	cmpeq	r2,r2,zero
  801f34:	1000021e 	bne	r2,zero,801f40 <tick+0x1004>
         _compsys303_a2_local_AEI_ex =(_compsys303_a2_local_AEI_ex||1);
  801f38:	00800044 	movi	r2,1
  801f3c:	d0a73805 	stb	r2,-25376(gp)
      }
      g109 =(g108&&(!(_cg108)));
  801f40:	d0a73043 	ldbu	r2,-25407(gp)
  801f44:	10803fcc 	andi	r2,r2,255
  801f48:	1080201c 	xori	r2,r2,128
  801f4c:	10bfe004 	addi	r2,r2,-128
  801f50:	1005003a 	cmpeq	r2,r2,zero
  801f54:	1000091e 	bne	r2,zero,801f7c <tick+0x1040>
  801f58:	d0a766c3 	ldbu	r2,-25189(gp)
  801f5c:	10803fcc 	andi	r2,r2,255
  801f60:	1080201c 	xori	r2,r2,128
  801f64:	10bfe004 	addi	r2,r2,-128
  801f68:	1004c03a 	cmpne	r2,r2,zero
  801f6c:	1000031e 	bne	r2,zero,801f7c <tick+0x1040>
  801f70:	00800044 	movi	r2,1
  801f74:	e0bfdf15 	stw	r2,-132(fp)
  801f78:	00000106 	br	801f80 <tick+0x1044>
  801f7c:	e03fdf15 	stw	zero,-132(fp)
  801f80:	e0ffdf17 	ldw	r3,-132(fp)
  801f84:	1805883a 	mov	r2,r3
  801f88:	d0a776c5 	stb	r2,-25125(gp)
      _cg109 = _compsys303_a2_local_AEI_ex;
  801f8c:	d0a73803 	ldbu	r2,-25376(gp)
  801f90:	d0a773c5 	stb	r2,-25137(gp)
      g110 =(g109&&_cg109);
  801f94:	d0a776c3 	ldbu	r2,-25125(gp)
  801f98:	10803fcc 	andi	r2,r2,255
  801f9c:	1080201c 	xori	r2,r2,128
  801fa0:	10bfe004 	addi	r2,r2,-128
  801fa4:	1005003a 	cmpeq	r2,r2,zero
  801fa8:	1000091e 	bne	r2,zero,801fd0 <tick+0x1094>
  801fac:	d0a773c3 	ldbu	r2,-25137(gp)
  801fb0:	10803fcc 	andi	r2,r2,255
  801fb4:	1080201c 	xori	r2,r2,128
  801fb8:	10bfe004 	addi	r2,r2,-128
  801fbc:	1005003a 	cmpeq	r2,r2,zero
  801fc0:	1000031e 	bne	r2,zero,801fd0 <tick+0x1094>
  801fc4:	00800044 	movi	r2,1
  801fc8:	e0bfde15 	stw	r2,-136(fp)
  801fcc:	00000106 	br	801fd4 <tick+0x1098>
  801fd0:	e03fde15 	stw	zero,-136(fp)
  801fd4:	e0ffde17 	ldw	r3,-136(fp)
  801fd8:	1805883a 	mov	r2,r3
  801fdc:	d0a74cc5 	stb	r2,-25293(gp)
      if(g110){
  801fe0:	d0a74cc3 	ldbu	r2,-25293(gp)
  801fe4:	10803fcc 	andi	r2,r2,255
  801fe8:	1080201c 	xori	r2,r2,128
  801fec:	10bfe004 	addi	r2,r2,-128
  801ff0:	1005003a 	cmpeq	r2,r2,zero
  801ff4:	1000021e 	bne	r2,zero,802000 <tick+0x10c4>
         APace =(APace||1);
  801ff8:	00800044 	movi	r2,1
  801ffc:	d0a72f85 	stb	r2,-25410(gp)
      }
      g43 =(PRE_g42);
  802000:	d0a74803 	ldbu	r2,-25312(gp)
  802004:	d0a75cc5 	stb	r2,-25229(gp)
      _cg43 = ASense;
  802008:	d0a74483 	ldbu	r2,-25326(gp)
  80200c:	d0a74905 	stb	r2,-25308(gp)
      g61 =(g43&&(!(_cg43)));
  802010:	d0a75cc3 	ldbu	r2,-25229(gp)
  802014:	10803fcc 	andi	r2,r2,255
  802018:	1080201c 	xori	r2,r2,128
  80201c:	10bfe004 	addi	r2,r2,-128
  802020:	1005003a 	cmpeq	r2,r2,zero
  802024:	1000091e 	bne	r2,zero,80204c <tick+0x1110>
  802028:	d0a74903 	ldbu	r2,-25308(gp)
  80202c:	10803fcc 	andi	r2,r2,255
  802030:	1080201c 	xori	r2,r2,128
  802034:	10bfe004 	addi	r2,r2,-128
  802038:	1004c03a 	cmpne	r2,r2,zero
  80203c:	1000031e 	bne	r2,zero,80204c <tick+0x1110>
  802040:	00800044 	movi	r2,1
  802044:	e0bfdd15 	stw	r2,-140(fp)
  802048:	00000106 	br	802050 <tick+0x1114>
  80204c:	e03fdd15 	stw	zero,-140(fp)
  802050:	e0ffdd17 	ldw	r3,-140(fp)
  802054:	1805883a 	mov	r2,r3
  802058:	d0a73c45 	stb	r2,-25359(gp)
      _cg61 = APace;
  80205c:	d0a72f83 	ldbu	r2,-25410(gp)
  802060:	d0a74205 	stb	r2,-25336(gp)
      g42 =((g61&&(!(_cg61)))||g41);
  802064:	d0a73c43 	ldbu	r2,-25359(gp)
  802068:	10803fcc 	andi	r2,r2,255
  80206c:	1080201c 	xori	r2,r2,128
  802070:	10bfe004 	addi	r2,r2,-128
  802074:	1005003a 	cmpeq	r2,r2,zero
  802078:	1000061e 	bne	r2,zero,802094 <tick+0x1158>
  80207c:	d0a74203 	ldbu	r2,-25336(gp)
  802080:	10803fcc 	andi	r2,r2,255
  802084:	1080201c 	xori	r2,r2,128
  802088:	10bfe004 	addi	r2,r2,-128
  80208c:	1005003a 	cmpeq	r2,r2,zero
  802090:	1000061e 	bne	r2,zero,8020ac <tick+0x1170>
  802094:	d0a741c3 	ldbu	r2,-25337(gp)
  802098:	10803fcc 	andi	r2,r2,255
  80209c:	1080201c 	xori	r2,r2,128
  8020a0:	10bfe004 	addi	r2,r2,-128
  8020a4:	1005003a 	cmpeq	r2,r2,zero
  8020a8:	1000031e 	bne	r2,zero,8020b8 <tick+0x117c>
  8020ac:	00800044 	movi	r2,1
  8020b0:	e0bfdc15 	stw	r2,-144(fp)
  8020b4:	00000106 	br	8020bc <tick+0x1180>
  8020b8:	e03fdc15 	stw	zero,-144(fp)
  8020bc:	e0ffdc17 	ldw	r3,-144(fp)
  8020c0:	1805883a 	mov	r2,r3
  8020c4:	d0a73545 	stb	r2,-25387(gp)
      g44 =(g43&&_cg43);
  8020c8:	d0a75cc3 	ldbu	r2,-25229(gp)
  8020cc:	10803fcc 	andi	r2,r2,255
  8020d0:	1080201c 	xori	r2,r2,128
  8020d4:	10bfe004 	addi	r2,r2,-128
  8020d8:	1005003a 	cmpeq	r2,r2,zero
  8020dc:	1000091e 	bne	r2,zero,802104 <tick+0x11c8>
  8020e0:	d0a74903 	ldbu	r2,-25308(gp)
  8020e4:	10803fcc 	andi	r2,r2,255
  8020e8:	1080201c 	xori	r2,r2,128
  8020ec:	10bfe004 	addi	r2,r2,-128
  8020f0:	1005003a 	cmpeq	r2,r2,zero
  8020f4:	1000031e 	bne	r2,zero,802104 <tick+0x11c8>
  8020f8:	00800044 	movi	r2,1
  8020fc:	e0bfdb15 	stw	r2,-148(fp)
  802100:	00000106 	br	802108 <tick+0x11cc>
  802104:	e03fdb15 	stw	zero,-148(fp)
  802108:	e0ffdb17 	ldw	r3,-148(fp)
  80210c:	1805883a 	mov	r2,r3
  802110:	d0a73ac5 	stb	r2,-25365(gp)
      if(g44){
  802114:	d0a73ac3 	ldbu	r2,-25365(gp)
  802118:	10803fcc 	andi	r2,r2,255
  80211c:	1080201c 	xori	r2,r2,128
  802120:	10bfe004 	addi	r2,r2,-128
  802124:	1005003a 	cmpeq	r2,r2,zero
  802128:	1000021e 	bne	r2,zero,802134 <tick+0x11f8>
         _compsys303_a2_local_AVI_start =(_compsys303_a2_local_AVI_start||1);
  80212c:	00800044 	movi	r2,1
  802130:	d0a76345 	stb	r2,-25203(gp)
      }
      g46 =(PRE_g45);
  802134:	d0a77203 	ldbu	r2,-25144(gp)
  802138:	d0a75e05 	stb	r2,-25224(gp)
      _cg46 = VSense;
  80213c:	d0a75483 	ldbu	r2,-25262(gp)
  802140:	d0a73f45 	stb	r2,-25347(gp)
      g54 =(g46&&(!(_cg46)));
  802144:	d0a75e03 	ldbu	r2,-25224(gp)
  802148:	10803fcc 	andi	r2,r2,255
  80214c:	1080201c 	xori	r2,r2,128
  802150:	10bfe004 	addi	r2,r2,-128
  802154:	1005003a 	cmpeq	r2,r2,zero
  802158:	1000091e 	bne	r2,zero,802180 <tick+0x1244>
  80215c:	d0a73f43 	ldbu	r2,-25347(gp)
  802160:	10803fcc 	andi	r2,r2,255
  802164:	1080201c 	xori	r2,r2,128
  802168:	10bfe004 	addi	r2,r2,-128
  80216c:	1004c03a 	cmpne	r2,r2,zero
  802170:	1000031e 	bne	r2,zero,802180 <tick+0x1244>
  802174:	00800044 	movi	r2,1
  802178:	e0bfda15 	stw	r2,-152(fp)
  80217c:	00000106 	br	802184 <tick+0x1248>
  802180:	e03fda15 	stw	zero,-152(fp)
  802184:	e0ffda17 	ldw	r3,-152(fp)
  802188:	1805883a 	mov	r2,r3
  80218c:	d0a75105 	stb	r2,-25276(gp)
      _cg54 = VPace;
  802190:	d0a77403 	ldbu	r2,-25136(gp)
  802194:	d0a76985 	stb	r2,-25178(gp)
      g47 =((g46&&_cg46)||(g54&&_cg54));
  802198:	d0a75e03 	ldbu	r2,-25224(gp)
  80219c:	10803fcc 	andi	r2,r2,255
  8021a0:	1080201c 	xori	r2,r2,128
  8021a4:	10bfe004 	addi	r2,r2,-128
  8021a8:	1005003a 	cmpeq	r2,r2,zero
  8021ac:	1000061e 	bne	r2,zero,8021c8 <tick+0x128c>
  8021b0:	d0a73f43 	ldbu	r2,-25347(gp)
  8021b4:	10803fcc 	andi	r2,r2,255
  8021b8:	1080201c 	xori	r2,r2,128
  8021bc:	10bfe004 	addi	r2,r2,-128
  8021c0:	1004c03a 	cmpne	r2,r2,zero
  8021c4:	10000c1e 	bne	r2,zero,8021f8 <tick+0x12bc>
  8021c8:	d0a75103 	ldbu	r2,-25276(gp)
  8021cc:	10803fcc 	andi	r2,r2,255
  8021d0:	1080201c 	xori	r2,r2,128
  8021d4:	10bfe004 	addi	r2,r2,-128
  8021d8:	1005003a 	cmpeq	r2,r2,zero
  8021dc:	1000091e 	bne	r2,zero,802204 <tick+0x12c8>
  8021e0:	d0a76983 	ldbu	r2,-25178(gp)
  8021e4:	10803fcc 	andi	r2,r2,255
  8021e8:	1080201c 	xori	r2,r2,128
  8021ec:	10bfe004 	addi	r2,r2,-128
  8021f0:	1005003a 	cmpeq	r2,r2,zero
  8021f4:	1000031e 	bne	r2,zero,802204 <tick+0x12c8>
  8021f8:	00800044 	movi	r2,1
  8021fc:	e0bfd915 	stw	r2,-156(fp)
  802200:	00000106 	br	802208 <tick+0x12cc>
  802204:	e03fd915 	stw	zero,-156(fp)
  802208:	e0ffd917 	ldw	r3,-156(fp)
  80220c:	1805883a 	mov	r2,r3
  802210:	d0a73485 	stb	r2,-25390(gp)
      if(g47){
  802214:	d0a73483 	ldbu	r2,-25390(gp)
  802218:	10803fcc 	andi	r2,r2,255
  80221c:	1080201c 	xori	r2,r2,128
  802220:	10bfe004 	addi	r2,r2,-128
  802224:	1005003a 	cmpeq	r2,r2,zero
  802228:	1000021e 	bne	r2,zero,802234 <tick+0x12f8>
         _compsys303_a2_local_AVI_stop =(_compsys303_a2_local_AVI_stop||1);
  80222c:	00800044 	movi	r2,1
  802230:	d0a73fc5 	stb	r2,-25345(gp)
      }
      g68 =(PRE_g67);
  802234:	d0a75683 	ldbu	r2,-25254(gp)
  802238:	d0a76c45 	stb	r2,-25167(gp)
      g68b = g68;
  80223c:	d0a76c43 	ldbu	r2,-25167(gp)
  802240:	d0a75ac5 	stb	r2,-25237(gp)
      _cg68 = _compsys303_a2_local_AVI_stop;
  802244:	d0a73fc3 	ldbu	r2,-25345(gp)
  802248:	d0a74b85 	stb	r2,-25298(gp)
      g69 =(g68b&&(!(_cg68)));
  80224c:	d0a75ac3 	ldbu	r2,-25237(gp)
  802250:	10803fcc 	andi	r2,r2,255
  802254:	1080201c 	xori	r2,r2,128
  802258:	10bfe004 	addi	r2,r2,-128
  80225c:	1005003a 	cmpeq	r2,r2,zero
  802260:	1000091e 	bne	r2,zero,802288 <tick+0x134c>
  802264:	d0a74b83 	ldbu	r2,-25298(gp)
  802268:	10803fcc 	andi	r2,r2,255
  80226c:	1080201c 	xori	r2,r2,128
  802270:	10bfe004 	addi	r2,r2,-128
  802274:	1004c03a 	cmpne	r2,r2,zero
  802278:	1000031e 	bne	r2,zero,802288 <tick+0x134c>
  80227c:	00800044 	movi	r2,1
  802280:	e0bfd815 	stw	r2,-160(fp)
  802284:	00000106 	br	80228c <tick+0x1350>
  802288:	e03fd815 	stw	zero,-160(fp)
  80228c:	e0ffd817 	ldw	r3,-160(fp)
  802290:	1805883a 	mov	r2,r3
  802294:	d0a778c5 	stb	r2,-25117(gp)
      _cg69 = AVITO;
  802298:	d0a75a43 	ldbu	r2,-25239(gp)
  80229c:	d0a74345 	stb	r2,-25331(gp)
      g70 =(g69&&_cg69);
  8022a0:	d0a778c3 	ldbu	r2,-25117(gp)
  8022a4:	10803fcc 	andi	r2,r2,255
  8022a8:	1080201c 	xori	r2,r2,128
  8022ac:	10bfe004 	addi	r2,r2,-128
  8022b0:	1005003a 	cmpeq	r2,r2,zero
  8022b4:	1000091e 	bne	r2,zero,8022dc <tick+0x13a0>
  8022b8:	d0a74343 	ldbu	r2,-25331(gp)
  8022bc:	10803fcc 	andi	r2,r2,255
  8022c0:	1080201c 	xori	r2,r2,128
  8022c4:	10bfe004 	addi	r2,r2,-128
  8022c8:	1005003a 	cmpeq	r2,r2,zero
  8022cc:	1000031e 	bne	r2,zero,8022dc <tick+0x13a0>
  8022d0:	00800044 	movi	r2,1
  8022d4:	e0bfd715 	stw	r2,-164(fp)
  8022d8:	00000106 	br	8022e0 <tick+0x13a4>
  8022dc:	e03fd715 	stw	zero,-164(fp)
  8022e0:	e0ffd717 	ldw	r3,-164(fp)
  8022e4:	1805883a 	mov	r2,r3
  8022e8:	d0a76385 	stb	r2,-25202(gp)
      if(g70){
  8022ec:	d0a76383 	ldbu	r2,-25202(gp)
  8022f0:	10803fcc 	andi	r2,r2,255
  8022f4:	1080201c 	xori	r2,r2,128
  8022f8:	10bfe004 	addi	r2,r2,-128
  8022fc:	1005003a 	cmpeq	r2,r2,zero
  802300:	1000021e 	bne	r2,zero,80230c <tick+0x13d0>
         _compsys303_a2_local_AVI_ex =(_compsys303_a2_local_AVI_ex||1);
  802304:	00800044 	movi	r2,1
  802308:	d0a743c5 	stb	r2,-25329(gp)
      }
      g55 =(g54&&(!(_cg54)));
  80230c:	d0a75103 	ldbu	r2,-25276(gp)
  802310:	10803fcc 	andi	r2,r2,255
  802314:	1080201c 	xori	r2,r2,128
  802318:	10bfe004 	addi	r2,r2,-128
  80231c:	1005003a 	cmpeq	r2,r2,zero
  802320:	1000091e 	bne	r2,zero,802348 <tick+0x140c>
  802324:	d0a76983 	ldbu	r2,-25178(gp)
  802328:	10803fcc 	andi	r2,r2,255
  80232c:	1080201c 	xori	r2,r2,128
  802330:	10bfe004 	addi	r2,r2,-128
  802334:	1004c03a 	cmpne	r2,r2,zero
  802338:	1000031e 	bne	r2,zero,802348 <tick+0x140c>
  80233c:	00800044 	movi	r2,1
  802340:	e0bfd615 	stw	r2,-168(fp)
  802344:	00000106 	br	80234c <tick+0x1410>
  802348:	e03fd615 	stw	zero,-168(fp)
  80234c:	e0ffd617 	ldw	r3,-168(fp)
  802350:	1805883a 	mov	r2,r3
  802354:	d0a73145 	stb	r2,-25403(gp)
      _cg55 = _compsys303_a2_local_AVI_ex;
  802358:	d0a743c3 	ldbu	r2,-25329(gp)
  80235c:	d0a77185 	stb	r2,-25146(gp)
      g62 =(g61&&_cg61);
  802360:	d0a73c43 	ldbu	r2,-25359(gp)
  802364:	10803fcc 	andi	r2,r2,255
  802368:	1080201c 	xori	r2,r2,128
  80236c:	10bfe004 	addi	r2,r2,-128
  802370:	1005003a 	cmpeq	r2,r2,zero
  802374:	1000091e 	bne	r2,zero,80239c <tick+0x1460>
  802378:	d0a74203 	ldbu	r2,-25336(gp)
  80237c:	10803fcc 	andi	r2,r2,255
  802380:	1080201c 	xori	r2,r2,128
  802384:	10bfe004 	addi	r2,r2,-128
  802388:	1005003a 	cmpeq	r2,r2,zero
  80238c:	1000031e 	bne	r2,zero,80239c <tick+0x1460>
  802390:	00800044 	movi	r2,1
  802394:	e0bfd515 	stw	r2,-172(fp)
  802398:	00000106 	br	8023a0 <tick+0x1464>
  80239c:	e03fd515 	stw	zero,-172(fp)
  8023a0:	e0ffd517 	ldw	r3,-172(fp)
  8023a4:	1805883a 	mov	r2,r3
  8023a8:	d0a74145 	stb	r2,-25339(gp)
      if(g62){
  8023ac:	d0a74143 	ldbu	r2,-25339(gp)
  8023b0:	10803fcc 	andi	r2,r2,255
  8023b4:	1080201c 	xori	r2,r2,128
  8023b8:	10bfe004 	addi	r2,r2,-128
  8023bc:	1005003a 	cmpeq	r2,r2,zero
  8023c0:	1000021e 	bne	r2,zero,8023cc <tick+0x1490>
         _compsys303_a2_local_AVI_start =(_compsys303_a2_local_AVI_start||1);
  8023c4:	00800044 	movi	r2,1
  8023c8:	d0a76345 	stb	r2,-25203(gp)
      }
      g51 =(PRE_g50);
  8023cc:	d0a744c3 	ldbu	r2,-25325(gp)
  8023d0:	d0a75f85 	stb	r2,-25218(gp)
      _cg51 = ASense;
  8023d4:	d0a74483 	ldbu	r2,-25326(gp)
  8023d8:	d0a74b05 	stb	r2,-25300(gp)
      g53 =(g51&&(!(_cg51)));
  8023dc:	d0a75f83 	ldbu	r2,-25218(gp)
  8023e0:	10803fcc 	andi	r2,r2,255
  8023e4:	1080201c 	xori	r2,r2,128
  8023e8:	10bfe004 	addi	r2,r2,-128
  8023ec:	1005003a 	cmpeq	r2,r2,zero
  8023f0:	1000091e 	bne	r2,zero,802418 <tick+0x14dc>
  8023f4:	d0a74b03 	ldbu	r2,-25300(gp)
  8023f8:	10803fcc 	andi	r2,r2,255
  8023fc:	1080201c 	xori	r2,r2,128
  802400:	10bfe004 	addi	r2,r2,-128
  802404:	1004c03a 	cmpne	r2,r2,zero
  802408:	1000031e 	bne	r2,zero,802418 <tick+0x14dc>
  80240c:	00800044 	movi	r2,1
  802410:	e0bfd415 	stw	r2,-176(fp)
  802414:	00000106 	br	80241c <tick+0x14e0>
  802418:	e03fd415 	stw	zero,-176(fp)
  80241c:	e0ffd417 	ldw	r3,-176(fp)
  802420:	1805883a 	mov	r2,r3
  802424:	d0a76285 	stb	r2,-25206(gp)
      _cg53 = APace;
  802428:	d0a72f83 	ldbu	r2,-25410(gp)
  80242c:	d0a74dc5 	stb	r2,-25289(gp)
      g52 =((g51&&_cg51)||(g53&&_cg53));
  802430:	d0a75f83 	ldbu	r2,-25218(gp)
  802434:	10803fcc 	andi	r2,r2,255
  802438:	1080201c 	xori	r2,r2,128
  80243c:	10bfe004 	addi	r2,r2,-128
  802440:	1005003a 	cmpeq	r2,r2,zero
  802444:	1000061e 	bne	r2,zero,802460 <tick+0x1524>
  802448:	d0a74b03 	ldbu	r2,-25300(gp)
  80244c:	10803fcc 	andi	r2,r2,255
  802450:	1080201c 	xori	r2,r2,128
  802454:	10bfe004 	addi	r2,r2,-128
  802458:	1004c03a 	cmpne	r2,r2,zero
  80245c:	10000c1e 	bne	r2,zero,802490 <tick+0x1554>
  802460:	d0a76283 	ldbu	r2,-25206(gp)
  802464:	10803fcc 	andi	r2,r2,255
  802468:	1080201c 	xori	r2,r2,128
  80246c:	10bfe004 	addi	r2,r2,-128
  802470:	1005003a 	cmpeq	r2,r2,zero
  802474:	1000091e 	bne	r2,zero,80249c <tick+0x1560>
  802478:	d0a74dc3 	ldbu	r2,-25289(gp)
  80247c:	10803fcc 	andi	r2,r2,255
  802480:	1080201c 	xori	r2,r2,128
  802484:	10bfe004 	addi	r2,r2,-128
  802488:	1005003a 	cmpeq	r2,r2,zero
  80248c:	1000031e 	bne	r2,zero,80249c <tick+0x1560>
  802490:	00800044 	movi	r2,1
  802494:	e0bfd315 	stw	r2,-180(fp)
  802498:	00000106 	br	8024a0 <tick+0x1564>
  80249c:	e03fd315 	stw	zero,-180(fp)
  8024a0:	e0ffd317 	ldw	r3,-180(fp)
  8024a4:	1805883a 	mov	r2,r3
  8024a8:	d0a73ec5 	stb	r2,-25349(gp)
      if(g52){
  8024ac:	d0a73ec3 	ldbu	r2,-25349(gp)
  8024b0:	10803fcc 	andi	r2,r2,255
  8024b4:	1080201c 	xori	r2,r2,128
  8024b8:	10bfe004 	addi	r2,r2,-128
  8024bc:	1005003a 	cmpeq	r2,r2,zero
  8024c0:	1000021e 	bne	r2,zero,8024cc <tick+0x1590>
         _compsys303_a2_local_AVI_start =(_compsys303_a2_local_AVI_start||1);
  8024c4:	00800044 	movi	r2,1
  8024c8:	d0a76345 	stb	r2,-25203(gp)
      }
      g45 =((g55&&(!(_cg55)))||g62||g44||g52);
  8024cc:	d0a73143 	ldbu	r2,-25403(gp)
  8024d0:	10803fcc 	andi	r2,r2,255
  8024d4:	1080201c 	xori	r2,r2,128
  8024d8:	10bfe004 	addi	r2,r2,-128
  8024dc:	1005003a 	cmpeq	r2,r2,zero
  8024e0:	1000061e 	bne	r2,zero,8024fc <tick+0x15c0>
  8024e4:	d0a77183 	ldbu	r2,-25146(gp)
  8024e8:	10803fcc 	andi	r2,r2,255
  8024ec:	1080201c 	xori	r2,r2,128
  8024f0:	10bfe004 	addi	r2,r2,-128
  8024f4:	1005003a 	cmpeq	r2,r2,zero
  8024f8:	1000121e 	bne	r2,zero,802544 <tick+0x1608>
  8024fc:	d0a74143 	ldbu	r2,-25339(gp)
  802500:	10803fcc 	andi	r2,r2,255
  802504:	1080201c 	xori	r2,r2,128
  802508:	10bfe004 	addi	r2,r2,-128
  80250c:	1004c03a 	cmpne	r2,r2,zero
  802510:	10000c1e 	bne	r2,zero,802544 <tick+0x1608>
  802514:	d0a73ac3 	ldbu	r2,-25365(gp)
  802518:	10803fcc 	andi	r2,r2,255
  80251c:	1080201c 	xori	r2,r2,128
  802520:	10bfe004 	addi	r2,r2,-128
  802524:	1004c03a 	cmpne	r2,r2,zero
  802528:	1000061e 	bne	r2,zero,802544 <tick+0x1608>
  80252c:	d0a73ec3 	ldbu	r2,-25349(gp)
  802530:	10803fcc 	andi	r2,r2,255
  802534:	1080201c 	xori	r2,r2,128
  802538:	10bfe004 	addi	r2,r2,-128
  80253c:	1005003a 	cmpeq	r2,r2,zero
  802540:	1000031e 	bne	r2,zero,802550 <tick+0x1614>
  802544:	00800044 	movi	r2,1
  802548:	e0bfd215 	stw	r2,-184(fp)
  80254c:	00000106 	br	802554 <tick+0x1618>
  802550:	e03fd215 	stw	zero,-184(fp)
  802554:	e0ffd217 	ldw	r3,-184(fp)
  802558:	1805883a 	mov	r2,r3
  80255c:	d0a77045 	stb	r2,-25151(gp)
      g76 =(PRE_g75);
  802560:	d0a73a43 	ldbu	r2,-25367(gp)
  802564:	d0a74045 	stb	r2,-25343(gp)
      _cg76 = PVARPTO;
  802568:	d0a75d43 	ldbu	r2,-25227(gp)
  80256c:	d0a748c5 	stb	r2,-25309(gp)
      g77 =(g76&&_cg76);
  802570:	d0a74043 	ldbu	r2,-25343(gp)
  802574:	10803fcc 	andi	r2,r2,255
  802578:	1080201c 	xori	r2,r2,128
  80257c:	10bfe004 	addi	r2,r2,-128
  802580:	1005003a 	cmpeq	r2,r2,zero
  802584:	1000091e 	bne	r2,zero,8025ac <tick+0x1670>
  802588:	d0a748c3 	ldbu	r2,-25309(gp)
  80258c:	10803fcc 	andi	r2,r2,255
  802590:	1080201c 	xori	r2,r2,128
  802594:	10bfe004 	addi	r2,r2,-128
  802598:	1005003a 	cmpeq	r2,r2,zero
  80259c:	1000031e 	bne	r2,zero,8025ac <tick+0x1670>
  8025a0:	00800044 	movi	r2,1
  8025a4:	e0bfd115 	stw	r2,-188(fp)
  8025a8:	00000106 	br	8025b0 <tick+0x1674>
  8025ac:	e03fd115 	stw	zero,-188(fp)
  8025b0:	e0ffd117 	ldw	r3,-188(fp)
  8025b4:	1805883a 	mov	r2,r3
  8025b8:	d0a76f05 	stb	r2,-25156(gp)
      if(g77){
  8025bc:	d0a76f03 	ldbu	r2,-25156(gp)
  8025c0:	10803fcc 	andi	r2,r2,255
  8025c4:	1080201c 	xori	r2,r2,128
  8025c8:	10bfe004 	addi	r2,r2,-128
  8025cc:	1005003a 	cmpeq	r2,r2,zero
  8025d0:	1000021e 	bne	r2,zero,8025dc <tick+0x16a0>
         _compsys303_a2_local_PVARP_ex =(_compsys303_a2_local_PVARP_ex||1);
  8025d4:	00800044 	movi	r2,1
  8025d8:	d0a76f85 	stb	r2,-25154(gp)
      }
      g49 =(PRE_g48);
  8025dc:	d0a76103 	ldbu	r2,-25212(gp)
  8025e0:	d0a74d05 	stb	r2,-25292(gp)
      g49b = g49;
  8025e4:	d0a74d03 	ldbu	r2,-25292(gp)
  8025e8:	d0a77285 	stb	r2,-25142(gp)
      _cg49 = _compsys303_a2_local_PVARP_ex;
  8025ec:	d0a76f83 	ldbu	r2,-25154(gp)
  8025f0:	d0a774c5 	stb	r2,-25133(gp)
      g48 =(g58||g60||(g49b&&(!(_cg49)))||g47);
  8025f4:	d0a76b03 	ldbu	r2,-25172(gp)
  8025f8:	10803fcc 	andi	r2,r2,255
  8025fc:	1080201c 	xori	r2,r2,128
  802600:	10bfe004 	addi	r2,r2,-128
  802604:	1004c03a 	cmpne	r2,r2,zero
  802608:	1000181e 	bne	r2,zero,80266c <tick+0x1730>
  80260c:	d0a75a83 	ldbu	r2,-25238(gp)
  802610:	10803fcc 	andi	r2,r2,255
  802614:	1080201c 	xori	r2,r2,128
  802618:	10bfe004 	addi	r2,r2,-128
  80261c:	1004c03a 	cmpne	r2,r2,zero
  802620:	1000121e 	bne	r2,zero,80266c <tick+0x1730>
  802624:	d0a77283 	ldbu	r2,-25142(gp)
  802628:	10803fcc 	andi	r2,r2,255
  80262c:	1080201c 	xori	r2,r2,128
  802630:	10bfe004 	addi	r2,r2,-128
  802634:	1005003a 	cmpeq	r2,r2,zero
  802638:	1000061e 	bne	r2,zero,802654 <tick+0x1718>
  80263c:	d0a774c3 	ldbu	r2,-25133(gp)
  802640:	10803fcc 	andi	r2,r2,255
  802644:	1080201c 	xori	r2,r2,128
  802648:	10bfe004 	addi	r2,r2,-128
  80264c:	1005003a 	cmpeq	r2,r2,zero
  802650:	1000061e 	bne	r2,zero,80266c <tick+0x1730>
  802654:	d0a73483 	ldbu	r2,-25390(gp)
  802658:	10803fcc 	andi	r2,r2,255
  80265c:	1080201c 	xori	r2,r2,128
  802660:	10bfe004 	addi	r2,r2,-128
  802664:	1005003a 	cmpeq	r2,r2,zero
  802668:	1000031e 	bne	r2,zero,802678 <tick+0x173c>
  80266c:	00800044 	movi	r2,1
  802670:	e0bfd015 	stw	r2,-192(fp)
  802674:	00000106 	br	80267c <tick+0x1740>
  802678:	e03fd015 	stw	zero,-192(fp)
  80267c:	e0ffd017 	ldw	r3,-192(fp)
  802680:	1805883a 	mov	r2,r3
  802684:	d0a74585 	stb	r2,-25322(gp)
      g50 =((g49b&&_cg49)||(g53&&(!(_cg53))));
  802688:	d0a77283 	ldbu	r2,-25142(gp)
  80268c:	10803fcc 	andi	r2,r2,255
  802690:	1080201c 	xori	r2,r2,128
  802694:	10bfe004 	addi	r2,r2,-128
  802698:	1005003a 	cmpeq	r2,r2,zero
  80269c:	1000061e 	bne	r2,zero,8026b8 <tick+0x177c>
  8026a0:	d0a774c3 	ldbu	r2,-25133(gp)
  8026a4:	10803fcc 	andi	r2,r2,255
  8026a8:	1080201c 	xori	r2,r2,128
  8026ac:	10bfe004 	addi	r2,r2,-128
  8026b0:	1004c03a 	cmpne	r2,r2,zero
  8026b4:	10000c1e 	bne	r2,zero,8026e8 <tick+0x17ac>
  8026b8:	d0a76283 	ldbu	r2,-25206(gp)
  8026bc:	10803fcc 	andi	r2,r2,255
  8026c0:	1080201c 	xori	r2,r2,128
  8026c4:	10bfe004 	addi	r2,r2,-128
  8026c8:	1005003a 	cmpeq	r2,r2,zero
  8026cc:	1000091e 	bne	r2,zero,8026f4 <tick+0x17b8>
  8026d0:	d0a74dc3 	ldbu	r2,-25289(gp)
  8026d4:	10803fcc 	andi	r2,r2,255
  8026d8:	1080201c 	xori	r2,r2,128
  8026dc:	10bfe004 	addi	r2,r2,-128
  8026e0:	1004c03a 	cmpne	r2,r2,zero
  8026e4:	1000031e 	bne	r2,zero,8026f4 <tick+0x17b8>
  8026e8:	00800044 	movi	r2,1
  8026ec:	e0bfcf15 	stw	r2,-196(fp)
  8026f0:	00000106 	br	8026f8 <tick+0x17bc>
  8026f4:	e03fcf15 	stw	zero,-196(fp)
  8026f8:	e0ffcf17 	ldw	r3,-196(fp)
  8026fc:	1805883a 	mov	r2,r3
  802700:	d0a75f05 	stb	r2,-25220(gp)
      g56 =((g59&&(!(_cg59)))||(g55&&_cg55));
  802704:	d0a75083 	ldbu	r2,-25278(gp)
  802708:	10803fcc 	andi	r2,r2,255
  80270c:	1080201c 	xori	r2,r2,128
  802710:	10bfe004 	addi	r2,r2,-128
  802714:	1005003a 	cmpeq	r2,r2,zero
  802718:	1000061e 	bne	r2,zero,802734 <tick+0x17f8>
  80271c:	d0a73183 	ldbu	r2,-25402(gp)
  802720:	10803fcc 	andi	r2,r2,255
  802724:	1080201c 	xori	r2,r2,128
  802728:	10bfe004 	addi	r2,r2,-128
  80272c:	1005003a 	cmpeq	r2,r2,zero
  802730:	10000c1e 	bne	r2,zero,802764 <tick+0x1828>
  802734:	d0a73143 	ldbu	r2,-25403(gp)
  802738:	10803fcc 	andi	r2,r2,255
  80273c:	1080201c 	xori	r2,r2,128
  802740:	10bfe004 	addi	r2,r2,-128
  802744:	1005003a 	cmpeq	r2,r2,zero
  802748:	1000091e 	bne	r2,zero,802770 <tick+0x1834>
  80274c:	d0a77183 	ldbu	r2,-25146(gp)
  802750:	10803fcc 	andi	r2,r2,255
  802754:	1080201c 	xori	r2,r2,128
  802758:	10bfe004 	addi	r2,r2,-128
  80275c:	1005003a 	cmpeq	r2,r2,zero
  802760:	1000031e 	bne	r2,zero,802770 <tick+0x1834>
  802764:	00800044 	movi	r2,1
  802768:	e0bfce15 	stw	r2,-200(fp)
  80276c:	00000106 	br	802774 <tick+0x1838>
  802770:	e03fce15 	stw	zero,-200(fp)
  802774:	e0ffce17 	ldw	r3,-200(fp)
  802778:	1805883a 	mov	r2,r3
  80277c:	d0a753c5 	stb	r2,-25265(gp)
      g64 = g1;
  802780:	d0a73c03 	ldbu	r2,-25360(gp)
  802784:	d0a74a05 	stb	r2,-25304(gp)
      g66 =(PRE_g65);
  802788:	d0a73b83 	ldbu	r2,-25362(gp)
  80278c:	d0a75145 	stb	r2,-25275(gp)
      g66b = g66;
  802790:	d0a75143 	ldbu	r2,-25275(gp)
  802794:	d0a75b45 	stb	r2,-25235(gp)
      _cg66 = _compsys303_a2_local_AVI_start;
  802798:	d0a76343 	ldbu	r2,-25203(gp)
  80279c:	d0a763c5 	stb	r2,-25201(gp)
      g65 =((g66b&&(!(_cg66)))||(g68b&&_cg68)||g64||g70);
  8027a0:	d0a75b43 	ldbu	r2,-25235(gp)
  8027a4:	10803fcc 	andi	r2,r2,255
  8027a8:	1080201c 	xori	r2,r2,128
  8027ac:	10bfe004 	addi	r2,r2,-128
  8027b0:	1005003a 	cmpeq	r2,r2,zero
  8027b4:	1000061e 	bne	r2,zero,8027d0 <tick+0x1894>
  8027b8:	d0a763c3 	ldbu	r2,-25201(gp)
  8027bc:	10803fcc 	andi	r2,r2,255
  8027c0:	1080201c 	xori	r2,r2,128
  8027c4:	10bfe004 	addi	r2,r2,-128
  8027c8:	1005003a 	cmpeq	r2,r2,zero
  8027cc:	1000181e 	bne	r2,zero,802830 <tick+0x18f4>
  8027d0:	d0a75ac3 	ldbu	r2,-25237(gp)
  8027d4:	10803fcc 	andi	r2,r2,255
  8027d8:	1080201c 	xori	r2,r2,128
  8027dc:	10bfe004 	addi	r2,r2,-128
  8027e0:	1005003a 	cmpeq	r2,r2,zero
  8027e4:	1000061e 	bne	r2,zero,802800 <tick+0x18c4>
  8027e8:	d0a74b83 	ldbu	r2,-25298(gp)
  8027ec:	10803fcc 	andi	r2,r2,255
  8027f0:	1080201c 	xori	r2,r2,128
  8027f4:	10bfe004 	addi	r2,r2,-128
  8027f8:	1004c03a 	cmpne	r2,r2,zero
  8027fc:	10000c1e 	bne	r2,zero,802830 <tick+0x18f4>
  802800:	d0a74a03 	ldbu	r2,-25304(gp)
  802804:	10803fcc 	andi	r2,r2,255
  802808:	1080201c 	xori	r2,r2,128
  80280c:	10bfe004 	addi	r2,r2,-128
  802810:	1004c03a 	cmpne	r2,r2,zero
  802814:	1000061e 	bne	r2,zero,802830 <tick+0x18f4>
  802818:	d0a76383 	ldbu	r2,-25202(gp)
  80281c:	10803fcc 	andi	r2,r2,255
  802820:	1080201c 	xori	r2,r2,128
  802824:	10bfe004 	addi	r2,r2,-128
  802828:	1005003a 	cmpeq	r2,r2,zero
  80282c:	1000031e 	bne	r2,zero,80283c <tick+0x1900>
  802830:	00800044 	movi	r2,1
  802834:	e0bfcd15 	stw	r2,-204(fp)
  802838:	00000106 	br	802840 <tick+0x1904>
  80283c:	e03fcd15 	stw	zero,-204(fp)
  802840:	e0ffcd17 	ldw	r3,-204(fp)
  802844:	1805883a 	mov	r2,r3
  802848:	d0a76d45 	stb	r2,-25163(gp)
      g67 =((g66b&&_cg66)||(g69&&(!(_cg69))));
  80284c:	d0a75b43 	ldbu	r2,-25235(gp)
  802850:	10803fcc 	andi	r2,r2,255
  802854:	1080201c 	xori	r2,r2,128
  802858:	10bfe004 	addi	r2,r2,-128
  80285c:	1005003a 	cmpeq	r2,r2,zero
  802860:	1000061e 	bne	r2,zero,80287c <tick+0x1940>
  802864:	d0a763c3 	ldbu	r2,-25201(gp)
  802868:	10803fcc 	andi	r2,r2,255
  80286c:	1080201c 	xori	r2,r2,128
  802870:	10bfe004 	addi	r2,r2,-128
  802874:	1004c03a 	cmpne	r2,r2,zero
  802878:	10000c1e 	bne	r2,zero,8028ac <tick+0x1970>
  80287c:	d0a778c3 	ldbu	r2,-25117(gp)
  802880:	10803fcc 	andi	r2,r2,255
  802884:	1080201c 	xori	r2,r2,128
  802888:	10bfe004 	addi	r2,r2,-128
  80288c:	1005003a 	cmpeq	r2,r2,zero
  802890:	1000091e 	bne	r2,zero,8028b8 <tick+0x197c>
  802894:	d0a74343 	ldbu	r2,-25331(gp)
  802898:	10803fcc 	andi	r2,r2,255
  80289c:	1080201c 	xori	r2,r2,128
  8028a0:	10bfe004 	addi	r2,r2,-128
  8028a4:	1004c03a 	cmpne	r2,r2,zero
  8028a8:	1000031e 	bne	r2,zero,8028b8 <tick+0x197c>
  8028ac:	00800044 	movi	r2,1
  8028b0:	e0bfcc15 	stw	r2,-208(fp)
  8028b4:	00000106 	br	8028bc <tick+0x1980>
  8028b8:	e03fcc15 	stw	zero,-208(fp)
  8028bc:	e0ffcc17 	ldw	r3,-208(fp)
  8028c0:	1805883a 	mov	r2,r3
  8028c4:	d0a775c5 	stb	r2,-25129(gp)
      g72 = g1;
  8028c8:	d0a73c03 	ldbu	r2,-25360(gp)
  8028cc:	d0a76585 	stb	r2,-25194(gp)
      g81 =(PRE_g80);
  8028d0:	d0a74f03 	ldbu	r2,-25284(gp)
  8028d4:	d0a765c5 	stb	r2,-25193(gp)
      _cg81 = VSense;
  8028d8:	d0a75483 	ldbu	r2,-25262(gp)
  8028dc:	d0a72e05 	stb	r2,-25416(gp)
      g85 =(g81&&(!(_cg81)));
  8028e0:	d0a765c3 	ldbu	r2,-25193(gp)
  8028e4:	10803fcc 	andi	r2,r2,255
  8028e8:	1080201c 	xori	r2,r2,128
  8028ec:	10bfe004 	addi	r2,r2,-128
  8028f0:	1005003a 	cmpeq	r2,r2,zero
  8028f4:	1000091e 	bne	r2,zero,80291c <tick+0x19e0>
  8028f8:	d0a72e03 	ldbu	r2,-25416(gp)
  8028fc:	10803fcc 	andi	r2,r2,255
  802900:	1080201c 	xori	r2,r2,128
  802904:	10bfe004 	addi	r2,r2,-128
  802908:	1004c03a 	cmpne	r2,r2,zero
  80290c:	1000031e 	bne	r2,zero,80291c <tick+0x19e0>
  802910:	00800044 	movi	r2,1
  802914:	e0bfcb15 	stw	r2,-212(fp)
  802918:	00000106 	br	802920 <tick+0x19e4>
  80291c:	e03fcb15 	stw	zero,-212(fp)
  802920:	e0ffcb17 	ldw	r3,-212(fp)
  802924:	1805883a 	mov	r2,r3
  802928:	d0a73505 	stb	r2,-25388(gp)
      _cg85 = VPace;
  80292c:	d0a77403 	ldbu	r2,-25136(gp)
  802930:	d0a73f05 	stb	r2,-25348(gp)
      g82 =((g85&&_cg85)||(g81&&_cg81));
  802934:	d0a73503 	ldbu	r2,-25388(gp)
  802938:	10803fcc 	andi	r2,r2,255
  80293c:	1080201c 	xori	r2,r2,128
  802940:	10bfe004 	addi	r2,r2,-128
  802944:	1005003a 	cmpeq	r2,r2,zero
  802948:	1000061e 	bne	r2,zero,802964 <tick+0x1a28>
  80294c:	d0a73f03 	ldbu	r2,-25348(gp)
  802950:	10803fcc 	andi	r2,r2,255
  802954:	1080201c 	xori	r2,r2,128
  802958:	10bfe004 	addi	r2,r2,-128
  80295c:	1004c03a 	cmpne	r2,r2,zero
  802960:	10000c1e 	bne	r2,zero,802994 <tick+0x1a58>
  802964:	d0a765c3 	ldbu	r2,-25193(gp)
  802968:	10803fcc 	andi	r2,r2,255
  80296c:	1080201c 	xori	r2,r2,128
  802970:	10bfe004 	addi	r2,r2,-128
  802974:	1005003a 	cmpeq	r2,r2,zero
  802978:	1000091e 	bne	r2,zero,8029a0 <tick+0x1a64>
  80297c:	d0a72e03 	ldbu	r2,-25416(gp)
  802980:	10803fcc 	andi	r2,r2,255
  802984:	1080201c 	xori	r2,r2,128
  802988:	10bfe004 	addi	r2,r2,-128
  80298c:	1005003a 	cmpeq	r2,r2,zero
  802990:	1000031e 	bne	r2,zero,8029a0 <tick+0x1a64>
  802994:	00800044 	movi	r2,1
  802998:	e0bfca15 	stw	r2,-216(fp)
  80299c:	00000106 	br	8029a4 <tick+0x1a68>
  8029a0:	e03fca15 	stw	zero,-216(fp)
  8029a4:	e0ffca17 	ldw	r3,-216(fp)
  8029a8:	1805883a 	mov	r2,r3
  8029ac:	d0a73e05 	stb	r2,-25352(gp)
      if(g82){
  8029b0:	d0a73e03 	ldbu	r2,-25352(gp)
  8029b4:	10803fcc 	andi	r2,r2,255
  8029b8:	1080201c 	xori	r2,r2,128
  8029bc:	10bfe004 	addi	r2,r2,-128
  8029c0:	1005003a 	cmpeq	r2,r2,zero
  8029c4:	1000021e 	bne	r2,zero,8029d0 <tick+0x1a94>
         _compsys303_a2_local_PVARP_start =(_compsys303_a2_local_PVARP_start||1);
  8029c8:	00800044 	movi	r2,1
  8029cc:	d0a76645 	stb	r2,-25191(gp)
      }
      g74 =(PRE_g73);
  8029d0:	d0a772c3 	ldbu	r2,-25141(gp)
  8029d4:	d0a77a05 	stb	r2,-25112(gp)
      g74b = g74;
  8029d8:	d0a77a03 	ldbu	r2,-25112(gp)
  8029dc:	d0a74a85 	stb	r2,-25302(gp)
      _cg74 = _compsys303_a2_local_PVARP_start;
  8029e0:	d0a76643 	ldbu	r2,-25191(gp)
  8029e4:	d0a73f85 	stb	r2,-25346(gp)
      g73 =(g72||(g74b&&(!(_cg74)))||g77);
  8029e8:	d0a76583 	ldbu	r2,-25194(gp)
  8029ec:	10803fcc 	andi	r2,r2,255
  8029f0:	1080201c 	xori	r2,r2,128
  8029f4:	10bfe004 	addi	r2,r2,-128
  8029f8:	1004c03a 	cmpne	r2,r2,zero
  8029fc:	1000121e 	bne	r2,zero,802a48 <tick+0x1b0c>
  802a00:	d0a74a83 	ldbu	r2,-25302(gp)
  802a04:	10803fcc 	andi	r2,r2,255
  802a08:	1080201c 	xori	r2,r2,128
  802a0c:	10bfe004 	addi	r2,r2,-128
  802a10:	1005003a 	cmpeq	r2,r2,zero
  802a14:	1000061e 	bne	r2,zero,802a30 <tick+0x1af4>
  802a18:	d0a73f83 	ldbu	r2,-25346(gp)
  802a1c:	10803fcc 	andi	r2,r2,255
  802a20:	1080201c 	xori	r2,r2,128
  802a24:	10bfe004 	addi	r2,r2,-128
  802a28:	1005003a 	cmpeq	r2,r2,zero
  802a2c:	1000061e 	bne	r2,zero,802a48 <tick+0x1b0c>
  802a30:	d0a76f03 	ldbu	r2,-25156(gp)
  802a34:	10803fcc 	andi	r2,r2,255
  802a38:	1080201c 	xori	r2,r2,128
  802a3c:	10bfe004 	addi	r2,r2,-128
  802a40:	1005003a 	cmpeq	r2,r2,zero
  802a44:	1000031e 	bne	r2,zero,802a54 <tick+0x1b18>
  802a48:	00800044 	movi	r2,1
  802a4c:	e0bfc915 	stw	r2,-220(fp)
  802a50:	00000106 	br	802a58 <tick+0x1b1c>
  802a54:	e03fc915 	stw	zero,-220(fp)
  802a58:	e0ffc917 	ldw	r3,-220(fp)
  802a5c:	1805883a 	mov	r2,r3
  802a60:	d0a76e05 	stb	r2,-25160(gp)
      g75 =((g74b&&_cg74)||(g76&&(!(_cg76))));
  802a64:	d0a74a83 	ldbu	r2,-25302(gp)
  802a68:	10803fcc 	andi	r2,r2,255
  802a6c:	1080201c 	xori	r2,r2,128
  802a70:	10bfe004 	addi	r2,r2,-128
  802a74:	1005003a 	cmpeq	r2,r2,zero
  802a78:	1000061e 	bne	r2,zero,802a94 <tick+0x1b58>
  802a7c:	d0a73f83 	ldbu	r2,-25346(gp)
  802a80:	10803fcc 	andi	r2,r2,255
  802a84:	1080201c 	xori	r2,r2,128
  802a88:	10bfe004 	addi	r2,r2,-128
  802a8c:	1004c03a 	cmpne	r2,r2,zero
  802a90:	10000c1e 	bne	r2,zero,802ac4 <tick+0x1b88>
  802a94:	d0a74043 	ldbu	r2,-25343(gp)
  802a98:	10803fcc 	andi	r2,r2,255
  802a9c:	1080201c 	xori	r2,r2,128
  802aa0:	10bfe004 	addi	r2,r2,-128
  802aa4:	1005003a 	cmpeq	r2,r2,zero
  802aa8:	1000091e 	bne	r2,zero,802ad0 <tick+0x1b94>
  802aac:	d0a748c3 	ldbu	r2,-25309(gp)
  802ab0:	10803fcc 	andi	r2,r2,255
  802ab4:	1080201c 	xori	r2,r2,128
  802ab8:	10bfe004 	addi	r2,r2,-128
  802abc:	1004c03a 	cmpne	r2,r2,zero
  802ac0:	1000031e 	bne	r2,zero,802ad0 <tick+0x1b94>
  802ac4:	00800044 	movi	r2,1
  802ac8:	e0bfc815 	stw	r2,-224(fp)
  802acc:	00000106 	br	802ad4 <tick+0x1b98>
  802ad0:	e03fc815 	stw	zero,-224(fp)
  802ad4:	e0ffc817 	ldw	r3,-224(fp)
  802ad8:	1805883a 	mov	r2,r3
  802adc:	d0a76a05 	stb	r2,-25176(gp)
      g79 = g1;
  802ae0:	d0a73c03 	ldbu	r2,-25360(gp)
  802ae4:	d0a74bc5 	stb	r2,-25297(gp)
      g84 =(PRE_g83);
  802ae8:	d0a756c3 	ldbu	r2,-25253(gp)
  802aec:	d0a74185 	stb	r2,-25338(gp)
      g84b = g84;
  802af0:	d0a74183 	ldbu	r2,-25338(gp)
  802af4:	d0a75c45 	stb	r2,-25231(gp)
      _cg84 = _compsys303_a2_local_PVARP_ex;
  802af8:	d0a76f83 	ldbu	r2,-25154(gp)
  802afc:	d0a73b45 	stb	r2,-25363(gp)
      g80 =(g79||(g85&&(!(_cg85)))||(g84b&&_cg84));
  802b00:	d0a74bc3 	ldbu	r2,-25297(gp)
  802b04:	10803fcc 	andi	r2,r2,255
  802b08:	1080201c 	xori	r2,r2,128
  802b0c:	10bfe004 	addi	r2,r2,-128
  802b10:	1004c03a 	cmpne	r2,r2,zero
  802b14:	1000181e 	bne	r2,zero,802b78 <tick+0x1c3c>
  802b18:	d0a73503 	ldbu	r2,-25388(gp)
  802b1c:	10803fcc 	andi	r2,r2,255
  802b20:	1080201c 	xori	r2,r2,128
  802b24:	10bfe004 	addi	r2,r2,-128
  802b28:	1005003a 	cmpeq	r2,r2,zero
  802b2c:	1000061e 	bne	r2,zero,802b48 <tick+0x1c0c>
  802b30:	d0a73f03 	ldbu	r2,-25348(gp)
  802b34:	10803fcc 	andi	r2,r2,255
  802b38:	1080201c 	xori	r2,r2,128
  802b3c:	10bfe004 	addi	r2,r2,-128
  802b40:	1005003a 	cmpeq	r2,r2,zero
  802b44:	10000c1e 	bne	r2,zero,802b78 <tick+0x1c3c>
  802b48:	d0a75c43 	ldbu	r2,-25231(gp)
  802b4c:	10803fcc 	andi	r2,r2,255
  802b50:	1080201c 	xori	r2,r2,128
  802b54:	10bfe004 	addi	r2,r2,-128
  802b58:	1005003a 	cmpeq	r2,r2,zero
  802b5c:	1000091e 	bne	r2,zero,802b84 <tick+0x1c48>
  802b60:	d0a73b43 	ldbu	r2,-25363(gp)
  802b64:	10803fcc 	andi	r2,r2,255
  802b68:	1080201c 	xori	r2,r2,128
  802b6c:	10bfe004 	addi	r2,r2,-128
  802b70:	1005003a 	cmpeq	r2,r2,zero
  802b74:	1000031e 	bne	r2,zero,802b84 <tick+0x1c48>
  802b78:	00800044 	movi	r2,1
  802b7c:	e0bfc715 	stw	r2,-228(fp)
  802b80:	00000106 	br	802b88 <tick+0x1c4c>
  802b84:	e03fc715 	stw	zero,-228(fp)
  802b88:	e0ffc717 	ldw	r3,-228(fp)
  802b8c:	1805883a 	mov	r2,r3
  802b90:	d0a74ec5 	stb	r2,-25285(gp)
      g83 =(g82||(g84b&&(!(_cg84))));
  802b94:	d0a73e03 	ldbu	r2,-25352(gp)
  802b98:	10803fcc 	andi	r2,r2,255
  802b9c:	1080201c 	xori	r2,r2,128
  802ba0:	10bfe004 	addi	r2,r2,-128
  802ba4:	1004c03a 	cmpne	r2,r2,zero
  802ba8:	10000c1e 	bne	r2,zero,802bdc <tick+0x1ca0>
  802bac:	d0a75c43 	ldbu	r2,-25231(gp)
  802bb0:	10803fcc 	andi	r2,r2,255
  802bb4:	1080201c 	xori	r2,r2,128
  802bb8:	10bfe004 	addi	r2,r2,-128
  802bbc:	1005003a 	cmpeq	r2,r2,zero
  802bc0:	1000091e 	bne	r2,zero,802be8 <tick+0x1cac>
  802bc4:	d0a73b43 	ldbu	r2,-25363(gp)
  802bc8:	10803fcc 	andi	r2,r2,255
  802bcc:	1080201c 	xori	r2,r2,128
  802bd0:	10bfe004 	addi	r2,r2,-128
  802bd4:	1004c03a 	cmpne	r2,r2,zero
  802bd8:	1000031e 	bne	r2,zero,802be8 <tick+0x1cac>
  802bdc:	00800044 	movi	r2,1
  802be0:	e0bfc615 	stw	r2,-232(fp)
  802be4:	00000106 	br	802bec <tick+0x1cb0>
  802be8:	e03fc615 	stw	zero,-232(fp)
  802bec:	e0ffc617 	ldw	r3,-232(fp)
  802bf0:	1805883a 	mov	r2,r3
  802bf4:	d0a72e85 	stb	r2,-25414(gp)
      g87 = g1;
  802bf8:	d0a73c03 	ldbu	r2,-25360(gp)
  802bfc:	d0a73a85 	stb	r2,-25366(gp)
      g97 =(PRE_g96);
  802c00:	d0a75643 	ldbu	r2,-25255(gp)
  802c04:	d0a73e85 	stb	r2,-25350(gp)
      _cg97 = VSense;
  802c08:	d0a75483 	ldbu	r2,-25262(gp)
  802c0c:	d0a74745 	stb	r2,-25315(gp)
      g113 =(g97&&(!(_cg97)));
  802c10:	d0a73e83 	ldbu	r2,-25350(gp)
  802c14:	10803fcc 	andi	r2,r2,255
  802c18:	1080201c 	xori	r2,r2,128
  802c1c:	10bfe004 	addi	r2,r2,-128
  802c20:	1005003a 	cmpeq	r2,r2,zero
  802c24:	1000091e 	bne	r2,zero,802c4c <tick+0x1d10>
  802c28:	d0a74743 	ldbu	r2,-25315(gp)
  802c2c:	10803fcc 	andi	r2,r2,255
  802c30:	1080201c 	xori	r2,r2,128
  802c34:	10bfe004 	addi	r2,r2,-128
  802c38:	1004c03a 	cmpne	r2,r2,zero
  802c3c:	1000031e 	bne	r2,zero,802c4c <tick+0x1d10>
  802c40:	00800044 	movi	r2,1
  802c44:	e0bfc515 	stw	r2,-236(fp)
  802c48:	00000106 	br	802c50 <tick+0x1d14>
  802c4c:	e03fc515 	stw	zero,-236(fp)
  802c50:	e0ffc517 	ldw	r3,-236(fp)
  802c54:	1805883a 	mov	r2,r3
  802c58:	d0a76045 	stb	r2,-25215(gp)
      _cg113 = VPace;
  802c5c:	d0a77403 	ldbu	r2,-25136(gp)
  802c60:	d0a76e45 	stb	r2,-25159(gp)
      g98 =((g113&&_cg113)||(g97&&_cg97));
  802c64:	d0a76043 	ldbu	r2,-25215(gp)
  802c68:	10803fcc 	andi	r2,r2,255
  802c6c:	1080201c 	xori	r2,r2,128
  802c70:	10bfe004 	addi	r2,r2,-128
  802c74:	1005003a 	cmpeq	r2,r2,zero
  802c78:	1000061e 	bne	r2,zero,802c94 <tick+0x1d58>
  802c7c:	d0a76e43 	ldbu	r2,-25159(gp)
  802c80:	10803fcc 	andi	r2,r2,255
  802c84:	1080201c 	xori	r2,r2,128
  802c88:	10bfe004 	addi	r2,r2,-128
  802c8c:	1004c03a 	cmpne	r2,r2,zero
  802c90:	10000c1e 	bne	r2,zero,802cc4 <tick+0x1d88>
  802c94:	d0a73e83 	ldbu	r2,-25350(gp)
  802c98:	10803fcc 	andi	r2,r2,255
  802c9c:	1080201c 	xori	r2,r2,128
  802ca0:	10bfe004 	addi	r2,r2,-128
  802ca4:	1005003a 	cmpeq	r2,r2,zero
  802ca8:	1000091e 	bne	r2,zero,802cd0 <tick+0x1d94>
  802cac:	d0a74743 	ldbu	r2,-25315(gp)
  802cb0:	10803fcc 	andi	r2,r2,255
  802cb4:	1080201c 	xori	r2,r2,128
  802cb8:	10bfe004 	addi	r2,r2,-128
  802cbc:	1005003a 	cmpeq	r2,r2,zero
  802cc0:	1000031e 	bne	r2,zero,802cd0 <tick+0x1d94>
  802cc4:	00800044 	movi	r2,1
  802cc8:	e0bfc415 	stw	r2,-240(fp)
  802ccc:	00000106 	br	802cd4 <tick+0x1d98>
  802cd0:	e03fc415 	stw	zero,-240(fp)
  802cd4:	e0ffc417 	ldw	r3,-240(fp)
  802cd8:	1805883a 	mov	r2,r3
  802cdc:	d0a76245 	stb	r2,-25207(gp)
      if(g98){
  802ce0:	d0a76243 	ldbu	r2,-25207(gp)
  802ce4:	10803fcc 	andi	r2,r2,255
  802ce8:	1080201c 	xori	r2,r2,128
  802cec:	10bfe004 	addi	r2,r2,-128
  802cf0:	1005003a 	cmpeq	r2,r2,zero
  802cf4:	1000021e 	bne	r2,zero,802d00 <tick+0x1dc4>
         _compsys303_a2_local_AEI_start =(_compsys303_a2_local_AEI_start||1);
  802cf8:	00800044 	movi	r2,1
  802cfc:	d0a73285 	stb	r2,-25398(gp)
      }
      g111 =(g109&&(!(_cg109)));
  802d00:	d0a776c3 	ldbu	r2,-25125(gp)
  802d04:	10803fcc 	andi	r2,r2,255
  802d08:	1080201c 	xori	r2,r2,128
  802d0c:	10bfe004 	addi	r2,r2,-128
  802d10:	1005003a 	cmpeq	r2,r2,zero
  802d14:	1000091e 	bne	r2,zero,802d3c <tick+0x1e00>
  802d18:	d0a773c3 	ldbu	r2,-25137(gp)
  802d1c:	10803fcc 	andi	r2,r2,255
  802d20:	1080201c 	xori	r2,r2,128
  802d24:	10bfe004 	addi	r2,r2,-128
  802d28:	1004c03a 	cmpne	r2,r2,zero
  802d2c:	1000031e 	bne	r2,zero,802d3c <tick+0x1e00>
  802d30:	00800044 	movi	r2,1
  802d34:	e0bfc315 	stw	r2,-244(fp)
  802d38:	00000106 	br	802d40 <tick+0x1e04>
  802d3c:	e03fc315 	stw	zero,-244(fp)
  802d40:	e0ffc317 	ldw	r3,-244(fp)
  802d44:	1805883a 	mov	r2,r3
  802d48:	d0a730c5 	stb	r2,-25405(gp)
      _cg111 = VPace;
  802d4c:	d0a77403 	ldbu	r2,-25136(gp)
  802d50:	d0a74685 	stb	r2,-25318(gp)
      g112 =(g111&&(!(_cg111)));
  802d54:	d0a730c3 	ldbu	r2,-25405(gp)
  802d58:	10803fcc 	andi	r2,r2,255
  802d5c:	1080201c 	xori	r2,r2,128
  802d60:	10bfe004 	addi	r2,r2,-128
  802d64:	1005003a 	cmpeq	r2,r2,zero
  802d68:	1000091e 	bne	r2,zero,802d90 <tick+0x1e54>
  802d6c:	d0a74683 	ldbu	r2,-25318(gp)
  802d70:	10803fcc 	andi	r2,r2,255
  802d74:	1080201c 	xori	r2,r2,128
  802d78:	10bfe004 	addi	r2,r2,-128
  802d7c:	1004c03a 	cmpne	r2,r2,zero
  802d80:	1000031e 	bne	r2,zero,802d90 <tick+0x1e54>
  802d84:	00800044 	movi	r2,1
  802d88:	e0bfc215 	stw	r2,-248(fp)
  802d8c:	00000106 	br	802d94 <tick+0x1e58>
  802d90:	e03fc215 	stw	zero,-248(fp)
  802d94:	e0ffc217 	ldw	r3,-248(fp)
  802d98:	1805883a 	mov	r2,r3
  802d9c:	d0a732c5 	stb	r2,-25397(gp)
      _cg112 = VSense;
  802da0:	d0a75483 	ldbu	r2,-25262(gp)
  802da4:	d0a76145 	stb	r2,-25211(gp)
      g105 =(PRE_g104);
  802da8:	d0a74503 	ldbu	r2,-25324(gp)
  802dac:	d0a74705 	stb	r2,-25316(gp)
      _cg105 = VSense;
  802db0:	d0a75483 	ldbu	r2,-25262(gp)
  802db4:	d0a779c5 	stb	r2,-25113(gp)
      g107 =(g105&&(!(_cg105)));
  802db8:	d0a74703 	ldbu	r2,-25316(gp)
  802dbc:	10803fcc 	andi	r2,r2,255
  802dc0:	1080201c 	xori	r2,r2,128
  802dc4:	10bfe004 	addi	r2,r2,-128
  802dc8:	1005003a 	cmpeq	r2,r2,zero
  802dcc:	1000091e 	bne	r2,zero,802df4 <tick+0x1eb8>
  802dd0:	d0a779c3 	ldbu	r2,-25113(gp)
  802dd4:	10803fcc 	andi	r2,r2,255
  802dd8:	1080201c 	xori	r2,r2,128
  802ddc:	10bfe004 	addi	r2,r2,-128
  802de0:	1004c03a 	cmpne	r2,r2,zero
  802de4:	1000031e 	bne	r2,zero,802df4 <tick+0x1eb8>
  802de8:	00800044 	movi	r2,1
  802dec:	e0bfc115 	stw	r2,-252(fp)
  802df0:	00000106 	br	802df8 <tick+0x1ebc>
  802df4:	e03fc115 	stw	zero,-252(fp)
  802df8:	e0ffc117 	ldw	r3,-252(fp)
  802dfc:	1805883a 	mov	r2,r3
  802e00:	d0a76005 	stb	r2,-25216(gp)
      _cg107 = VPace;
  802e04:	d0a77403 	ldbu	r2,-25136(gp)
  802e08:	d0a74ac5 	stb	r2,-25301(gp)
      g106 =((g111&&_cg111)||(g112&&_cg112)||(g105&&_cg105)||(g107&&_cg107));
  802e0c:	d0a730c3 	ldbu	r2,-25405(gp)
  802e10:	10803fcc 	andi	r2,r2,255
  802e14:	1080201c 	xori	r2,r2,128
  802e18:	10bfe004 	addi	r2,r2,-128
  802e1c:	1005003a 	cmpeq	r2,r2,zero
  802e20:	1000061e 	bne	r2,zero,802e3c <tick+0x1f00>
  802e24:	d0a74683 	ldbu	r2,-25318(gp)
  802e28:	10803fcc 	andi	r2,r2,255
  802e2c:	1080201c 	xori	r2,r2,128
  802e30:	10bfe004 	addi	r2,r2,-128
  802e34:	1004c03a 	cmpne	r2,r2,zero
  802e38:	1000241e 	bne	r2,zero,802ecc <tick+0x1f90>
  802e3c:	d0a732c3 	ldbu	r2,-25397(gp)
  802e40:	10803fcc 	andi	r2,r2,255
  802e44:	1080201c 	xori	r2,r2,128
  802e48:	10bfe004 	addi	r2,r2,-128
  802e4c:	1005003a 	cmpeq	r2,r2,zero
  802e50:	1000061e 	bne	r2,zero,802e6c <tick+0x1f30>
  802e54:	d0a76143 	ldbu	r2,-25211(gp)
  802e58:	10803fcc 	andi	r2,r2,255
  802e5c:	1080201c 	xori	r2,r2,128
  802e60:	10bfe004 	addi	r2,r2,-128
  802e64:	1004c03a 	cmpne	r2,r2,zero
  802e68:	1000181e 	bne	r2,zero,802ecc <tick+0x1f90>
  802e6c:	d0a74703 	ldbu	r2,-25316(gp)
  802e70:	10803fcc 	andi	r2,r2,255
  802e74:	1080201c 	xori	r2,r2,128
  802e78:	10bfe004 	addi	r2,r2,-128
  802e7c:	1005003a 	cmpeq	r2,r2,zero
  802e80:	1000061e 	bne	r2,zero,802e9c <tick+0x1f60>
  802e84:	d0a779c3 	ldbu	r2,-25113(gp)
  802e88:	10803fcc 	andi	r2,r2,255
  802e8c:	1080201c 	xori	r2,r2,128
  802e90:	10bfe004 	addi	r2,r2,-128
  802e94:	1004c03a 	cmpne	r2,r2,zero
  802e98:	10000c1e 	bne	r2,zero,802ecc <tick+0x1f90>
  802e9c:	d0a76003 	ldbu	r2,-25216(gp)
  802ea0:	10803fcc 	andi	r2,r2,255
  802ea4:	1080201c 	xori	r2,r2,128
  802ea8:	10bfe004 	addi	r2,r2,-128
  802eac:	1005003a 	cmpeq	r2,r2,zero
  802eb0:	1000091e 	bne	r2,zero,802ed8 <tick+0x1f9c>
  802eb4:	d0a74ac3 	ldbu	r2,-25301(gp)
  802eb8:	10803fcc 	andi	r2,r2,255
  802ebc:	1080201c 	xori	r2,r2,128
  802ec0:	10bfe004 	addi	r2,r2,-128
  802ec4:	1005003a 	cmpeq	r2,r2,zero
  802ec8:	1000031e 	bne	r2,zero,802ed8 <tick+0x1f9c>
  802ecc:	00800044 	movi	r2,1
  802ed0:	e0bfc015 	stw	r2,-256(fp)
  802ed4:	00000106 	br	802edc <tick+0x1fa0>
  802ed8:	e03fc015 	stw	zero,-256(fp)
  802edc:	e0ffc017 	ldw	r3,-256(fp)
  802ee0:	1805883a 	mov	r2,r3
  802ee4:	d0a77745 	stb	r2,-25123(gp)
      if(g106){
  802ee8:	d0a77743 	ldbu	r2,-25123(gp)
  802eec:	10803fcc 	andi	r2,r2,255
  802ef0:	1080201c 	xori	r2,r2,128
  802ef4:	10bfe004 	addi	r2,r2,-128
  802ef8:	1005003a 	cmpeq	r2,r2,zero
  802efc:	1000021e 	bne	r2,zero,802f08 <tick+0x1fcc>
         _compsys303_a2_local_AEI_start =(_compsys303_a2_local_AEI_start||1);
  802f00:	00800044 	movi	r2,1
  802f04:	d0a73285 	stb	r2,-25398(gp)
      }
      g89 =(PRE_g88);
  802f08:	d0a75d03 	ldbu	r2,-25228(gp)
  802f0c:	d0a75dc5 	stb	r2,-25225(gp)
      g89b = g89;
  802f10:	d0a75dc3 	ldbu	r2,-25225(gp)
  802f14:	d0a758c5 	stb	r2,-25245(gp)
      _cg89 = _compsys303_a2_local_AEI_start;
  802f18:	d0a73283 	ldbu	r2,-25398(gp)
  802f1c:	d0a768c5 	stb	r2,-25181(gp)
      g88 =((g89b&&(!(_cg89)))||g93||g87||(g91b&&_cg91));
  802f20:	d0a758c3 	ldbu	r2,-25245(gp)
  802f24:	10803fcc 	andi	r2,r2,255
  802f28:	1080201c 	xori	r2,r2,128
  802f2c:	10bfe004 	addi	r2,r2,-128
  802f30:	1005003a 	cmpeq	r2,r2,zero
  802f34:	1000061e 	bne	r2,zero,802f50 <tick+0x2014>
  802f38:	d0a768c3 	ldbu	r2,-25181(gp)
  802f3c:	10803fcc 	andi	r2,r2,255
  802f40:	1080201c 	xori	r2,r2,128
  802f44:	10bfe004 	addi	r2,r2,-128
  802f48:	1005003a 	cmpeq	r2,r2,zero
  802f4c:	1000181e 	bne	r2,zero,802fb0 <tick+0x2074>
  802f50:	d0a75b83 	ldbu	r2,-25234(gp)
  802f54:	10803fcc 	andi	r2,r2,255
  802f58:	1080201c 	xori	r2,r2,128
  802f5c:	10bfe004 	addi	r2,r2,-128
  802f60:	1004c03a 	cmpne	r2,r2,zero
  802f64:	1000121e 	bne	r2,zero,802fb0 <tick+0x2074>
  802f68:	d0a73a83 	ldbu	r2,-25366(gp)
  802f6c:	10803fcc 	andi	r2,r2,255
  802f70:	1080201c 	xori	r2,r2,128
  802f74:	10bfe004 	addi	r2,r2,-128
  802f78:	1004c03a 	cmpne	r2,r2,zero
  802f7c:	10000c1e 	bne	r2,zero,802fb0 <tick+0x2074>
  802f80:	d0a76443 	ldbu	r2,-25199(gp)
  802f84:	10803fcc 	andi	r2,r2,255
  802f88:	1080201c 	xori	r2,r2,128
  802f8c:	10bfe004 	addi	r2,r2,-128
  802f90:	1005003a 	cmpeq	r2,r2,zero
  802f94:	1000091e 	bne	r2,zero,802fbc <tick+0x2080>
  802f98:	d0a769c3 	ldbu	r2,-25177(gp)
  802f9c:	10803fcc 	andi	r2,r2,255
  802fa0:	1080201c 	xori	r2,r2,128
  802fa4:	10bfe004 	addi	r2,r2,-128
  802fa8:	1005003a 	cmpeq	r2,r2,zero
  802fac:	1000031e 	bne	r2,zero,802fbc <tick+0x2080>
  802fb0:	00800044 	movi	r2,1
  802fb4:	e0bfbf15 	stw	r2,-260(fp)
  802fb8:	00000106 	br	802fc0 <tick+0x2084>
  802fbc:	e03fbf15 	stw	zero,-260(fp)
  802fc0:	e0ffbf17 	ldw	r3,-260(fp)
  802fc4:	1805883a 	mov	r2,r3
  802fc8:	d0a77005 	stb	r2,-25152(gp)
      g90 =((g89b&&_cg89)||(g92&&(!(_cg92))));
  802fcc:	d0a758c3 	ldbu	r2,-25245(gp)
  802fd0:	10803fcc 	andi	r2,r2,255
  802fd4:	1080201c 	xori	r2,r2,128
  802fd8:	10bfe004 	addi	r2,r2,-128
  802fdc:	1005003a 	cmpeq	r2,r2,zero
  802fe0:	1000061e 	bne	r2,zero,802ffc <tick+0x20c0>
  802fe4:	d0a768c3 	ldbu	r2,-25181(gp)
  802fe8:	10803fcc 	andi	r2,r2,255
  802fec:	1080201c 	xori	r2,r2,128
  802ff0:	10bfe004 	addi	r2,r2,-128
  802ff4:	1004c03a 	cmpne	r2,r2,zero
  802ff8:	10000c1e 	bne	r2,zero,80302c <tick+0x20f0>
  802ffc:	d0a73bc3 	ldbu	r2,-25361(gp)
  803000:	10803fcc 	andi	r2,r2,255
  803004:	1080201c 	xori	r2,r2,128
  803008:	10bfe004 	addi	r2,r2,-128
  80300c:	1005003a 	cmpeq	r2,r2,zero
  803010:	1000091e 	bne	r2,zero,803038 <tick+0x20fc>
  803014:	d0a771c3 	ldbu	r2,-25145(gp)
  803018:	10803fcc 	andi	r2,r2,255
  80301c:	1080201c 	xori	r2,r2,128
  803020:	10bfe004 	addi	r2,r2,-128
  803024:	1004c03a 	cmpne	r2,r2,zero
  803028:	1000031e 	bne	r2,zero,803038 <tick+0x20fc>
  80302c:	00800044 	movi	r2,1
  803030:	e0bfbe15 	stw	r2,-264(fp)
  803034:	00000106 	br	80303c <tick+0x2100>
  803038:	e03fbe15 	stw	zero,-264(fp)
  80303c:	e0ffbe17 	ldw	r3,-264(fp)
  803040:	1805883a 	mov	r2,r3
  803044:	d0a75845 	stb	r2,-25247(gp)
      g95 = g1;
  803048:	d0a73c03 	ldbu	r2,-25360(gp)
  80304c:	d0a75ec5 	stb	r2,-25221(gp)
      g96 =(g95||(g113&&(!(_cg113))));
  803050:	d0a75ec3 	ldbu	r2,-25221(gp)
  803054:	10803fcc 	andi	r2,r2,255
  803058:	1080201c 	xori	r2,r2,128
  80305c:	10bfe004 	addi	r2,r2,-128
  803060:	1004c03a 	cmpne	r2,r2,zero
  803064:	10000c1e 	bne	r2,zero,803098 <tick+0x215c>
  803068:	d0a76043 	ldbu	r2,-25215(gp)
  80306c:	10803fcc 	andi	r2,r2,255
  803070:	1080201c 	xori	r2,r2,128
  803074:	10bfe004 	addi	r2,r2,-128
  803078:	1005003a 	cmpeq	r2,r2,zero
  80307c:	1000091e 	bne	r2,zero,8030a4 <tick+0x2168>
  803080:	d0a76e43 	ldbu	r2,-25159(gp)
  803084:	10803fcc 	andi	r2,r2,255
  803088:	1080201c 	xori	r2,r2,128
  80308c:	10bfe004 	addi	r2,r2,-128
  803090:	1004c03a 	cmpne	r2,r2,zero
  803094:	1000031e 	bne	r2,zero,8030a4 <tick+0x2168>
  803098:	00800044 	movi	r2,1
  80309c:	e0bfbd15 	stw	r2,-268(fp)
  8030a0:	00000106 	br	8030a8 <tick+0x216c>
  8030a4:	e03fbd15 	stw	zero,-268(fp)
  8030a8:	e0ffbd17 	ldw	r3,-268(fp)
  8030ac:	1805883a 	mov	r2,r3
  8030b0:	d0a75f45 	stb	r2,-25219(gp)
      g100 =(PRE_g99);
  8030b4:	d0a76783 	ldbu	r2,-25186(gp)
  8030b8:	d0a75045 	stb	r2,-25279(gp)
      g100b = g100;
  8030bc:	d0a75043 	ldbu	r2,-25279(gp)
  8030c0:	d0a77385 	stb	r2,-25138(gp)
      _cg100 = _compsys303_a2_local_PVARP_ex;
  8030c4:	d0a76f83 	ldbu	r2,-25154(gp)
  8030c8:	d0a75345 	stb	r2,-25267(gp)
      g99 =(g98||g106||(g100b&&(!(_cg100))));
  8030cc:	d0a76243 	ldbu	r2,-25207(gp)
  8030d0:	10803fcc 	andi	r2,r2,255
  8030d4:	1080201c 	xori	r2,r2,128
  8030d8:	10bfe004 	addi	r2,r2,-128
  8030dc:	1004c03a 	cmpne	r2,r2,zero
  8030e0:	1000121e 	bne	r2,zero,80312c <tick+0x21f0>
  8030e4:	d0a77743 	ldbu	r2,-25123(gp)
  8030e8:	10803fcc 	andi	r2,r2,255
  8030ec:	1080201c 	xori	r2,r2,128
  8030f0:	10bfe004 	addi	r2,r2,-128
  8030f4:	1004c03a 	cmpne	r2,r2,zero
  8030f8:	10000c1e 	bne	r2,zero,80312c <tick+0x21f0>
  8030fc:	d0a77383 	ldbu	r2,-25138(gp)
  803100:	10803fcc 	andi	r2,r2,255
  803104:	1080201c 	xori	r2,r2,128
  803108:	10bfe004 	addi	r2,r2,-128
  80310c:	1005003a 	cmpeq	r2,r2,zero
  803110:	1000091e 	bne	r2,zero,803138 <tick+0x21fc>
  803114:	d0a75343 	ldbu	r2,-25267(gp)
  803118:	10803fcc 	andi	r2,r2,255
  80311c:	1080201c 	xori	r2,r2,128
  803120:	10bfe004 	addi	r2,r2,-128
  803124:	1004c03a 	cmpne	r2,r2,zero
  803128:	1000031e 	bne	r2,zero,803138 <tick+0x21fc>
  80312c:	00800044 	movi	r2,1
  803130:	e0bfbc15 	stw	r2,-272(fp)
  803134:	00000106 	br	80313c <tick+0x2200>
  803138:	e03fbc15 	stw	zero,-272(fp)
  80313c:	e0ffbc17 	ldw	r3,-272(fp)
  803140:	1805883a 	mov	r2,r3
  803144:	d0a750c5 	stb	r2,-25277(gp)
      g101 =((g100b&&_cg100)||(g112&&(!(_cg112))));
  803148:	d0a77383 	ldbu	r2,-25138(gp)
  80314c:	10803fcc 	andi	r2,r2,255
  803150:	1080201c 	xori	r2,r2,128
  803154:	10bfe004 	addi	r2,r2,-128
  803158:	1005003a 	cmpeq	r2,r2,zero
  80315c:	1000061e 	bne	r2,zero,803178 <tick+0x223c>
  803160:	d0a75343 	ldbu	r2,-25267(gp)
  803164:	10803fcc 	andi	r2,r2,255
  803168:	1080201c 	xori	r2,r2,128
  80316c:	10bfe004 	addi	r2,r2,-128
  803170:	1004c03a 	cmpne	r2,r2,zero
  803174:	10000c1e 	bne	r2,zero,8031a8 <tick+0x226c>
  803178:	d0a732c3 	ldbu	r2,-25397(gp)
  80317c:	10803fcc 	andi	r2,r2,255
  803180:	1080201c 	xori	r2,r2,128
  803184:	10bfe004 	addi	r2,r2,-128
  803188:	1005003a 	cmpeq	r2,r2,zero
  80318c:	1000091e 	bne	r2,zero,8031b4 <tick+0x2278>
  803190:	d0a76143 	ldbu	r2,-25211(gp)
  803194:	10803fcc 	andi	r2,r2,255
  803198:	1080201c 	xori	r2,r2,128
  80319c:	10bfe004 	addi	r2,r2,-128
  8031a0:	1004c03a 	cmpne	r2,r2,zero
  8031a4:	1000031e 	bne	r2,zero,8031b4 <tick+0x2278>
  8031a8:	00800044 	movi	r2,1
  8031ac:	e0bfbb15 	stw	r2,-276(fp)
  8031b0:	00000106 	br	8031b8 <tick+0x227c>
  8031b4:	e03fbb15 	stw	zero,-276(fp)
  8031b8:	e0ffbb17 	ldw	r3,-276(fp)
  8031bc:	1805883a 	mov	r2,r3
  8031c0:	d0a752c5 	stb	r2,-25269(gp)
      g104 =((g107&&(!(_cg107)))||g103||g110);
  8031c4:	d0a76003 	ldbu	r2,-25216(gp)
  8031c8:	10803fcc 	andi	r2,r2,255
  8031cc:	1080201c 	xori	r2,r2,128
  8031d0:	10bfe004 	addi	r2,r2,-128
  8031d4:	1005003a 	cmpeq	r2,r2,zero
  8031d8:	1000061e 	bne	r2,zero,8031f4 <tick+0x22b8>
  8031dc:	d0a74ac3 	ldbu	r2,-25301(gp)
  8031e0:	10803fcc 	andi	r2,r2,255
  8031e4:	1080201c 	xori	r2,r2,128
  8031e8:	10bfe004 	addi	r2,r2,-128
  8031ec:	1005003a 	cmpeq	r2,r2,zero
  8031f0:	10000c1e 	bne	r2,zero,803224 <tick+0x22e8>
  8031f4:	d0a73403 	ldbu	r2,-25392(gp)
  8031f8:	10803fcc 	andi	r2,r2,255
  8031fc:	1080201c 	xori	r2,r2,128
  803200:	10bfe004 	addi	r2,r2,-128
  803204:	1004c03a 	cmpne	r2,r2,zero
  803208:	1000061e 	bne	r2,zero,803224 <tick+0x22e8>
  80320c:	d0a74cc3 	ldbu	r2,-25293(gp)
  803210:	10803fcc 	andi	r2,r2,255
  803214:	1080201c 	xori	r2,r2,128
  803218:	10bfe004 	addi	r2,r2,-128
  80321c:	1005003a 	cmpeq	r2,r2,zero
  803220:	1000031e 	bne	r2,zero,803230 <tick+0x22f4>
  803224:	00800044 	movi	r2,1
  803228:	e0bfba15 	stw	r2,-280(fp)
  80322c:	00000106 	br	803234 <tick+0x22f8>
  803230:	e03fba15 	stw	zero,-280(fp)
  803234:	e0ffba17 	ldw	r3,-280(fp)
  803238:	1805883a 	mov	r2,r3
  80323c:	d0a76185 	stb	r2,-25210(gp)
      g115 = g1;
  803240:	d0a73c03 	ldbu	r2,-25360(gp)
  803244:	d0a73945 	stb	r2,-25371(gp)
      g125 =(PRE_g124);
  803248:	d0a74443 	ldbu	r2,-25327(gp)
  80324c:	d0a76ec5 	stb	r2,-25157(gp)
      _cg125 = VSense;
  803250:	d0a75483 	ldbu	r2,-25262(gp)
  803254:	d0a73605 	stb	r2,-25384(gp)
      g133 =(g125&&(!(_cg125)));
  803258:	d0a76ec3 	ldbu	r2,-25157(gp)
  80325c:	10803fcc 	andi	r2,r2,255
  803260:	1080201c 	xori	r2,r2,128
  803264:	10bfe004 	addi	r2,r2,-128
  803268:	1005003a 	cmpeq	r2,r2,zero
  80326c:	1000091e 	bne	r2,zero,803294 <tick+0x2358>
  803270:	d0a73603 	ldbu	r2,-25384(gp)
  803274:	10803fcc 	andi	r2,r2,255
  803278:	1080201c 	xori	r2,r2,128
  80327c:	10bfe004 	addi	r2,r2,-128
  803280:	1004c03a 	cmpne	r2,r2,zero
  803284:	1000031e 	bne	r2,zero,803294 <tick+0x2358>
  803288:	00800044 	movi	r2,1
  80328c:	e0bfb915 	stw	r2,-284(fp)
  803290:	00000106 	br	803298 <tick+0x235c>
  803294:	e03fb915 	stw	zero,-284(fp)
  803298:	e0ffb917 	ldw	r3,-284(fp)
  80329c:	1805883a 	mov	r2,r3
  8032a0:	d0a77685 	stb	r2,-25126(gp)
      _cg133 = VPace;
  8032a4:	d0a77403 	ldbu	r2,-25136(gp)
  8032a8:	d0a75585 	stb	r2,-25258(gp)
      g126 =((g125&&_cg125)||(g133&&_cg133));
  8032ac:	d0a76ec3 	ldbu	r2,-25157(gp)
  8032b0:	10803fcc 	andi	r2,r2,255
  8032b4:	1080201c 	xori	r2,r2,128
  8032b8:	10bfe004 	addi	r2,r2,-128
  8032bc:	1005003a 	cmpeq	r2,r2,zero
  8032c0:	1000061e 	bne	r2,zero,8032dc <tick+0x23a0>
  8032c4:	d0a73603 	ldbu	r2,-25384(gp)
  8032c8:	10803fcc 	andi	r2,r2,255
  8032cc:	1080201c 	xori	r2,r2,128
  8032d0:	10bfe004 	addi	r2,r2,-128
  8032d4:	1004c03a 	cmpne	r2,r2,zero
  8032d8:	10000c1e 	bne	r2,zero,80330c <tick+0x23d0>
  8032dc:	d0a77683 	ldbu	r2,-25126(gp)
  8032e0:	10803fcc 	andi	r2,r2,255
  8032e4:	1080201c 	xori	r2,r2,128
  8032e8:	10bfe004 	addi	r2,r2,-128
  8032ec:	1005003a 	cmpeq	r2,r2,zero
  8032f0:	1000091e 	bne	r2,zero,803318 <tick+0x23dc>
  8032f4:	d0a75583 	ldbu	r2,-25258(gp)
  8032f8:	10803fcc 	andi	r2,r2,255
  8032fc:	1080201c 	xori	r2,r2,128
  803300:	10bfe004 	addi	r2,r2,-128
  803304:	1005003a 	cmpeq	r2,r2,zero
  803308:	1000031e 	bne	r2,zero,803318 <tick+0x23dc>
  80330c:	00800044 	movi	r2,1
  803310:	e0bfb815 	stw	r2,-288(fp)
  803314:	00000106 	br	80331c <tick+0x23e0>
  803318:	e03fb815 	stw	zero,-288(fp)
  80331c:	e0ffb817 	ldw	r3,-288(fp)
  803320:	1805883a 	mov	r2,r3
  803324:	d0a73dc5 	stb	r2,-25353(gp)
      if(g126){
  803328:	d0a73dc3 	ldbu	r2,-25353(gp)
  80332c:	10803fcc 	andi	r2,r2,255
  803330:	1080201c 	xori	r2,r2,128
  803334:	10bfe004 	addi	r2,r2,-128
  803338:	1005003a 	cmpeq	r2,r2,zero
  80333c:	1000021e 	bne	r2,zero,803348 <tick+0x240c>
         _compsys303_a2_local_URI_start =(_compsys303_a2_local_URI_start||1);
  803340:	00800044 	movi	r2,1
  803344:	d0a75205 	stb	r2,-25272(gp)
      }
      g130 =(PRE_g129);
  803348:	d0a760c3 	ldbu	r2,-25213(gp)
  80334c:	d0a77245 	stb	r2,-25143(gp)
      _cg130 = VSense;
  803350:	d0a75483 	ldbu	r2,-25262(gp)
  803354:	d0a75705 	stb	r2,-25252(gp)
      g132 =(g130&&(!(_cg130)));
  803358:	d0a77243 	ldbu	r2,-25143(gp)
  80335c:	10803fcc 	andi	r2,r2,255
  803360:	1080201c 	xori	r2,r2,128
  803364:	10bfe004 	addi	r2,r2,-128
  803368:	1005003a 	cmpeq	r2,r2,zero
  80336c:	1000091e 	bne	r2,zero,803394 <tick+0x2458>
  803370:	d0a75703 	ldbu	r2,-25252(gp)
  803374:	10803fcc 	andi	r2,r2,255
  803378:	1080201c 	xori	r2,r2,128
  80337c:	10bfe004 	addi	r2,r2,-128
  803380:	1004c03a 	cmpne	r2,r2,zero
  803384:	1000031e 	bne	r2,zero,803394 <tick+0x2458>
  803388:	00800044 	movi	r2,1
  80338c:	e0bfb715 	stw	r2,-292(fp)
  803390:	00000106 	br	803398 <tick+0x245c>
  803394:	e03fb715 	stw	zero,-292(fp)
  803398:	e0ffb717 	ldw	r3,-292(fp)
  80339c:	1805883a 	mov	r2,r3
  8033a0:	d0a74545 	stb	r2,-25323(gp)
      _cg132 = VPace;
  8033a4:	d0a77403 	ldbu	r2,-25136(gp)
  8033a8:	d0a747c5 	stb	r2,-25313(gp)
      g131 =((g130&&_cg130)||(g132&&_cg132));
  8033ac:	d0a77243 	ldbu	r2,-25143(gp)
  8033b0:	10803fcc 	andi	r2,r2,255
  8033b4:	1080201c 	xori	r2,r2,128
  8033b8:	10bfe004 	addi	r2,r2,-128
  8033bc:	1005003a 	cmpeq	r2,r2,zero
  8033c0:	1000061e 	bne	r2,zero,8033dc <tick+0x24a0>
  8033c4:	d0a75703 	ldbu	r2,-25252(gp)
  8033c8:	10803fcc 	andi	r2,r2,255
  8033cc:	1080201c 	xori	r2,r2,128
  8033d0:	10bfe004 	addi	r2,r2,-128
  8033d4:	1004c03a 	cmpne	r2,r2,zero
  8033d8:	10000c1e 	bne	r2,zero,80340c <tick+0x24d0>
  8033dc:	d0a74543 	ldbu	r2,-25323(gp)
  8033e0:	10803fcc 	andi	r2,r2,255
  8033e4:	1080201c 	xori	r2,r2,128
  8033e8:	10bfe004 	addi	r2,r2,-128
  8033ec:	1005003a 	cmpeq	r2,r2,zero
  8033f0:	1000091e 	bne	r2,zero,803418 <tick+0x24dc>
  8033f4:	d0a747c3 	ldbu	r2,-25313(gp)
  8033f8:	10803fcc 	andi	r2,r2,255
  8033fc:	1080201c 	xori	r2,r2,128
  803400:	10bfe004 	addi	r2,r2,-128
  803404:	1005003a 	cmpeq	r2,r2,zero
  803408:	1000031e 	bne	r2,zero,803418 <tick+0x24dc>
  80340c:	00800044 	movi	r2,1
  803410:	e0bfb615 	stw	r2,-296(fp)
  803414:	00000106 	br	80341c <tick+0x24e0>
  803418:	e03fb615 	stw	zero,-296(fp)
  80341c:	e0ffb617 	ldw	r3,-296(fp)
  803420:	1805883a 	mov	r2,r3
  803424:	d0a75445 	stb	r2,-25263(gp)
      if(g131){
  803428:	d0a75443 	ldbu	r2,-25263(gp)
  80342c:	10803fcc 	andi	r2,r2,255
  803430:	1080201c 	xori	r2,r2,128
  803434:	10bfe004 	addi	r2,r2,-128
  803438:	1005003a 	cmpeq	r2,r2,zero
  80343c:	1000021e 	bne	r2,zero,803448 <tick+0x250c>
         _compsys303_a2_local_URI_start =(_compsys303_a2_local_URI_start||1);
  803440:	00800044 	movi	r2,1
  803444:	d0a75205 	stb	r2,-25272(gp)
      }
      g117 =(PRE_g116);
  803448:	d0a74783 	ldbu	r2,-25314(gp)
  80344c:	d0a74845 	stb	r2,-25311(gp)
      g117b = g117;
  803450:	d0a74843 	ldbu	r2,-25311(gp)
  803454:	d0a76605 	stb	r2,-25192(gp)
      _cg117 = _compsys303_a2_local_URI_start;
  803458:	d0a75203 	ldbu	r2,-25272(gp)
  80345c:	d0a76085 	stb	r2,-25214(gp)
      g116 =(g115||(g119b&&_cg119)||(g117b&&(!(_cg117)))||g121);
  803460:	d0a73943 	ldbu	r2,-25371(gp)
  803464:	10803fcc 	andi	r2,r2,255
  803468:	1080201c 	xori	r2,r2,128
  80346c:	10bfe004 	addi	r2,r2,-128
  803470:	1004c03a 	cmpne	r2,r2,zero
  803474:	10001e1e 	bne	r2,zero,8034f0 <tick+0x25b4>
  803478:	d0a742c3 	ldbu	r2,-25333(gp)
  80347c:	10803fcc 	andi	r2,r2,255
  803480:	1080201c 	xori	r2,r2,128
  803484:	10bfe004 	addi	r2,r2,-128
  803488:	1005003a 	cmpeq	r2,r2,zero
  80348c:	1000061e 	bne	r2,zero,8034a8 <tick+0x256c>
  803490:	d0a74243 	ldbu	r2,-25335(gp)
  803494:	10803fcc 	andi	r2,r2,255
  803498:	1080201c 	xori	r2,r2,128
  80349c:	10bfe004 	addi	r2,r2,-128
  8034a0:	1004c03a 	cmpne	r2,r2,zero
  8034a4:	1000121e 	bne	r2,zero,8034f0 <tick+0x25b4>
  8034a8:	d0a76603 	ldbu	r2,-25192(gp)
  8034ac:	10803fcc 	andi	r2,r2,255
  8034b0:	1080201c 	xori	r2,r2,128
  8034b4:	10bfe004 	addi	r2,r2,-128
  8034b8:	1005003a 	cmpeq	r2,r2,zero
  8034bc:	1000061e 	bne	r2,zero,8034d8 <tick+0x259c>
  8034c0:	d0a76083 	ldbu	r2,-25214(gp)
  8034c4:	10803fcc 	andi	r2,r2,255
  8034c8:	1080201c 	xori	r2,r2,128
  8034cc:	10bfe004 	addi	r2,r2,-128
  8034d0:	1005003a 	cmpeq	r2,r2,zero
  8034d4:	1000061e 	bne	r2,zero,8034f0 <tick+0x25b4>
  8034d8:	d0a77343 	ldbu	r2,-25139(gp)
  8034dc:	10803fcc 	andi	r2,r2,255
  8034e0:	1080201c 	xori	r2,r2,128
  8034e4:	10bfe004 	addi	r2,r2,-128
  8034e8:	1005003a 	cmpeq	r2,r2,zero
  8034ec:	1000031e 	bne	r2,zero,8034fc <tick+0x25c0>
  8034f0:	00800044 	movi	r2,1
  8034f4:	e0bfb515 	stw	r2,-300(fp)
  8034f8:	00000106 	br	803500 <tick+0x25c4>
  8034fc:	e03fb515 	stw	zero,-300(fp)
  803500:	e0ffb517 	ldw	r3,-300(fp)
  803504:	1805883a 	mov	r2,r3
  803508:	d0a76505 	stb	r2,-25196(gp)
      g118 =((g117b&&_cg117)||(g120&&(!(_cg120))));
  80350c:	d0a76603 	ldbu	r2,-25192(gp)
  803510:	10803fcc 	andi	r2,r2,255
  803514:	1080201c 	xori	r2,r2,128
  803518:	10bfe004 	addi	r2,r2,-128
  80351c:	1005003a 	cmpeq	r2,r2,zero
  803520:	1000061e 	bne	r2,zero,80353c <tick+0x2600>
  803524:	d0a76083 	ldbu	r2,-25214(gp)
  803528:	10803fcc 	andi	r2,r2,255
  80352c:	1080201c 	xori	r2,r2,128
  803530:	10bfe004 	addi	r2,r2,-128
  803534:	1004c03a 	cmpne	r2,r2,zero
  803538:	10000c1e 	bne	r2,zero,80356c <tick+0x2630>
  80353c:	d0a77503 	ldbu	r2,-25132(gp)
  803540:	10803fcc 	andi	r2,r2,255
  803544:	1080201c 	xori	r2,r2,128
  803548:	10bfe004 	addi	r2,r2,-128
  80354c:	1005003a 	cmpeq	r2,r2,zero
  803550:	1000091e 	bne	r2,zero,803578 <tick+0x263c>
  803554:	d0a77543 	ldbu	r2,-25131(gp)
  803558:	10803fcc 	andi	r2,r2,255
  80355c:	1080201c 	xori	r2,r2,128
  803560:	10bfe004 	addi	r2,r2,-128
  803564:	1004c03a 	cmpne	r2,r2,zero
  803568:	1000031e 	bne	r2,zero,803578 <tick+0x263c>
  80356c:	00800044 	movi	r2,1
  803570:	e0bfb415 	stw	r2,-304(fp)
  803574:	00000106 	br	80357c <tick+0x2640>
  803578:	e03fb415 	stw	zero,-304(fp)
  80357c:	e0ffb417 	ldw	r3,-304(fp)
  803580:	1805883a 	mov	r2,r3
  803584:	d0a74285 	stb	r2,-25334(gp)
      g123 = g1;
  803588:	d0a73c03 	ldbu	r2,-25360(gp)
  80358c:	d0a73b05 	stb	r2,-25364(gp)
      g124 =(g123||(g133&&(!(_cg133))));
  803590:	d0a73b03 	ldbu	r2,-25364(gp)
  803594:	10803fcc 	andi	r2,r2,255
  803598:	1080201c 	xori	r2,r2,128
  80359c:	10bfe004 	addi	r2,r2,-128
  8035a0:	1004c03a 	cmpne	r2,r2,zero
  8035a4:	10000c1e 	bne	r2,zero,8035d8 <tick+0x269c>
  8035a8:	d0a77683 	ldbu	r2,-25126(gp)
  8035ac:	10803fcc 	andi	r2,r2,255
  8035b0:	1080201c 	xori	r2,r2,128
  8035b4:	10bfe004 	addi	r2,r2,-128
  8035b8:	1005003a 	cmpeq	r2,r2,zero
  8035bc:	1000091e 	bne	r2,zero,8035e4 <tick+0x26a8>
  8035c0:	d0a75583 	ldbu	r2,-25258(gp)
  8035c4:	10803fcc 	andi	r2,r2,255
  8035c8:	1080201c 	xori	r2,r2,128
  8035cc:	10bfe004 	addi	r2,r2,-128
  8035d0:	1004c03a 	cmpne	r2,r2,zero
  8035d4:	1000031e 	bne	r2,zero,8035e4 <tick+0x26a8>
  8035d8:	00800044 	movi	r2,1
  8035dc:	e0bfb315 	stw	r2,-308(fp)
  8035e0:	00000106 	br	8035e8 <tick+0x26ac>
  8035e4:	e03fb315 	stw	zero,-308(fp)
  8035e8:	e0ffb317 	ldw	r3,-308(fp)
  8035ec:	1805883a 	mov	r2,r3
  8035f0:	d0a76685 	stb	r2,-25190(gp)
      g128 =(PRE_g127);
  8035f4:	d0a77103 	ldbu	r2,-25148(gp)
  8035f8:	d0a74f85 	stb	r2,-25282(gp)
      g128b = g128;
  8035fc:	d0a74f83 	ldbu	r2,-25282(gp)
  803600:	d0a76905 	stb	r2,-25180(gp)
      _cg128 = _compsys303_a2_local_URI_ex;
  803604:	d0a76843 	ldbu	r2,-25183(gp)
  803608:	d0a73905 	stb	r2,-25372(gp)
      g127 =(g126||g131||(g128b&&(!(_cg128))));
  80360c:	d0a73dc3 	ldbu	r2,-25353(gp)
  803610:	10803fcc 	andi	r2,r2,255
  803614:	1080201c 	xori	r2,r2,128
  803618:	10bfe004 	addi	r2,r2,-128
  80361c:	1004c03a 	cmpne	r2,r2,zero
  803620:	1000121e 	bne	r2,zero,80366c <tick+0x2730>
  803624:	d0a75443 	ldbu	r2,-25263(gp)
  803628:	10803fcc 	andi	r2,r2,255
  80362c:	1080201c 	xori	r2,r2,128
  803630:	10bfe004 	addi	r2,r2,-128
  803634:	1004c03a 	cmpne	r2,r2,zero
  803638:	10000c1e 	bne	r2,zero,80366c <tick+0x2730>
  80363c:	d0a76903 	ldbu	r2,-25180(gp)
  803640:	10803fcc 	andi	r2,r2,255
  803644:	1080201c 	xori	r2,r2,128
  803648:	10bfe004 	addi	r2,r2,-128
  80364c:	1005003a 	cmpeq	r2,r2,zero
  803650:	1000091e 	bne	r2,zero,803678 <tick+0x273c>
  803654:	d0a73903 	ldbu	r2,-25372(gp)
  803658:	10803fcc 	andi	r2,r2,255
  80365c:	1080201c 	xori	r2,r2,128
  803660:	10bfe004 	addi	r2,r2,-128
  803664:	1004c03a 	cmpne	r2,r2,zero
  803668:	1000031e 	bne	r2,zero,803678 <tick+0x273c>
  80366c:	00800044 	movi	r2,1
  803670:	e0bfb215 	stw	r2,-312(fp)
  803674:	00000106 	br	80367c <tick+0x2740>
  803678:	e03fb215 	stw	zero,-312(fp)
  80367c:	e0ffb217 	ldw	r3,-312(fp)
  803680:	1805883a 	mov	r2,r3
  803684:	d0a735c5 	stb	r2,-25385(gp)
      g129 =((g132&&(!(_cg132)))||(g128b&&_cg128));
  803688:	d0a74543 	ldbu	r2,-25323(gp)
  80368c:	10803fcc 	andi	r2,r2,255
  803690:	1080201c 	xori	r2,r2,128
  803694:	10bfe004 	addi	r2,r2,-128
  803698:	1005003a 	cmpeq	r2,r2,zero
  80369c:	1000061e 	bne	r2,zero,8036b8 <tick+0x277c>
  8036a0:	d0a747c3 	ldbu	r2,-25313(gp)
  8036a4:	10803fcc 	andi	r2,r2,255
  8036a8:	1080201c 	xori	r2,r2,128
  8036ac:	10bfe004 	addi	r2,r2,-128
  8036b0:	1005003a 	cmpeq	r2,r2,zero
  8036b4:	10000c1e 	bne	r2,zero,8036e8 <tick+0x27ac>
  8036b8:	d0a76903 	ldbu	r2,-25180(gp)
  8036bc:	10803fcc 	andi	r2,r2,255
  8036c0:	1080201c 	xori	r2,r2,128
  8036c4:	10bfe004 	addi	r2,r2,-128
  8036c8:	1005003a 	cmpeq	r2,r2,zero
  8036cc:	1000091e 	bne	r2,zero,8036f4 <tick+0x27b8>
  8036d0:	d0a73903 	ldbu	r2,-25372(gp)
  8036d4:	10803fcc 	andi	r2,r2,255
  8036d8:	1080201c 	xori	r2,r2,128
  8036dc:	10bfe004 	addi	r2,r2,-128
  8036e0:	1005003a 	cmpeq	r2,r2,zero
  8036e4:	1000031e 	bne	r2,zero,8036f4 <tick+0x27b8>
  8036e8:	00800044 	movi	r2,1
  8036ec:	e0bfb115 	stw	r2,-316(fp)
  8036f0:	00000106 	br	8036f8 <tick+0x27bc>
  8036f4:	e03fb115 	stw	zero,-316(fp)
  8036f8:	e0ffb117 	ldw	r3,-316(fp)
  8036fc:	1805883a 	mov	r2,r3
  803700:	d0a75405 	stb	r2,-25264(gp)
      g17_e1 =(!((g4||g7||g9||g12)));
  803704:	d0a73003 	ldbu	r2,-25408(gp)
  803708:	10803fcc 	andi	r2,r2,255
  80370c:	1080201c 	xori	r2,r2,128
  803710:	10bfe004 	addi	r2,r2,-128
  803714:	1004c03a 	cmpne	r2,r2,zero
  803718:	1000151e 	bne	r2,zero,803770 <tick+0x2834>
  80371c:	d0a74d83 	ldbu	r2,-25290(gp)
  803720:	10803fcc 	andi	r2,r2,255
  803724:	1080201c 	xori	r2,r2,128
  803728:	10bfe004 	addi	r2,r2,-128
  80372c:	1004c03a 	cmpne	r2,r2,zero
  803730:	10000f1e 	bne	r2,zero,803770 <tick+0x2834>
  803734:	d0a73583 	ldbu	r2,-25386(gp)
  803738:	10803fcc 	andi	r2,r2,255
  80373c:	1080201c 	xori	r2,r2,128
  803740:	10bfe004 	addi	r2,r2,-128
  803744:	1004c03a 	cmpne	r2,r2,zero
  803748:	1000091e 	bne	r2,zero,803770 <tick+0x2834>
  80374c:	d0a73e43 	ldbu	r2,-25351(gp)
  803750:	10803fcc 	andi	r2,r2,255
  803754:	1080201c 	xori	r2,r2,128
  803758:	10bfe004 	addi	r2,r2,-128
  80375c:	1004c03a 	cmpne	r2,r2,zero
  803760:	1000031e 	bne	r2,zero,803770 <tick+0x2834>
  803764:	00800044 	movi	r2,1
  803768:	e0bfb015 	stw	r2,-320(fp)
  80376c:	00000106 	br	803774 <tick+0x2838>
  803770:	e03fb015 	stw	zero,-320(fp)
  803774:	e0ffb017 	ldw	r3,-320(fp)
  803778:	1805883a 	mov	r2,r3
  80377c:	d0a76805 	stb	r2,-25184(gp)
      g25_e2 =(!((g20||g22)));
  803780:	d0a75a03 	ldbu	r2,-25240(gp)
  803784:	10803fcc 	andi	r2,r2,255
  803788:	1080201c 	xori	r2,r2,128
  80378c:	10bfe004 	addi	r2,r2,-128
  803790:	1004c03a 	cmpne	r2,r2,zero
  803794:	1000091e 	bne	r2,zero,8037bc <tick+0x2880>
  803798:	d0a76d83 	ldbu	r2,-25162(gp)
  80379c:	10803fcc 	andi	r2,r2,255
  8037a0:	1080201c 	xori	r2,r2,128
  8037a4:	10bfe004 	addi	r2,r2,-128
  8037a8:	1004c03a 	cmpne	r2,r2,zero
  8037ac:	1000031e 	bne	r2,zero,8037bc <tick+0x2880>
  8037b0:	00800044 	movi	r2,1
  8037b4:	e0bfaf15 	stw	r2,-324(fp)
  8037b8:	00000106 	br	8037c0 <tick+0x2884>
  8037bc:	e03faf15 	stw	zero,-324(fp)
  8037c0:	e0ffaf17 	ldw	r3,-324(fp)
  8037c4:	1805883a 	mov	r2,r3
  8037c8:	d0a75305 	stb	r2,-25268(gp)
      g33_e3 =(!((g28||g31)));
  8037cc:	d0a76dc3 	ldbu	r2,-25161(gp)
  8037d0:	10803fcc 	andi	r2,r2,255
  8037d4:	1080201c 	xori	r2,r2,128
  8037d8:	10bfe004 	addi	r2,r2,-128
  8037dc:	1004c03a 	cmpne	r2,r2,zero
  8037e0:	1000091e 	bne	r2,zero,803808 <tick+0x28cc>
  8037e4:	d0a74083 	ldbu	r2,-25342(gp)
  8037e8:	10803fcc 	andi	r2,r2,255
  8037ec:	1080201c 	xori	r2,r2,128
  8037f0:	10bfe004 	addi	r2,r2,-128
  8037f4:	1004c03a 	cmpne	r2,r2,zero
  8037f8:	1000031e 	bne	r2,zero,803808 <tick+0x28cc>
  8037fc:	00800044 	movi	r2,1
  803800:	e0bfae15 	stw	r2,-328(fp)
  803804:	00000106 	br	80380c <tick+0x28d0>
  803808:	e03fae15 	stw	zero,-328(fp)
  80380c:	e0ffae17 	ldw	r3,-328(fp)
  803810:	1805883a 	mov	r2,r3
  803814:	d0a77a45 	stb	r2,-25111(gp)
      g40_e4 =(!((g36||g38)));
  803818:	d0a75d83 	ldbu	r2,-25226(gp)
  80381c:	10803fcc 	andi	r2,r2,255
  803820:	1080201c 	xori	r2,r2,128
  803824:	10bfe004 	addi	r2,r2,-128
  803828:	1004c03a 	cmpne	r2,r2,zero
  80382c:	1000091e 	bne	r2,zero,803854 <tick+0x2918>
  803830:	d0a746c3 	ldbu	r2,-25317(gp)
  803834:	10803fcc 	andi	r2,r2,255
  803838:	1080201c 	xori	r2,r2,128
  80383c:	10bfe004 	addi	r2,r2,-128
  803840:	1004c03a 	cmpne	r2,r2,zero
  803844:	1000031e 	bne	r2,zero,803854 <tick+0x2918>
  803848:	00800044 	movi	r2,1
  80384c:	e0bfad15 	stw	r2,-332(fp)
  803850:	00000106 	br	803858 <tick+0x291c>
  803854:	e03fad15 	stw	zero,-332(fp)
  803858:	e0ffad17 	ldw	r3,-332(fp)
  80385c:	1805883a 	mov	r2,r3
  803860:	d0a76e85 	stb	r2,-25158(gp)
      g63_e5 =(!((g43||g46||g49||g57||g51)));
  803864:	d0a75cc3 	ldbu	r2,-25229(gp)
  803868:	10803fcc 	andi	r2,r2,255
  80386c:	1080201c 	xori	r2,r2,128
  803870:	10bfe004 	addi	r2,r2,-128
  803874:	1004c03a 	cmpne	r2,r2,zero
  803878:	10001b1e 	bne	r2,zero,8038e8 <tick+0x29ac>
  80387c:	d0a75e03 	ldbu	r2,-25224(gp)
  803880:	10803fcc 	andi	r2,r2,255
  803884:	1080201c 	xori	r2,r2,128
  803888:	10bfe004 	addi	r2,r2,-128
  80388c:	1004c03a 	cmpne	r2,r2,zero
  803890:	1000151e 	bne	r2,zero,8038e8 <tick+0x29ac>
  803894:	d0a74d03 	ldbu	r2,-25292(gp)
  803898:	10803fcc 	andi	r2,r2,255
  80389c:	1080201c 	xori	r2,r2,128
  8038a0:	10bfe004 	addi	r2,r2,-128
  8038a4:	1004c03a 	cmpne	r2,r2,zero
  8038a8:	10000f1e 	bne	r2,zero,8038e8 <tick+0x29ac>
  8038ac:	d0a76303 	ldbu	r2,-25204(gp)
  8038b0:	10803fcc 	andi	r2,r2,255
  8038b4:	1080201c 	xori	r2,r2,128
  8038b8:	10bfe004 	addi	r2,r2,-128
  8038bc:	1004c03a 	cmpne	r2,r2,zero
  8038c0:	1000091e 	bne	r2,zero,8038e8 <tick+0x29ac>
  8038c4:	d0a75f83 	ldbu	r2,-25218(gp)
  8038c8:	10803fcc 	andi	r2,r2,255
  8038cc:	1080201c 	xori	r2,r2,128
  8038d0:	10bfe004 	addi	r2,r2,-128
  8038d4:	1004c03a 	cmpne	r2,r2,zero
  8038d8:	1000031e 	bne	r2,zero,8038e8 <tick+0x29ac>
  8038dc:	00800044 	movi	r2,1
  8038e0:	e0bfac15 	stw	r2,-336(fp)
  8038e4:	00000106 	br	8038ec <tick+0x29b0>
  8038e8:	e03fac15 	stw	zero,-336(fp)
  8038ec:	e0ffac17 	ldw	r3,-336(fp)
  8038f0:	1805883a 	mov	r2,r3
  8038f4:	d0a76b45 	stb	r2,-25171(gp)
      g71_e6 =(!((g66||g68)));
  8038f8:	d0a75143 	ldbu	r2,-25275(gp)
  8038fc:	10803fcc 	andi	r2,r2,255
  803900:	1080201c 	xori	r2,r2,128
  803904:	10bfe004 	addi	r2,r2,-128
  803908:	1004c03a 	cmpne	r2,r2,zero
  80390c:	1000091e 	bne	r2,zero,803934 <tick+0x29f8>
  803910:	d0a76c43 	ldbu	r2,-25167(gp)
  803914:	10803fcc 	andi	r2,r2,255
  803918:	1080201c 	xori	r2,r2,128
  80391c:	10bfe004 	addi	r2,r2,-128
  803920:	1004c03a 	cmpne	r2,r2,zero
  803924:	1000031e 	bne	r2,zero,803934 <tick+0x29f8>
  803928:	00800044 	movi	r2,1
  80392c:	e0bfab15 	stw	r2,-340(fp)
  803930:	00000106 	br	803938 <tick+0x29fc>
  803934:	e03fab15 	stw	zero,-340(fp)
  803938:	e0ffab17 	ldw	r3,-340(fp)
  80393c:	1805883a 	mov	r2,r3
  803940:	d0a75605 	stb	r2,-25256(gp)
      g78_e7 =(!((g74||g76)));
  803944:	d0a77a03 	ldbu	r2,-25112(gp)
  803948:	10803fcc 	andi	r2,r2,255
  80394c:	1080201c 	xori	r2,r2,128
  803950:	10bfe004 	addi	r2,r2,-128
  803954:	1004c03a 	cmpne	r2,r2,zero
  803958:	1000091e 	bne	r2,zero,803980 <tick+0x2a44>
  80395c:	d0a74043 	ldbu	r2,-25343(gp)
  803960:	10803fcc 	andi	r2,r2,255
  803964:	1080201c 	xori	r2,r2,128
  803968:	10bfe004 	addi	r2,r2,-128
  80396c:	1004c03a 	cmpne	r2,r2,zero
  803970:	1000031e 	bne	r2,zero,803980 <tick+0x2a44>
  803974:	00800044 	movi	r2,1
  803978:	e0bfaa15 	stw	r2,-344(fp)
  80397c:	00000106 	br	803984 <tick+0x2a48>
  803980:	e03faa15 	stw	zero,-344(fp)
  803984:	e0ffaa17 	ldw	r3,-344(fp)
  803988:	1805883a 	mov	r2,r3
  80398c:	d0a74645 	stb	r2,-25319(gp)
      g86_e8 =(!((g81||g84)));
  803990:	d0a765c3 	ldbu	r2,-25193(gp)
  803994:	10803fcc 	andi	r2,r2,255
  803998:	1080201c 	xori	r2,r2,128
  80399c:	10bfe004 	addi	r2,r2,-128
  8039a0:	1004c03a 	cmpne	r2,r2,zero
  8039a4:	1000091e 	bne	r2,zero,8039cc <tick+0x2a90>
  8039a8:	d0a74183 	ldbu	r2,-25338(gp)
  8039ac:	10803fcc 	andi	r2,r2,255
  8039b0:	1080201c 	xori	r2,r2,128
  8039b4:	10bfe004 	addi	r2,r2,-128
  8039b8:	1004c03a 	cmpne	r2,r2,zero
  8039bc:	1000031e 	bne	r2,zero,8039cc <tick+0x2a90>
  8039c0:	00800044 	movi	r2,1
  8039c4:	e0bfa915 	stw	r2,-348(fp)
  8039c8:	00000106 	br	8039d0 <tick+0x2a94>
  8039cc:	e03fa915 	stw	zero,-348(fp)
  8039d0:	e0ffa917 	ldw	r3,-348(fp)
  8039d4:	1805883a 	mov	r2,r3
  8039d8:	d0a734c5 	stb	r2,-25389(gp)
      g94_e9 =(!((g89||g91)));
  8039dc:	d0a75dc3 	ldbu	r2,-25225(gp)
  8039e0:	10803fcc 	andi	r2,r2,255
  8039e4:	1080201c 	xori	r2,r2,128
  8039e8:	10bfe004 	addi	r2,r2,-128
  8039ec:	1004c03a 	cmpne	r2,r2,zero
  8039f0:	1000091e 	bne	r2,zero,803a18 <tick+0x2adc>
  8039f4:	d0a72f03 	ldbu	r2,-25412(gp)
  8039f8:	10803fcc 	andi	r2,r2,255
  8039fc:	1080201c 	xori	r2,r2,128
  803a00:	10bfe004 	addi	r2,r2,-128
  803a04:	1004c03a 	cmpne	r2,r2,zero
  803a08:	1000031e 	bne	r2,zero,803a18 <tick+0x2adc>
  803a0c:	00800044 	movi	r2,1
  803a10:	e0bfa815 	stw	r2,-352(fp)
  803a14:	00000106 	br	803a1c <tick+0x2ae0>
  803a18:	e03fa815 	stw	zero,-352(fp)
  803a1c:	e0ffa817 	ldw	r3,-352(fp)
  803a20:	1805883a 	mov	r2,r3
  803a24:	d0a73205 	stb	r2,-25400(gp)
      g114_e10 =(!((g97||g100||g102||g105)));
  803a28:	d0a73e83 	ldbu	r2,-25350(gp)
  803a2c:	10803fcc 	andi	r2,r2,255
  803a30:	1080201c 	xori	r2,r2,128
  803a34:	10bfe004 	addi	r2,r2,-128
  803a38:	1004c03a 	cmpne	r2,r2,zero
  803a3c:	1000151e 	bne	r2,zero,803a94 <tick+0x2b58>
  803a40:	d0a75043 	ldbu	r2,-25279(gp)
  803a44:	10803fcc 	andi	r2,r2,255
  803a48:	1080201c 	xori	r2,r2,128
  803a4c:	10bfe004 	addi	r2,r2,-128
  803a50:	1004c03a 	cmpne	r2,r2,zero
  803a54:	10000f1e 	bne	r2,zero,803a94 <tick+0x2b58>
  803a58:	d0a73883 	ldbu	r2,-25374(gp)
  803a5c:	10803fcc 	andi	r2,r2,255
  803a60:	1080201c 	xori	r2,r2,128
  803a64:	10bfe004 	addi	r2,r2,-128
  803a68:	1004c03a 	cmpne	r2,r2,zero
  803a6c:	1000091e 	bne	r2,zero,803a94 <tick+0x2b58>
  803a70:	d0a74703 	ldbu	r2,-25316(gp)
  803a74:	10803fcc 	andi	r2,r2,255
  803a78:	1080201c 	xori	r2,r2,128
  803a7c:	10bfe004 	addi	r2,r2,-128
  803a80:	1004c03a 	cmpne	r2,r2,zero
  803a84:	1000031e 	bne	r2,zero,803a94 <tick+0x2b58>
  803a88:	00800044 	movi	r2,1
  803a8c:	e0bfa715 	stw	r2,-356(fp)
  803a90:	00000106 	br	803a98 <tick+0x2b5c>
  803a94:	e03fa715 	stw	zero,-356(fp)
  803a98:	e0ffa717 	ldw	r3,-356(fp)
  803a9c:	1805883a 	mov	r2,r3
  803aa0:	d0a73985 	stb	r2,-25370(gp)
      g122_e11 =(!((g117||g119)));
  803aa4:	d0a74843 	ldbu	r2,-25311(gp)
  803aa8:	10803fcc 	andi	r2,r2,255
  803aac:	1080201c 	xori	r2,r2,128
  803ab0:	10bfe004 	addi	r2,r2,-128
  803ab4:	1004c03a 	cmpne	r2,r2,zero
  803ab8:	1000091e 	bne	r2,zero,803ae0 <tick+0x2ba4>
  803abc:	d0a75c03 	ldbu	r2,-25232(gp)
  803ac0:	10803fcc 	andi	r2,r2,255
  803ac4:	1080201c 	xori	r2,r2,128
  803ac8:	10bfe004 	addi	r2,r2,-128
  803acc:	1004c03a 	cmpne	r2,r2,zero
  803ad0:	1000031e 	bne	r2,zero,803ae0 <tick+0x2ba4>
  803ad4:	00800044 	movi	r2,1
  803ad8:	e0bfa615 	stw	r2,-360(fp)
  803adc:	00000106 	br	803ae4 <tick+0x2ba8>
  803ae0:	e03fa615 	stw	zero,-360(fp)
  803ae4:	e0ffa617 	ldw	r3,-360(fp)
  803ae8:	1805883a 	mov	r2,r3
  803aec:	d0a77985 	stb	r2,-25114(gp)
      g134_e12 =(!((g125||g128||g130)));
  803af0:	d0a76ec3 	ldbu	r2,-25157(gp)
  803af4:	10803fcc 	andi	r2,r2,255
  803af8:	1080201c 	xori	r2,r2,128
  803afc:	10bfe004 	addi	r2,r2,-128
  803b00:	1004c03a 	cmpne	r2,r2,zero
  803b04:	10000f1e 	bne	r2,zero,803b44 <tick+0x2c08>
  803b08:	d0a74f83 	ldbu	r2,-25282(gp)
  803b0c:	10803fcc 	andi	r2,r2,255
  803b10:	1080201c 	xori	r2,r2,128
  803b14:	10bfe004 	addi	r2,r2,-128
  803b18:	1004c03a 	cmpne	r2,r2,zero
  803b1c:	1000091e 	bne	r2,zero,803b44 <tick+0x2c08>
  803b20:	d0a77243 	ldbu	r2,-25143(gp)
  803b24:	10803fcc 	andi	r2,r2,255
  803b28:	1080201c 	xori	r2,r2,128
  803b2c:	10bfe004 	addi	r2,r2,-128
  803b30:	1004c03a 	cmpne	r2,r2,zero
  803b34:	1000031e 	bne	r2,zero,803b44 <tick+0x2c08>
  803b38:	00800044 	movi	r2,1
  803b3c:	e0bfa515 	stw	r2,-364(fp)
  803b40:	00000106 	br	803b48 <tick+0x2c0c>
  803b44:	e03fa515 	stw	zero,-364(fp)
  803b48:	e0ffa517 	ldw	r3,-364(fp)
  803b4c:	1805883a 	mov	r2,r3
  803b50:	d0a74605 	stb	r2,-25320(gp)
      g138_e13 =(!(g137));
  803b54:	d0a767c3 	ldbu	r2,-25185(gp)
  803b58:	10803fcc 	andi	r2,r2,255
  803b5c:	1080201c 	xori	r2,r2,128
  803b60:	10bfe004 	addi	r2,r2,-128
  803b64:	1005003a 	cmpeq	r2,r2,zero
  803b68:	d0a75e85 	stb	r2,-25222(gp)
      g139_fix0 =((g17_e1||g17)&&(g25_e2||g25)&&(g33_e3||g33)&&(g40_e4||g40));
  803b6c:	d0a76803 	ldbu	r2,-25184(gp)
  803b70:	10803fcc 	andi	r2,r2,255
  803b74:	1080201c 	xori	r2,r2,128
  803b78:	10bfe004 	addi	r2,r2,-128
  803b7c:	1004c03a 	cmpne	r2,r2,zero
  803b80:	1000061e 	bne	r2,zero,803b9c <tick+0x2c60>
  803b84:	d0a74003 	ldbu	r2,-25344(gp)
  803b88:	10803fcc 	andi	r2,r2,255
  803b8c:	1080201c 	xori	r2,r2,128
  803b90:	10bfe004 	addi	r2,r2,-128
  803b94:	1005003a 	cmpeq	r2,r2,zero
  803b98:	1000271e 	bne	r2,zero,803c38 <tick+0x2cfc>
  803b9c:	d0a75303 	ldbu	r2,-25268(gp)
  803ba0:	10803fcc 	andi	r2,r2,255
  803ba4:	1080201c 	xori	r2,r2,128
  803ba8:	10bfe004 	addi	r2,r2,-128
  803bac:	1004c03a 	cmpne	r2,r2,zero
  803bb0:	1000061e 	bne	r2,zero,803bcc <tick+0x2c90>
  803bb4:	d0a76c03 	ldbu	r2,-25168(gp)
  803bb8:	10803fcc 	andi	r2,r2,255
  803bbc:	1080201c 	xori	r2,r2,128
  803bc0:	10bfe004 	addi	r2,r2,-128
  803bc4:	1005003a 	cmpeq	r2,r2,zero
  803bc8:	10001b1e 	bne	r2,zero,803c38 <tick+0x2cfc>
  803bcc:	d0a77a43 	ldbu	r2,-25111(gp)
  803bd0:	10803fcc 	andi	r2,r2,255
  803bd4:	1080201c 	xori	r2,r2,128
  803bd8:	10bfe004 	addi	r2,r2,-128
  803bdc:	1004c03a 	cmpne	r2,r2,zero
  803be0:	1000061e 	bne	r2,zero,803bfc <tick+0x2cc0>
  803be4:	d0a75543 	ldbu	r2,-25259(gp)
  803be8:	10803fcc 	andi	r2,r2,255
  803bec:	1080201c 	xori	r2,r2,128
  803bf0:	10bfe004 	addi	r2,r2,-128
  803bf4:	1005003a 	cmpeq	r2,r2,zero
  803bf8:	10000f1e 	bne	r2,zero,803c38 <tick+0x2cfc>
  803bfc:	d0a76e83 	ldbu	r2,-25158(gp)
  803c00:	10803fcc 	andi	r2,r2,255
  803c04:	1080201c 	xori	r2,r2,128
  803c08:	10bfe004 	addi	r2,r2,-128
  803c0c:	1004c03a 	cmpne	r2,r2,zero
  803c10:	1000061e 	bne	r2,zero,803c2c <tick+0x2cf0>
  803c14:	d0a72e43 	ldbu	r2,-25415(gp)
  803c18:	10803fcc 	andi	r2,r2,255
  803c1c:	1080201c 	xori	r2,r2,128
  803c20:	10bfe004 	addi	r2,r2,-128
  803c24:	1005003a 	cmpeq	r2,r2,zero
  803c28:	1000031e 	bne	r2,zero,803c38 <tick+0x2cfc>
  803c2c:	00800044 	movi	r2,1
  803c30:	e0bfa415 	stw	r2,-368(fp)
  803c34:	00000106 	br	803c3c <tick+0x2d00>
  803c38:	e03fa415 	stw	zero,-368(fp)
  803c3c:	e0ffa417 	ldw	r3,-368(fp)
  803c40:	1805883a 	mov	r2,r3
  803c44:	d0a740c5 	stb	r2,-25341(gp)
      g139_fix1 =(g139_fix0&&(g63_e5||g63)&&(g71_e6||g71)&&(g78_e7||g78));
  803c48:	d0a740c3 	ldbu	r2,-25341(gp)
  803c4c:	10803fcc 	andi	r2,r2,255
  803c50:	1080201c 	xori	r2,r2,128
  803c54:	10bfe004 	addi	r2,r2,-128
  803c58:	1005003a 	cmpeq	r2,r2,zero
  803c5c:	1000271e 	bne	r2,zero,803cfc <tick+0x2dc0>
  803c60:	d0a76b43 	ldbu	r2,-25171(gp)
  803c64:	10803fcc 	andi	r2,r2,255
  803c68:	1080201c 	xori	r2,r2,128
  803c6c:	10bfe004 	addi	r2,r2,-128
  803c70:	1004c03a 	cmpne	r2,r2,zero
  803c74:	1000061e 	bne	r2,zero,803c90 <tick+0x2d54>
  803c78:	d0a759c3 	ldbu	r2,-25241(gp)
  803c7c:	10803fcc 	andi	r2,r2,255
  803c80:	1080201c 	xori	r2,r2,128
  803c84:	10bfe004 	addi	r2,r2,-128
  803c88:	1005003a 	cmpeq	r2,r2,zero
  803c8c:	10001b1e 	bne	r2,zero,803cfc <tick+0x2dc0>
  803c90:	d0a75603 	ldbu	r2,-25256(gp)
  803c94:	10803fcc 	andi	r2,r2,255
  803c98:	1080201c 	xori	r2,r2,128
  803c9c:	10bfe004 	addi	r2,r2,-128
  803ca0:	1004c03a 	cmpne	r2,r2,zero
  803ca4:	1000061e 	bne	r2,zero,803cc0 <tick+0x2d84>
  803ca8:	d0a73cc3 	ldbu	r2,-25357(gp)
  803cac:	10803fcc 	andi	r2,r2,255
  803cb0:	1080201c 	xori	r2,r2,128
  803cb4:	10bfe004 	addi	r2,r2,-128
  803cb8:	1005003a 	cmpeq	r2,r2,zero
  803cbc:	10000f1e 	bne	r2,zero,803cfc <tick+0x2dc0>
  803cc0:	d0a74643 	ldbu	r2,-25319(gp)
  803cc4:	10803fcc 	andi	r2,r2,255
  803cc8:	1080201c 	xori	r2,r2,128
  803ccc:	10bfe004 	addi	r2,r2,-128
  803cd0:	1004c03a 	cmpne	r2,r2,zero
  803cd4:	1000061e 	bne	r2,zero,803cf0 <tick+0x2db4>
  803cd8:	d0a75503 	ldbu	r2,-25260(gp)
  803cdc:	10803fcc 	andi	r2,r2,255
  803ce0:	1080201c 	xori	r2,r2,128
  803ce4:	10bfe004 	addi	r2,r2,-128
  803ce8:	1005003a 	cmpeq	r2,r2,zero
  803cec:	1000031e 	bne	r2,zero,803cfc <tick+0x2dc0>
  803cf0:	00800044 	movi	r2,1
  803cf4:	e0bfa315 	stw	r2,-372(fp)
  803cf8:	00000106 	br	803d00 <tick+0x2dc4>
  803cfc:	e03fa315 	stw	zero,-372(fp)
  803d00:	e0ffa317 	ldw	r3,-372(fp)
  803d04:	1805883a 	mov	r2,r3
  803d08:	d0a73105 	stb	r2,-25404(gp)
      g139_fix2 =(g17||g25||g33||g40);
  803d0c:	d0a74003 	ldbu	r2,-25344(gp)
  803d10:	10803fcc 	andi	r2,r2,255
  803d14:	1080201c 	xori	r2,r2,128
  803d18:	10bfe004 	addi	r2,r2,-128
  803d1c:	1004c03a 	cmpne	r2,r2,zero
  803d20:	1000121e 	bne	r2,zero,803d6c <tick+0x2e30>
  803d24:	d0a76c03 	ldbu	r2,-25168(gp)
  803d28:	10803fcc 	andi	r2,r2,255
  803d2c:	1080201c 	xori	r2,r2,128
  803d30:	10bfe004 	addi	r2,r2,-128
  803d34:	1004c03a 	cmpne	r2,r2,zero
  803d38:	10000c1e 	bne	r2,zero,803d6c <tick+0x2e30>
  803d3c:	d0a75543 	ldbu	r2,-25259(gp)
  803d40:	10803fcc 	andi	r2,r2,255
  803d44:	1080201c 	xori	r2,r2,128
  803d48:	10bfe004 	addi	r2,r2,-128
  803d4c:	1004c03a 	cmpne	r2,r2,zero
  803d50:	1000061e 	bne	r2,zero,803d6c <tick+0x2e30>
  803d54:	d0a72e43 	ldbu	r2,-25415(gp)
  803d58:	10803fcc 	andi	r2,r2,255
  803d5c:	1080201c 	xori	r2,r2,128
  803d60:	10bfe004 	addi	r2,r2,-128
  803d64:	1005003a 	cmpeq	r2,r2,zero
  803d68:	1000031e 	bne	r2,zero,803d78 <tick+0x2e3c>
  803d6c:	00800044 	movi	r2,1
  803d70:	e0bfa215 	stw	r2,-376(fp)
  803d74:	00000106 	br	803d7c <tick+0x2e40>
  803d78:	e03fa215 	stw	zero,-376(fp)
  803d7c:	e0ffa217 	ldw	r3,-376(fp)
  803d80:	1805883a 	mov	r2,r3
  803d84:	d0a76945 	stb	r2,-25179(gp)
      g139_fix3 =(g139_fix2||g63||g71||g78);
  803d88:	d0a76943 	ldbu	r2,-25179(gp)
  803d8c:	10803fcc 	andi	r2,r2,255
  803d90:	1080201c 	xori	r2,r2,128
  803d94:	10bfe004 	addi	r2,r2,-128
  803d98:	1004c03a 	cmpne	r2,r2,zero
  803d9c:	1000121e 	bne	r2,zero,803de8 <tick+0x2eac>
  803da0:	d0a759c3 	ldbu	r2,-25241(gp)
  803da4:	10803fcc 	andi	r2,r2,255
  803da8:	1080201c 	xori	r2,r2,128
  803dac:	10bfe004 	addi	r2,r2,-128
  803db0:	1004c03a 	cmpne	r2,r2,zero
  803db4:	10000c1e 	bne	r2,zero,803de8 <tick+0x2eac>
  803db8:	d0a73cc3 	ldbu	r2,-25357(gp)
  803dbc:	10803fcc 	andi	r2,r2,255
  803dc0:	1080201c 	xori	r2,r2,128
  803dc4:	10bfe004 	addi	r2,r2,-128
  803dc8:	1004c03a 	cmpne	r2,r2,zero
  803dcc:	1000061e 	bne	r2,zero,803de8 <tick+0x2eac>
  803dd0:	d0a75503 	ldbu	r2,-25260(gp)
  803dd4:	10803fcc 	andi	r2,r2,255
  803dd8:	1080201c 	xori	r2,r2,128
  803ddc:	10bfe004 	addi	r2,r2,-128
  803de0:	1005003a 	cmpeq	r2,r2,zero
  803de4:	1000031e 	bne	r2,zero,803df4 <tick+0x2eb8>
  803de8:	00800044 	movi	r2,1
  803dec:	e0bfa115 	stw	r2,-380(fp)
  803df0:	00000106 	br	803df8 <tick+0x2ebc>
  803df4:	e03fa115 	stw	zero,-380(fp)
  803df8:	e0ffa117 	ldw	r3,-380(fp)
  803dfc:	1805883a 	mov	r2,r3
  803e00:	d0a74f45 	stb	r2,-25283(gp)
      g139_e1_fix_fix =(g91||g119||g7||g31||g46||g84||g100||g128||g9||g102||g130||g49||g57||g12||g51);
  803e04:	d0a72f03 	ldbu	r2,-25412(gp)
  803e08:	10803fcc 	andi	r2,r2,255
  803e0c:	1080201c 	xori	r2,r2,128
  803e10:	10bfe004 	addi	r2,r2,-128
  803e14:	1004c03a 	cmpne	r2,r2,zero
  803e18:	1000541e 	bne	r2,zero,803f6c <tick+0x3030>
  803e1c:	d0a75c03 	ldbu	r2,-25232(gp)
  803e20:	10803fcc 	andi	r2,r2,255
  803e24:	1080201c 	xori	r2,r2,128
  803e28:	10bfe004 	addi	r2,r2,-128
  803e2c:	1004c03a 	cmpne	r2,r2,zero
  803e30:	10004e1e 	bne	r2,zero,803f6c <tick+0x3030>
  803e34:	d0a74d83 	ldbu	r2,-25290(gp)
  803e38:	10803fcc 	andi	r2,r2,255
  803e3c:	1080201c 	xori	r2,r2,128
  803e40:	10bfe004 	addi	r2,r2,-128
  803e44:	1004c03a 	cmpne	r2,r2,zero
  803e48:	1000481e 	bne	r2,zero,803f6c <tick+0x3030>
  803e4c:	d0a74083 	ldbu	r2,-25342(gp)
  803e50:	10803fcc 	andi	r2,r2,255
  803e54:	1080201c 	xori	r2,r2,128
  803e58:	10bfe004 	addi	r2,r2,-128
  803e5c:	1004c03a 	cmpne	r2,r2,zero
  803e60:	1000421e 	bne	r2,zero,803f6c <tick+0x3030>
  803e64:	d0a75e03 	ldbu	r2,-25224(gp)
  803e68:	10803fcc 	andi	r2,r2,255
  803e6c:	1080201c 	xori	r2,r2,128
  803e70:	10bfe004 	addi	r2,r2,-128
  803e74:	1004c03a 	cmpne	r2,r2,zero
  803e78:	10003c1e 	bne	r2,zero,803f6c <tick+0x3030>
  803e7c:	d0a74183 	ldbu	r2,-25338(gp)
  803e80:	10803fcc 	andi	r2,r2,255
  803e84:	1080201c 	xori	r2,r2,128
  803e88:	10bfe004 	addi	r2,r2,-128
  803e8c:	1004c03a 	cmpne	r2,r2,zero
  803e90:	1000361e 	bne	r2,zero,803f6c <tick+0x3030>
  803e94:	d0a75043 	ldbu	r2,-25279(gp)
  803e98:	10803fcc 	andi	r2,r2,255
  803e9c:	1080201c 	xori	r2,r2,128
  803ea0:	10bfe004 	addi	r2,r2,-128
  803ea4:	1004c03a 	cmpne	r2,r2,zero
  803ea8:	1000301e 	bne	r2,zero,803f6c <tick+0x3030>
  803eac:	d0a74f83 	ldbu	r2,-25282(gp)
  803eb0:	10803fcc 	andi	r2,r2,255
  803eb4:	1080201c 	xori	r2,r2,128
  803eb8:	10bfe004 	addi	r2,r2,-128
  803ebc:	1004c03a 	cmpne	r2,r2,zero
  803ec0:	10002a1e 	bne	r2,zero,803f6c <tick+0x3030>
  803ec4:	d0a73583 	ldbu	r2,-25386(gp)
  803ec8:	10803fcc 	andi	r2,r2,255
  803ecc:	1080201c 	xori	r2,r2,128
  803ed0:	10bfe004 	addi	r2,r2,-128
  803ed4:	1004c03a 	cmpne	r2,r2,zero
  803ed8:	1000241e 	bne	r2,zero,803f6c <tick+0x3030>
  803edc:	d0a73883 	ldbu	r2,-25374(gp)
  803ee0:	10803fcc 	andi	r2,r2,255
  803ee4:	1080201c 	xori	r2,r2,128
  803ee8:	10bfe004 	addi	r2,r2,-128
  803eec:	1004c03a 	cmpne	r2,r2,zero
  803ef0:	10001e1e 	bne	r2,zero,803f6c <tick+0x3030>
  803ef4:	d0a77243 	ldbu	r2,-25143(gp)
  803ef8:	10803fcc 	andi	r2,r2,255
  803efc:	1080201c 	xori	r2,r2,128
  803f00:	10bfe004 	addi	r2,r2,-128
  803f04:	1004c03a 	cmpne	r2,r2,zero
  803f08:	1000181e 	bne	r2,zero,803f6c <tick+0x3030>
  803f0c:	d0a74d03 	ldbu	r2,-25292(gp)
  803f10:	10803fcc 	andi	r2,r2,255
  803f14:	1080201c 	xori	r2,r2,128
  803f18:	10bfe004 	addi	r2,r2,-128
  803f1c:	1004c03a 	cmpne	r2,r2,zero
  803f20:	1000121e 	bne	r2,zero,803f6c <tick+0x3030>
  803f24:	d0a76303 	ldbu	r2,-25204(gp)
  803f28:	10803fcc 	andi	r2,r2,255
  803f2c:	1080201c 	xori	r2,r2,128
  803f30:	10bfe004 	addi	r2,r2,-128
  803f34:	1004c03a 	cmpne	r2,r2,zero
  803f38:	10000c1e 	bne	r2,zero,803f6c <tick+0x3030>
  803f3c:	d0a73e43 	ldbu	r2,-25351(gp)
  803f40:	10803fcc 	andi	r2,r2,255
  803f44:	1080201c 	xori	r2,r2,128
  803f48:	10bfe004 	addi	r2,r2,-128
  803f4c:	1004c03a 	cmpne	r2,r2,zero
  803f50:	1000061e 	bne	r2,zero,803f6c <tick+0x3030>
  803f54:	d0a75f83 	ldbu	r2,-25218(gp)
  803f58:	10803fcc 	andi	r2,r2,255
  803f5c:	1080201c 	xori	r2,r2,128
  803f60:	10bfe004 	addi	r2,r2,-128
  803f64:	1005003a 	cmpeq	r2,r2,zero
  803f68:	1000031e 	bne	r2,zero,803f78 <tick+0x303c>
  803f6c:	00800044 	movi	r2,1
  803f70:	e0bfa015 	stw	r2,-384(fp)
  803f74:	00000106 	br	803f7c <tick+0x3040>
  803f78:	e03fa015 	stw	zero,-384(fp)
  803f7c:	e0ffa017 	ldw	r3,-384(fp)
  803f80:	1805883a 	mov	r2,r3
  803f84:	d0a73305 	stb	r2,-25396(gp)
      g139_e1_fix =(g89||g97||g117||g125||g22||g38||g68||g76||g105||g139_e1_fix_fix);
  803f88:	d0a75dc3 	ldbu	r2,-25225(gp)
  803f8c:	10803fcc 	andi	r2,r2,255
  803f90:	1080201c 	xori	r2,r2,128
  803f94:	10bfe004 	addi	r2,r2,-128
  803f98:	1004c03a 	cmpne	r2,r2,zero
  803f9c:	1000361e 	bne	r2,zero,804078 <tick+0x313c>
  803fa0:	d0a73e83 	ldbu	r2,-25350(gp)
  803fa4:	10803fcc 	andi	r2,r2,255
  803fa8:	1080201c 	xori	r2,r2,128
  803fac:	10bfe004 	addi	r2,r2,-128
  803fb0:	1004c03a 	cmpne	r2,r2,zero
  803fb4:	1000301e 	bne	r2,zero,804078 <tick+0x313c>
  803fb8:	d0a74843 	ldbu	r2,-25311(gp)
  803fbc:	10803fcc 	andi	r2,r2,255
  803fc0:	1080201c 	xori	r2,r2,128
  803fc4:	10bfe004 	addi	r2,r2,-128
  803fc8:	1004c03a 	cmpne	r2,r2,zero
  803fcc:	10002a1e 	bne	r2,zero,804078 <tick+0x313c>
  803fd0:	d0a76ec3 	ldbu	r2,-25157(gp)
  803fd4:	10803fcc 	andi	r2,r2,255
  803fd8:	1080201c 	xori	r2,r2,128
  803fdc:	10bfe004 	addi	r2,r2,-128
  803fe0:	1004c03a 	cmpne	r2,r2,zero
  803fe4:	1000241e 	bne	r2,zero,804078 <tick+0x313c>
  803fe8:	d0a76d83 	ldbu	r2,-25162(gp)
  803fec:	10803fcc 	andi	r2,r2,255
  803ff0:	1080201c 	xori	r2,r2,128
  803ff4:	10bfe004 	addi	r2,r2,-128
  803ff8:	1004c03a 	cmpne	r2,r2,zero
  803ffc:	10001e1e 	bne	r2,zero,804078 <tick+0x313c>
  804000:	d0a746c3 	ldbu	r2,-25317(gp)
  804004:	10803fcc 	andi	r2,r2,255
  804008:	1080201c 	xori	r2,r2,128
  80400c:	10bfe004 	addi	r2,r2,-128
  804010:	1004c03a 	cmpne	r2,r2,zero
  804014:	1000181e 	bne	r2,zero,804078 <tick+0x313c>
  804018:	d0a76c43 	ldbu	r2,-25167(gp)
  80401c:	10803fcc 	andi	r2,r2,255
  804020:	1080201c 	xori	r2,r2,128
  804024:	10bfe004 	addi	r2,r2,-128
  804028:	1004c03a 	cmpne	r2,r2,zero
  80402c:	1000121e 	bne	r2,zero,804078 <tick+0x313c>
  804030:	d0a74043 	ldbu	r2,-25343(gp)
  804034:	10803fcc 	andi	r2,r2,255
  804038:	1080201c 	xori	r2,r2,128
  80403c:	10bfe004 	addi	r2,r2,-128
  804040:	1004c03a 	cmpne	r2,r2,zero
  804044:	10000c1e 	bne	r2,zero,804078 <tick+0x313c>
  804048:	d0a74703 	ldbu	r2,-25316(gp)
  80404c:	10803fcc 	andi	r2,r2,255
  804050:	1080201c 	xori	r2,r2,128
  804054:	10bfe004 	addi	r2,r2,-128
  804058:	1004c03a 	cmpne	r2,r2,zero
  80405c:	1000061e 	bne	r2,zero,804078 <tick+0x313c>
  804060:	d0a73303 	ldbu	r2,-25396(gp)
  804064:	10803fcc 	andi	r2,r2,255
  804068:	1080201c 	xori	r2,r2,128
  80406c:	10bfe004 	addi	r2,r2,-128
  804070:	1005003a 	cmpeq	r2,r2,zero
  804074:	1000031e 	bne	r2,zero,804084 <tick+0x3148>
  804078:	00800044 	movi	r2,1
  80407c:	e0bf9f15 	stw	r2,-388(fp)
  804080:	00000106 	br	804088 <tick+0x314c>
  804084:	e03f9f15 	stw	zero,-388(fp)
  804088:	e0ff9f17 	ldw	r3,-388(fp)
  80408c:	1805883a 	mov	r2,r3
  804090:	d0a761c5 	stb	r2,-25209(gp)
      g139_e1 =(!((g4||g20||g28||g36||g43||g66||g74||g81||g137||g139_e1_fix)));
  804094:	d0a73003 	ldbu	r2,-25408(gp)
  804098:	10803fcc 	andi	r2,r2,255
  80409c:	1080201c 	xori	r2,r2,128
  8040a0:	10bfe004 	addi	r2,r2,-128
  8040a4:	1004c03a 	cmpne	r2,r2,zero
  8040a8:	1000391e 	bne	r2,zero,804190 <tick+0x3254>
  8040ac:	d0a75a03 	ldbu	r2,-25240(gp)
  8040b0:	10803fcc 	andi	r2,r2,255
  8040b4:	1080201c 	xori	r2,r2,128
  8040b8:	10bfe004 	addi	r2,r2,-128
  8040bc:	1004c03a 	cmpne	r2,r2,zero
  8040c0:	1000331e 	bne	r2,zero,804190 <tick+0x3254>
  8040c4:	d0a76dc3 	ldbu	r2,-25161(gp)
  8040c8:	10803fcc 	andi	r2,r2,255
  8040cc:	1080201c 	xori	r2,r2,128
  8040d0:	10bfe004 	addi	r2,r2,-128
  8040d4:	1004c03a 	cmpne	r2,r2,zero
  8040d8:	10002d1e 	bne	r2,zero,804190 <tick+0x3254>
  8040dc:	d0a75d83 	ldbu	r2,-25226(gp)
  8040e0:	10803fcc 	andi	r2,r2,255
  8040e4:	1080201c 	xori	r2,r2,128
  8040e8:	10bfe004 	addi	r2,r2,-128
  8040ec:	1004c03a 	cmpne	r2,r2,zero
  8040f0:	1000271e 	bne	r2,zero,804190 <tick+0x3254>
  8040f4:	d0a75cc3 	ldbu	r2,-25229(gp)
  8040f8:	10803fcc 	andi	r2,r2,255
  8040fc:	1080201c 	xori	r2,r2,128
  804100:	10bfe004 	addi	r2,r2,-128
  804104:	1004c03a 	cmpne	r2,r2,zero
  804108:	1000211e 	bne	r2,zero,804190 <tick+0x3254>
  80410c:	d0a75143 	ldbu	r2,-25275(gp)
  804110:	10803fcc 	andi	r2,r2,255
  804114:	1080201c 	xori	r2,r2,128
  804118:	10bfe004 	addi	r2,r2,-128
  80411c:	1004c03a 	cmpne	r2,r2,zero
  804120:	10001b1e 	bne	r2,zero,804190 <tick+0x3254>
  804124:	d0a77a03 	ldbu	r2,-25112(gp)
  804128:	10803fcc 	andi	r2,r2,255
  80412c:	1080201c 	xori	r2,r2,128
  804130:	10bfe004 	addi	r2,r2,-128
  804134:	1004c03a 	cmpne	r2,r2,zero
  804138:	1000151e 	bne	r2,zero,804190 <tick+0x3254>
  80413c:	d0a765c3 	ldbu	r2,-25193(gp)
  804140:	10803fcc 	andi	r2,r2,255
  804144:	1080201c 	xori	r2,r2,128
  804148:	10bfe004 	addi	r2,r2,-128
  80414c:	1004c03a 	cmpne	r2,r2,zero
  804150:	10000f1e 	bne	r2,zero,804190 <tick+0x3254>
  804154:	d0a767c3 	ldbu	r2,-25185(gp)
  804158:	10803fcc 	andi	r2,r2,255
  80415c:	1080201c 	xori	r2,r2,128
  804160:	10bfe004 	addi	r2,r2,-128
  804164:	1004c03a 	cmpne	r2,r2,zero
  804168:	1000091e 	bne	r2,zero,804190 <tick+0x3254>
  80416c:	d0a761c3 	ldbu	r2,-25209(gp)
  804170:	10803fcc 	andi	r2,r2,255
  804174:	1080201c 	xori	r2,r2,128
  804178:	10bfe004 	addi	r2,r2,-128
  80417c:	1004c03a 	cmpne	r2,r2,zero
  804180:	1000031e 	bne	r2,zero,804190 <tick+0x3254>
  804184:	00800044 	movi	r2,1
  804188:	e0bf9e15 	stw	r2,-392(fp)
  80418c:	00000106 	br	804194 <tick+0x3258>
  804190:	e03f9e15 	stw	zero,-392(fp)
  804194:	e0ff9e17 	ldw	r3,-392(fp)
  804198:	1805883a 	mov	r2,r3
  80419c:	d0a76405 	stb	r2,-25200(gp)
      g143_e2 =(!(g142));
  8041a0:	d0a76c83 	ldbu	r2,-25166(gp)
  8041a4:	10803fcc 	andi	r2,r2,255
  8041a8:	1080201c 	xori	r2,r2,128
  8041ac:	10bfe004 	addi	r2,r2,-128
  8041b0:	1005003a 	cmpeq	r2,r2,zero
  8041b4:	d0a72ec5 	stb	r2,-25413(gp)
   }
   PRE_g3 = g3;
  8041b8:	d0a73343 	ldbu	r2,-25395(gp)
  8041bc:	d0a73845 	stb	r2,-25375(gp)
   PRE_g6 = g6;
  8041c0:	d0a76543 	ldbu	r2,-25195(gp)
  8041c4:	d0a754c5 	stb	r2,-25261(gp)
   PRE_g8 = g8;
  8041c8:	d0a762c3 	ldbu	r2,-25205(gp)
  8041cc:	d0a74305 	stb	r2,-25332(gp)
   PRE_g11 = g11;
  8041d0:	d0a76d03 	ldbu	r2,-25164(gp)
  8041d4:	d0a75985 	stb	r2,-25242(gp)
   PRE_g19 = g19;
  8041d8:	d0a73083 	ldbu	r2,-25406(gp)
  8041dc:	d0a75b05 	stb	r2,-25236(gp)
   PRE_g21 = g21;
  8041e0:	d0a74a43 	ldbu	r2,-25303(gp)
  8041e4:	d0a76a85 	stb	r2,-25174(gp)
   PRE_g27 = g27;
  8041e8:	d0a731c3 	ldbu	r2,-25401(gp)
  8041ec:	d0a73445 	stb	r2,-25391(gp)
   PRE_g30 = g30;
  8041f0:	d0a76a43 	ldbu	r2,-25175(gp)
  8041f4:	d0a77305 	stb	r2,-25140(gp)
   PRE_g35 = g35;
  8041f8:	d0a75783 	ldbu	r2,-25250(gp)
  8041fc:	d0a745c5 	stb	r2,-25321(gp)
   PRE_g37 = g37;
  804200:	d0a74103 	ldbu	r2,-25340(gp)
  804204:	d0a77945 	stb	r2,-25115(gp)
   PRE_g42 = g42;
  804208:	d0a73543 	ldbu	r2,-25387(gp)
  80420c:	d0a74805 	stb	r2,-25312(gp)
   PRE_g45 = g45;
  804210:	d0a77043 	ldbu	r2,-25151(gp)
  804214:	d0a77205 	stb	r2,-25144(gp)
   PRE_g48 = g48;
  804218:	d0a74583 	ldbu	r2,-25322(gp)
  80421c:	d0a76105 	stb	r2,-25212(gp)
   PRE_g50 = g50;
  804220:	d0a75f03 	ldbu	r2,-25220(gp)
  804224:	d0a744c5 	stb	r2,-25325(gp)
   PRE_g56 = g56;
  804228:	d0a753c3 	ldbu	r2,-25265(gp)
  80422c:	d0a739c5 	stb	r2,-25369(gp)
   PRE_g65 = g65;
  804230:	d0a76d43 	ldbu	r2,-25163(gp)
  804234:	d0a73b85 	stb	r2,-25362(gp)
   PRE_g67 = g67;
  804238:	d0a775c3 	ldbu	r2,-25129(gp)
  80423c:	d0a75685 	stb	r2,-25254(gp)
   PRE_g73 = g73;
  804240:	d0a76e03 	ldbu	r2,-25160(gp)
  804244:	d0a772c5 	stb	r2,-25141(gp)
   PRE_g75 = g75;
  804248:	d0a76a03 	ldbu	r2,-25176(gp)
  80424c:	d0a73a45 	stb	r2,-25367(gp)
   PRE_g80 = g80;
  804250:	d0a74ec3 	ldbu	r2,-25285(gp)
  804254:	d0a74f05 	stb	r2,-25284(gp)
   PRE_g83 = g83;
  804258:	d0a72e83 	ldbu	r2,-25414(gp)
  80425c:	d0a756c5 	stb	r2,-25253(gp)
   PRE_g88 = g88;
  804260:	d0a77003 	ldbu	r2,-25152(gp)
  804264:	d0a75d05 	stb	r2,-25228(gp)
   PRE_g90 = g90;
  804268:	d0a75843 	ldbu	r2,-25247(gp)
  80426c:	d0a73245 	stb	r2,-25399(gp)
   PRE_g96 = g96;
  804270:	d0a75f43 	ldbu	r2,-25219(gp)
  804274:	d0a75645 	stb	r2,-25255(gp)
   PRE_g99 = g99;
  804278:	d0a750c3 	ldbu	r2,-25277(gp)
  80427c:	d0a76785 	stb	r2,-25186(gp)
   PRE_g101 = g101;
  804280:	d0a752c3 	ldbu	r2,-25269(gp)
  804284:	d0a74e85 	stb	r2,-25286(gp)
   PRE_g104 = g104;
  804288:	d0a76183 	ldbu	r2,-25210(gp)
  80428c:	d0a74505 	stb	r2,-25324(gp)
   PRE_g116 = g116;
  804290:	d0a76503 	ldbu	r2,-25196(gp)
  804294:	d0a74785 	stb	r2,-25314(gp)
   PRE_g118 = g118;
  804298:	d0a74283 	ldbu	r2,-25334(gp)
  80429c:	d0a73d85 	stb	r2,-25354(gp)
   PRE_g124 = g124;
  8042a0:	d0a76683 	ldbu	r2,-25190(gp)
  8042a4:	d0a74445 	stb	r2,-25327(gp)
   PRE_g127 = g127;
  8042a8:	d0a735c3 	ldbu	r2,-25385(gp)
  8042ac:	d0a77105 	stb	r2,-25148(gp)
   PRE_g129 = g129;
  8042b0:	d0a75403 	ldbu	r2,-25264(gp)
  8042b4:	d0a760c5 	stb	r2,-25213(gp)
   PRE_g136 = g136;
  8042b8:	d0a74fc3 	ldbu	r2,-25281(gp)
  8042bc:	d0a74385 	stb	r2,-25330(gp)
   PRE_g141 = g141;
  8042c0:	d0a76483 	ldbu	r2,-25198(gp)
  8042c4:	d0a73d05 	stb	r2,-25356(gp)
   _PRE_GO = _GO;
  8042c8:	d0a75883 	ldbu	r2,-25246(gp)
  8042cc:	10803fcc 	andi	r2,r2,255
  8042d0:	1080201c 	xori	r2,r2,128
  8042d4:	10bfe004 	addi	r2,r2,-128
  8042d8:	d0a73715 	stw	r2,-25380(gp)
   return;
}
  8042dc:	e037883a 	mov	sp,fp
  8042e0:	df000017 	ldw	fp,0(sp)
  8042e4:	dec00104 	addi	sp,sp,4
  8042e8:	f800283a 	ret

008042ec <_puts_r>:
  8042ec:	defff604 	addi	sp,sp,-40
  8042f0:	dc400715 	stw	r17,28(sp)
  8042f4:	2023883a 	mov	r17,r4
  8042f8:	2809883a 	mov	r4,r5
  8042fc:	dfc00915 	stw	ra,36(sp)
  804300:	dcc00815 	stw	r19,32(sp)
  804304:	2827883a 	mov	r19,r5
  804308:	08043a00 	call	8043a0 <strlen>
  80430c:	89400217 	ldw	r5,8(r17)
  804310:	00c02074 	movhi	r3,129
  804314:	18ed6e04 	addi	r3,r3,-19016
  804318:	01c00044 	movi	r7,1
  80431c:	12000044 	addi	r8,r2,1
  804320:	d8c00515 	stw	r3,20(sp)
  804324:	d9c00615 	stw	r7,24(sp)
  804328:	d8c00304 	addi	r3,sp,12
  80432c:	01c00084 	movi	r7,2
  804330:	8809883a 	mov	r4,r17
  804334:	d80d883a 	mov	r6,sp
  804338:	d8c00015 	stw	r3,0(sp)
  80433c:	dcc00315 	stw	r19,12(sp)
  804340:	da000215 	stw	r8,8(sp)
  804344:	d9c00115 	stw	r7,4(sp)
  804348:	d8800415 	stw	r2,16(sp)
  80434c:	08044140 	call	804414 <__sfvwrite_r>
  804350:	00ffffc4 	movi	r3,-1
  804354:	10000626 	beq	r2,zero,804370 <_puts_r+0x84>
  804358:	1805883a 	mov	r2,r3
  80435c:	dfc00917 	ldw	ra,36(sp)
  804360:	dcc00817 	ldw	r19,32(sp)
  804364:	dc400717 	ldw	r17,28(sp)
  804368:	dec00a04 	addi	sp,sp,40
  80436c:	f800283a 	ret
  804370:	00c00284 	movi	r3,10
  804374:	1805883a 	mov	r2,r3
  804378:	dfc00917 	ldw	ra,36(sp)
  80437c:	dcc00817 	ldw	r19,32(sp)
  804380:	dc400717 	ldw	r17,28(sp)
  804384:	dec00a04 	addi	sp,sp,40
  804388:	f800283a 	ret

0080438c <puts>:
  80438c:	00802074 	movhi	r2,129
  804390:	10b52004 	addi	r2,r2,-11136
  804394:	200b883a 	mov	r5,r4
  804398:	11000017 	ldw	r4,0(r2)
  80439c:	08042ec1 	jmpi	8042ec <_puts_r>

008043a0 <strlen>:
  8043a0:	208000cc 	andi	r2,r4,3
  8043a4:	2011883a 	mov	r8,r4
  8043a8:	1000161e 	bne	r2,zero,804404 <strlen+0x64>
  8043ac:	20c00017 	ldw	r3,0(r4)
  8043b0:	017fbff4 	movhi	r5,65279
  8043b4:	297fbfc4 	addi	r5,r5,-257
  8043b8:	01e02074 	movhi	r7,32897
  8043bc:	39e02004 	addi	r7,r7,-32640
  8043c0:	1945883a 	add	r2,r3,r5
  8043c4:	11c4703a 	and	r2,r2,r7
  8043c8:	00c6303a 	nor	r3,zero,r3
  8043cc:	1886703a 	and	r3,r3,r2
  8043d0:	18000c1e 	bne	r3,zero,804404 <strlen+0x64>
  8043d4:	280d883a 	mov	r6,r5
  8043d8:	380b883a 	mov	r5,r7
  8043dc:	21000104 	addi	r4,r4,4
  8043e0:	20800017 	ldw	r2,0(r4)
  8043e4:	1187883a 	add	r3,r2,r6
  8043e8:	1946703a 	and	r3,r3,r5
  8043ec:	0084303a 	nor	r2,zero,r2
  8043f0:	10c4703a 	and	r2,r2,r3
  8043f4:	103ff926 	beq	r2,zero,8043dc <strlen+0x3c>
  8043f8:	20800007 	ldb	r2,0(r4)
  8043fc:	10000326 	beq	r2,zero,80440c <strlen+0x6c>
  804400:	21000044 	addi	r4,r4,1
  804404:	20800007 	ldb	r2,0(r4)
  804408:	103ffd1e 	bne	r2,zero,804400 <strlen+0x60>
  80440c:	2205c83a 	sub	r2,r4,r8
  804410:	f800283a 	ret

00804414 <__sfvwrite_r>:
  804414:	30800217 	ldw	r2,8(r6)
  804418:	defff504 	addi	sp,sp,-44
  80441c:	df000915 	stw	fp,36(sp)
  804420:	dd800715 	stw	r22,28(sp)
  804424:	dc800315 	stw	r18,12(sp)
  804428:	dfc00a15 	stw	ra,40(sp)
  80442c:	ddc00815 	stw	r23,32(sp)
  804430:	dd400615 	stw	r21,24(sp)
  804434:	dd000515 	stw	r20,20(sp)
  804438:	dcc00415 	stw	r19,16(sp)
  80443c:	dc400215 	stw	r17,8(sp)
  804440:	dc000115 	stw	r16,4(sp)
  804444:	302d883a 	mov	r22,r6
  804448:	2039883a 	mov	fp,r4
  80444c:	2825883a 	mov	r18,r5
  804450:	10001c26 	beq	r2,zero,8044c4 <__sfvwrite_r+0xb0>
  804454:	29c0030b 	ldhu	r7,12(r5)
  804458:	3880020c 	andi	r2,r7,8
  80445c:	10002726 	beq	r2,zero,8044fc <__sfvwrite_r+0xe8>
  804460:	28800417 	ldw	r2,16(r5)
  804464:	10002526 	beq	r2,zero,8044fc <__sfvwrite_r+0xe8>
  804468:	3880008c 	andi	r2,r7,2
  80446c:	b5400017 	ldw	r21,0(r22)
  804470:	10002826 	beq	r2,zero,804514 <__sfvwrite_r+0x100>
  804474:	0021883a 	mov	r16,zero
  804478:	0023883a 	mov	r17,zero
  80447c:	880d883a 	mov	r6,r17
  804480:	e009883a 	mov	r4,fp
  804484:	00810004 	movi	r2,1024
  804488:	80006e26 	beq	r16,zero,804644 <__sfvwrite_r+0x230>
  80448c:	800f883a 	mov	r7,r16
  804490:	91400717 	ldw	r5,28(r18)
  804494:	1400012e 	bgeu	r2,r16,80449c <__sfvwrite_r+0x88>
  804498:	100f883a 	mov	r7,r2
  80449c:	90c00917 	ldw	r3,36(r18)
  8044a0:	183ee83a 	callr	r3
  8044a4:	1007883a 	mov	r3,r2
  8044a8:	80a1c83a 	sub	r16,r16,r2
  8044ac:	88a3883a 	add	r17,r17,r2
  8044b0:	00806d0e 	bge	zero,r2,804668 <__sfvwrite_r+0x254>
  8044b4:	b0800217 	ldw	r2,8(r22)
  8044b8:	10c5c83a 	sub	r2,r2,r3
  8044bc:	b0800215 	stw	r2,8(r22)
  8044c0:	103fee1e 	bne	r2,zero,80447c <__sfvwrite_r+0x68>
  8044c4:	0009883a 	mov	r4,zero
  8044c8:	2005883a 	mov	r2,r4
  8044cc:	dfc00a17 	ldw	ra,40(sp)
  8044d0:	df000917 	ldw	fp,36(sp)
  8044d4:	ddc00817 	ldw	r23,32(sp)
  8044d8:	dd800717 	ldw	r22,28(sp)
  8044dc:	dd400617 	ldw	r21,24(sp)
  8044e0:	dd000517 	ldw	r20,20(sp)
  8044e4:	dcc00417 	ldw	r19,16(sp)
  8044e8:	dc800317 	ldw	r18,12(sp)
  8044ec:	dc400217 	ldw	r17,8(sp)
  8044f0:	dc000117 	ldw	r16,4(sp)
  8044f4:	dec00b04 	addi	sp,sp,44
  8044f8:	f800283a 	ret
  8044fc:	08058b80 	call	8058b8 <__swsetup_r>
  804500:	1000e41e 	bne	r2,zero,804894 <__sfvwrite_r+0x480>
  804504:	91c0030b 	ldhu	r7,12(r18)
  804508:	b5400017 	ldw	r21,0(r22)
  80450c:	3880008c 	andi	r2,r7,2
  804510:	103fd81e 	bne	r2,zero,804474 <__sfvwrite_r+0x60>
  804514:	3880004c 	andi	r2,r7,1
  804518:	1005003a 	cmpeq	r2,r2,zero
  80451c:	10005726 	beq	r2,zero,80467c <__sfvwrite_r+0x268>
  804520:	0029883a 	mov	r20,zero
  804524:	002f883a 	mov	r23,zero
  804528:	a0004226 	beq	r20,zero,804634 <__sfvwrite_r+0x220>
  80452c:	3880800c 	andi	r2,r7,512
  804530:	94000217 	ldw	r16,8(r18)
  804534:	10008b26 	beq	r2,zero,804764 <__sfvwrite_r+0x350>
  804538:	800d883a 	mov	r6,r16
  80453c:	a400a536 	bltu	r20,r16,8047d4 <__sfvwrite_r+0x3c0>
  804540:	3881200c 	andi	r2,r7,1152
  804544:	10002726 	beq	r2,zero,8045e4 <__sfvwrite_r+0x1d0>
  804548:	90800517 	ldw	r2,20(r18)
  80454c:	92000417 	ldw	r8,16(r18)
  804550:	91400017 	ldw	r5,0(r18)
  804554:	1087883a 	add	r3,r2,r2
  804558:	1887883a 	add	r3,r3,r2
  80455c:	1808d7fa 	srli	r4,r3,31
  804560:	2a21c83a 	sub	r16,r5,r8
  804564:	80800044 	addi	r2,r16,1
  804568:	20c9883a 	add	r4,r4,r3
  80456c:	2027d07a 	srai	r19,r4,1
  804570:	a085883a 	add	r2,r20,r2
  804574:	980d883a 	mov	r6,r19
  804578:	9880022e 	bgeu	r19,r2,804584 <__sfvwrite_r+0x170>
  80457c:	1027883a 	mov	r19,r2
  804580:	100d883a 	mov	r6,r2
  804584:	3881000c 	andi	r2,r7,1024
  804588:	1000b826 	beq	r2,zero,80486c <__sfvwrite_r+0x458>
  80458c:	300b883a 	mov	r5,r6
  804590:	e009883a 	mov	r4,fp
  804594:	08048b00 	call	8048b0 <_malloc_r>
  804598:	10003126 	beq	r2,zero,804660 <__sfvwrite_r+0x24c>
  80459c:	91400417 	ldw	r5,16(r18)
  8045a0:	1009883a 	mov	r4,r2
  8045a4:	800d883a 	mov	r6,r16
  8045a8:	1023883a 	mov	r17,r2
  8045ac:	08050d40 	call	8050d4 <memcpy>
  8045b0:	90c0030b 	ldhu	r3,12(r18)
  8045b4:	00beffc4 	movi	r2,-1025
  8045b8:	1886703a 	and	r3,r3,r2
  8045bc:	18c02014 	ori	r3,r3,128
  8045c0:	90c0030d 	sth	r3,12(r18)
  8045c4:	9c07c83a 	sub	r3,r19,r16
  8045c8:	8c05883a 	add	r2,r17,r16
  8045cc:	a00d883a 	mov	r6,r20
  8045d0:	a021883a 	mov	r16,r20
  8045d4:	90800015 	stw	r2,0(r18)
  8045d8:	90c00215 	stw	r3,8(r18)
  8045dc:	94400415 	stw	r17,16(r18)
  8045e0:	94c00515 	stw	r19,20(r18)
  8045e4:	91000017 	ldw	r4,0(r18)
  8045e8:	b80b883a 	mov	r5,r23
  8045ec:	a023883a 	mov	r17,r20
  8045f0:	08051740 	call	805174 <memmove>
  8045f4:	90c00217 	ldw	r3,8(r18)
  8045f8:	90800017 	ldw	r2,0(r18)
  8045fc:	a027883a 	mov	r19,r20
  804600:	1c07c83a 	sub	r3,r3,r16
  804604:	1405883a 	add	r2,r2,r16
  804608:	90c00215 	stw	r3,8(r18)
  80460c:	a021883a 	mov	r16,r20
  804610:	90800015 	stw	r2,0(r18)
  804614:	b0800217 	ldw	r2,8(r22)
  804618:	1405c83a 	sub	r2,r2,r16
  80461c:	b0800215 	stw	r2,8(r22)
  804620:	103fa826 	beq	r2,zero,8044c4 <__sfvwrite_r+0xb0>
  804624:	a469c83a 	sub	r20,r20,r17
  804628:	91c0030b 	ldhu	r7,12(r18)
  80462c:	bcef883a 	add	r23,r23,r19
  804630:	a03fbe1e 	bne	r20,zero,80452c <__sfvwrite_r+0x118>
  804634:	adc00017 	ldw	r23,0(r21)
  804638:	ad000117 	ldw	r20,4(r21)
  80463c:	ad400204 	addi	r21,r21,8
  804640:	003fb906 	br	804528 <__sfvwrite_r+0x114>
  804644:	ac400017 	ldw	r17,0(r21)
  804648:	ac000117 	ldw	r16,4(r21)
  80464c:	ad400204 	addi	r21,r21,8
  804650:	003f8a06 	br	80447c <__sfvwrite_r+0x68>
  804654:	91400417 	ldw	r5,16(r18)
  804658:	e009883a 	mov	r4,fp
  80465c:	08060100 	call	806010 <_free_r>
  804660:	00800304 	movi	r2,12
  804664:	e0800015 	stw	r2,0(fp)
  804668:	9080030b 	ldhu	r2,12(r18)
  80466c:	013fffc4 	movi	r4,-1
  804670:	10801014 	ori	r2,r2,64
  804674:	9080030d 	sth	r2,12(r18)
  804678:	003f9306 	br	8044c8 <__sfvwrite_r+0xb4>
  80467c:	0027883a 	mov	r19,zero
  804680:	002f883a 	mov	r23,zero
  804684:	d8000015 	stw	zero,0(sp)
  804688:	0029883a 	mov	r20,zero
  80468c:	98001e26 	beq	r19,zero,804708 <__sfvwrite_r+0x2f4>
  804690:	d8c00017 	ldw	r3,0(sp)
  804694:	1804c03a 	cmpne	r2,r3,zero
  804698:	10005e26 	beq	r2,zero,804814 <__sfvwrite_r+0x400>
  80469c:	9821883a 	mov	r16,r19
  8046a0:	a4c0012e 	bgeu	r20,r19,8046a8 <__sfvwrite_r+0x294>
  8046a4:	a021883a 	mov	r16,r20
  8046a8:	91000017 	ldw	r4,0(r18)
  8046ac:	90800417 	ldw	r2,16(r18)
  8046b0:	91800217 	ldw	r6,8(r18)
  8046b4:	91c00517 	ldw	r7,20(r18)
  8046b8:	1100022e 	bgeu	r2,r4,8046c4 <__sfvwrite_r+0x2b0>
  8046bc:	31e3883a 	add	r17,r6,r7
  8046c0:	8c001616 	blt	r17,r16,80471c <__sfvwrite_r+0x308>
  8046c4:	81c03816 	blt	r16,r7,8047a8 <__sfvwrite_r+0x394>
  8046c8:	90c00917 	ldw	r3,36(r18)
  8046cc:	91400717 	ldw	r5,28(r18)
  8046d0:	e009883a 	mov	r4,fp
  8046d4:	b80d883a 	mov	r6,r23
  8046d8:	183ee83a 	callr	r3
  8046dc:	1023883a 	mov	r17,r2
  8046e0:	00bfe10e 	bge	zero,r2,804668 <__sfvwrite_r+0x254>
  8046e4:	a469c83a 	sub	r20,r20,r17
  8046e8:	a0001826 	beq	r20,zero,80474c <__sfvwrite_r+0x338>
  8046ec:	b0800217 	ldw	r2,8(r22)
  8046f0:	1445c83a 	sub	r2,r2,r17
  8046f4:	b0800215 	stw	r2,8(r22)
  8046f8:	103f7226 	beq	r2,zero,8044c4 <__sfvwrite_r+0xb0>
  8046fc:	9c67c83a 	sub	r19,r19,r17
  804700:	bc6f883a 	add	r23,r23,r17
  804704:	983fe21e 	bne	r19,zero,804690 <__sfvwrite_r+0x27c>
  804708:	adc00017 	ldw	r23,0(r21)
  80470c:	acc00117 	ldw	r19,4(r21)
  804710:	ad400204 	addi	r21,r21,8
  804714:	d8000015 	stw	zero,0(sp)
  804718:	003fdc06 	br	80468c <__sfvwrite_r+0x278>
  80471c:	b80b883a 	mov	r5,r23
  804720:	880d883a 	mov	r6,r17
  804724:	08051740 	call	805174 <memmove>
  804728:	90c00017 	ldw	r3,0(r18)
  80472c:	e009883a 	mov	r4,fp
  804730:	900b883a 	mov	r5,r18
  804734:	1c47883a 	add	r3,r3,r17
  804738:	90c00015 	stw	r3,0(r18)
  80473c:	08059f40 	call	8059f4 <_fflush_r>
  804740:	103fc91e 	bne	r2,zero,804668 <__sfvwrite_r+0x254>
  804744:	a469c83a 	sub	r20,r20,r17
  804748:	a03fe81e 	bne	r20,zero,8046ec <__sfvwrite_r+0x2d8>
  80474c:	e009883a 	mov	r4,fp
  804750:	900b883a 	mov	r5,r18
  804754:	08059f40 	call	8059f4 <_fflush_r>
  804758:	103fc31e 	bne	r2,zero,804668 <__sfvwrite_r+0x254>
  80475c:	d8000015 	stw	zero,0(sp)
  804760:	003fe206 	br	8046ec <__sfvwrite_r+0x2d8>
  804764:	91000017 	ldw	r4,0(r18)
  804768:	90800417 	ldw	r2,16(r18)
  80476c:	1100022e 	bgeu	r2,r4,804778 <__sfvwrite_r+0x364>
  804770:	8023883a 	mov	r17,r16
  804774:	85003136 	bltu	r16,r20,80483c <__sfvwrite_r+0x428>
  804778:	91c00517 	ldw	r7,20(r18)
  80477c:	a1c01836 	bltu	r20,r7,8047e0 <__sfvwrite_r+0x3cc>
  804780:	90c00917 	ldw	r3,36(r18)
  804784:	91400717 	ldw	r5,28(r18)
  804788:	e009883a 	mov	r4,fp
  80478c:	b80d883a 	mov	r6,r23
  804790:	183ee83a 	callr	r3
  804794:	1021883a 	mov	r16,r2
  804798:	00bfb30e 	bge	zero,r2,804668 <__sfvwrite_r+0x254>
  80479c:	1023883a 	mov	r17,r2
  8047a0:	1027883a 	mov	r19,r2
  8047a4:	003f9b06 	br	804614 <__sfvwrite_r+0x200>
  8047a8:	b80b883a 	mov	r5,r23
  8047ac:	800d883a 	mov	r6,r16
  8047b0:	08051740 	call	805174 <memmove>
  8047b4:	90c00217 	ldw	r3,8(r18)
  8047b8:	90800017 	ldw	r2,0(r18)
  8047bc:	8023883a 	mov	r17,r16
  8047c0:	1c07c83a 	sub	r3,r3,r16
  8047c4:	1405883a 	add	r2,r2,r16
  8047c8:	90c00215 	stw	r3,8(r18)
  8047cc:	90800015 	stw	r2,0(r18)
  8047d0:	003fc406 	br	8046e4 <__sfvwrite_r+0x2d0>
  8047d4:	a00d883a 	mov	r6,r20
  8047d8:	a021883a 	mov	r16,r20
  8047dc:	003f8106 	br	8045e4 <__sfvwrite_r+0x1d0>
  8047e0:	b80b883a 	mov	r5,r23
  8047e4:	a00d883a 	mov	r6,r20
  8047e8:	08051740 	call	805174 <memmove>
  8047ec:	90c00217 	ldw	r3,8(r18)
  8047f0:	90800017 	ldw	r2,0(r18)
  8047f4:	a021883a 	mov	r16,r20
  8047f8:	1d07c83a 	sub	r3,r3,r20
  8047fc:	1505883a 	add	r2,r2,r20
  804800:	a023883a 	mov	r17,r20
  804804:	a027883a 	mov	r19,r20
  804808:	90c00215 	stw	r3,8(r18)
  80480c:	90800015 	stw	r2,0(r18)
  804810:	003f8006 	br	804614 <__sfvwrite_r+0x200>
  804814:	b809883a 	mov	r4,r23
  804818:	01400284 	movi	r5,10
  80481c:	980d883a 	mov	r6,r19
  804820:	0804ff00 	call	804ff0 <memchr>
  804824:	10001726 	beq	r2,zero,804884 <__sfvwrite_r+0x470>
  804828:	15c5c83a 	sub	r2,r2,r23
  80482c:	15000044 	addi	r20,r2,1
  804830:	00800044 	movi	r2,1
  804834:	d8800015 	stw	r2,0(sp)
  804838:	003f9806 	br	80469c <__sfvwrite_r+0x288>
  80483c:	b80b883a 	mov	r5,r23
  804840:	800d883a 	mov	r6,r16
  804844:	08051740 	call	805174 <memmove>
  804848:	90c00017 	ldw	r3,0(r18)
  80484c:	e009883a 	mov	r4,fp
  804850:	900b883a 	mov	r5,r18
  804854:	1c07883a 	add	r3,r3,r16
  804858:	90c00015 	stw	r3,0(r18)
  80485c:	8027883a 	mov	r19,r16
  804860:	08059f40 	call	8059f4 <_fflush_r>
  804864:	103f6b26 	beq	r2,zero,804614 <__sfvwrite_r+0x200>
  804868:	003f7f06 	br	804668 <__sfvwrite_r+0x254>
  80486c:	400b883a 	mov	r5,r8
  804870:	e009883a 	mov	r4,fp
  804874:	08052540 	call	805254 <_realloc_r>
  804878:	103f7626 	beq	r2,zero,804654 <__sfvwrite_r+0x240>
  80487c:	1023883a 	mov	r17,r2
  804880:	003f5006 	br	8045c4 <__sfvwrite_r+0x1b0>
  804884:	00c00044 	movi	r3,1
  804888:	9d000044 	addi	r20,r19,1
  80488c:	d8c00015 	stw	r3,0(sp)
  804890:	003f8206 	br	80469c <__sfvwrite_r+0x288>
  804894:	9080030b 	ldhu	r2,12(r18)
  804898:	00c00244 	movi	r3,9
  80489c:	013fffc4 	movi	r4,-1
  8048a0:	10801014 	ori	r2,r2,64
  8048a4:	9080030d 	sth	r2,12(r18)
  8048a8:	e0c00015 	stw	r3,0(fp)
  8048ac:	003f0606 	br	8044c8 <__sfvwrite_r+0xb4>

008048b0 <_malloc_r>:
  8048b0:	defff604 	addi	sp,sp,-40
  8048b4:	28c002c4 	addi	r3,r5,11
  8048b8:	00800584 	movi	r2,22
  8048bc:	dc800215 	stw	r18,8(sp)
  8048c0:	dfc00915 	stw	ra,36(sp)
  8048c4:	df000815 	stw	fp,32(sp)
  8048c8:	ddc00715 	stw	r23,28(sp)
  8048cc:	dd800615 	stw	r22,24(sp)
  8048d0:	dd400515 	stw	r21,20(sp)
  8048d4:	dd000415 	stw	r20,16(sp)
  8048d8:	dcc00315 	stw	r19,12(sp)
  8048dc:	dc400115 	stw	r17,4(sp)
  8048e0:	dc000015 	stw	r16,0(sp)
  8048e4:	2025883a 	mov	r18,r4
  8048e8:	10c01236 	bltu	r2,r3,804934 <_malloc_r+0x84>
  8048ec:	04400404 	movi	r17,16
  8048f0:	8940142e 	bgeu	r17,r5,804944 <_malloc_r+0x94>
  8048f4:	00800304 	movi	r2,12
  8048f8:	0007883a 	mov	r3,zero
  8048fc:	90800015 	stw	r2,0(r18)
  804900:	1805883a 	mov	r2,r3
  804904:	dfc00917 	ldw	ra,36(sp)
  804908:	df000817 	ldw	fp,32(sp)
  80490c:	ddc00717 	ldw	r23,28(sp)
  804910:	dd800617 	ldw	r22,24(sp)
  804914:	dd400517 	ldw	r21,20(sp)
  804918:	dd000417 	ldw	r20,16(sp)
  80491c:	dcc00317 	ldw	r19,12(sp)
  804920:	dc800217 	ldw	r18,8(sp)
  804924:	dc400117 	ldw	r17,4(sp)
  804928:	dc000017 	ldw	r16,0(sp)
  80492c:	dec00a04 	addi	sp,sp,40
  804930:	f800283a 	ret
  804934:	00bffe04 	movi	r2,-8
  804938:	18a2703a 	and	r17,r3,r2
  80493c:	883fed16 	blt	r17,zero,8048f4 <_malloc_r+0x44>
  804940:	897fec36 	bltu	r17,r5,8048f4 <_malloc_r+0x44>
  804944:	9009883a 	mov	r4,r18
  804948:	08075940 	call	807594 <__malloc_lock>
  80494c:	00807dc4 	movi	r2,503
  804950:	14402b2e 	bgeu	r2,r17,804a00 <_malloc_r+0x150>
  804954:	8806d27a 	srli	r3,r17,9
  804958:	18003f1e 	bne	r3,zero,804a58 <_malloc_r+0x1a8>
  80495c:	880cd0fa 	srli	r6,r17,3
  804960:	300490fa 	slli	r2,r6,3
  804964:	02c02074 	movhi	r11,129
  804968:	5aef2204 	addi	r11,r11,-17272
  80496c:	12cb883a 	add	r5,r2,r11
  804970:	2c000317 	ldw	r16,12(r5)
  804974:	580f883a 	mov	r7,r11
  804978:	2c00041e 	bne	r5,r16,80498c <_malloc_r+0xdc>
  80497c:	00000a06 	br	8049a8 <_malloc_r+0xf8>
  804980:	1800860e 	bge	r3,zero,804b9c <_malloc_r+0x2ec>
  804984:	84000317 	ldw	r16,12(r16)
  804988:	2c000726 	beq	r5,r16,8049a8 <_malloc_r+0xf8>
  80498c:	80800117 	ldw	r2,4(r16)
  804990:	00ffff04 	movi	r3,-4
  804994:	10c8703a 	and	r4,r2,r3
  804998:	2447c83a 	sub	r3,r4,r17
  80499c:	008003c4 	movi	r2,15
  8049a0:	10fff70e 	bge	r2,r3,804980 <_malloc_r+0xd0>
  8049a4:	31bfffc4 	addi	r6,r6,-1
  8049a8:	32400044 	addi	r9,r6,1
  8049ac:	02802074 	movhi	r10,129
  8049b0:	52af2404 	addi	r10,r10,-17264
  8049b4:	54000217 	ldw	r16,8(r10)
  8049b8:	8280a026 	beq	r16,r10,804c3c <_malloc_r+0x38c>
  8049bc:	80800117 	ldw	r2,4(r16)
  8049c0:	00ffff04 	movi	r3,-4
  8049c4:	10ca703a 	and	r5,r2,r3
  8049c8:	2c4dc83a 	sub	r6,r5,r17
  8049cc:	008003c4 	movi	r2,15
  8049d0:	11808316 	blt	r2,r6,804be0 <_malloc_r+0x330>
  8049d4:	52800315 	stw	r10,12(r10)
  8049d8:	52800215 	stw	r10,8(r10)
  8049dc:	30002916 	blt	r6,zero,804a84 <_malloc_r+0x1d4>
  8049e0:	8147883a 	add	r3,r16,r5
  8049e4:	18800117 	ldw	r2,4(r3)
  8049e8:	9009883a 	mov	r4,r18
  8049ec:	10800054 	ori	r2,r2,1
  8049f0:	18800115 	stw	r2,4(r3)
  8049f4:	08075b40 	call	8075b4 <__malloc_unlock>
  8049f8:	80c00204 	addi	r3,r16,8
  8049fc:	003fc006 	br	804900 <_malloc_r+0x50>
  804a00:	02c02074 	movhi	r11,129
  804a04:	5aef2204 	addi	r11,r11,-17272
  804a08:	8ac5883a 	add	r2,r17,r11
  804a0c:	14000317 	ldw	r16,12(r2)
  804a10:	580f883a 	mov	r7,r11
  804a14:	8806d0fa 	srli	r3,r17,3
  804a18:	14006c26 	beq	r2,r16,804bcc <_malloc_r+0x31c>
  804a1c:	80c00117 	ldw	r3,4(r16)
  804a20:	00bfff04 	movi	r2,-4
  804a24:	81800317 	ldw	r6,12(r16)
  804a28:	1886703a 	and	r3,r3,r2
  804a2c:	80c7883a 	add	r3,r16,r3
  804a30:	18800117 	ldw	r2,4(r3)
  804a34:	81400217 	ldw	r5,8(r16)
  804a38:	9009883a 	mov	r4,r18
  804a3c:	10800054 	ori	r2,r2,1
  804a40:	18800115 	stw	r2,4(r3)
  804a44:	31400215 	stw	r5,8(r6)
  804a48:	29800315 	stw	r6,12(r5)
  804a4c:	08075b40 	call	8075b4 <__malloc_unlock>
  804a50:	80c00204 	addi	r3,r16,8
  804a54:	003faa06 	br	804900 <_malloc_r+0x50>
  804a58:	00800104 	movi	r2,4
  804a5c:	10c0052e 	bgeu	r2,r3,804a74 <_malloc_r+0x1c4>
  804a60:	00800504 	movi	r2,20
  804a64:	10c07836 	bltu	r2,r3,804c48 <_malloc_r+0x398>
  804a68:	198016c4 	addi	r6,r3,91
  804a6c:	300490fa 	slli	r2,r6,3
  804a70:	003fbc06 	br	804964 <_malloc_r+0xb4>
  804a74:	8804d1ba 	srli	r2,r17,6
  804a78:	11800e04 	addi	r6,r2,56
  804a7c:	300490fa 	slli	r2,r6,3
  804a80:	003fb806 	br	804964 <_malloc_r+0xb4>
  804a84:	00807fc4 	movi	r2,511
  804a88:	1140bb36 	bltu	r2,r5,804d78 <_malloc_r+0x4c8>
  804a8c:	2806d0fa 	srli	r3,r5,3
  804a90:	573ffe04 	addi	fp,r10,-8
  804a94:	00800044 	movi	r2,1
  804a98:	180890fa 	slli	r4,r3,3
  804a9c:	1807d0ba 	srai	r3,r3,2
  804aa0:	e1c00117 	ldw	r7,4(fp)
  804aa4:	5909883a 	add	r4,r11,r4
  804aa8:	21400217 	ldw	r5,8(r4)
  804aac:	10c4983a 	sll	r2,r2,r3
  804ab0:	81000315 	stw	r4,12(r16)
  804ab4:	81400215 	stw	r5,8(r16)
  804ab8:	388eb03a 	or	r7,r7,r2
  804abc:	2c000315 	stw	r16,12(r5)
  804ac0:	24000215 	stw	r16,8(r4)
  804ac4:	e1c00115 	stw	r7,4(fp)
  804ac8:	4807883a 	mov	r3,r9
  804acc:	4800cd16 	blt	r9,zero,804e04 <_malloc_r+0x554>
  804ad0:	1807d0ba 	srai	r3,r3,2
  804ad4:	00800044 	movi	r2,1
  804ad8:	10c8983a 	sll	r4,r2,r3
  804adc:	39004436 	bltu	r7,r4,804bf0 <_malloc_r+0x340>
  804ae0:	21c4703a 	and	r2,r4,r7
  804ae4:	10000a1e 	bne	r2,zero,804b10 <_malloc_r+0x260>
  804ae8:	2109883a 	add	r4,r4,r4
  804aec:	00bfff04 	movi	r2,-4
  804af0:	4884703a 	and	r2,r9,r2
  804af4:	3906703a 	and	r3,r7,r4
  804af8:	12400104 	addi	r9,r2,4
  804afc:	1800041e 	bne	r3,zero,804b10 <_malloc_r+0x260>
  804b00:	2109883a 	add	r4,r4,r4
  804b04:	3904703a 	and	r2,r7,r4
  804b08:	4a400104 	addi	r9,r9,4
  804b0c:	103ffc26 	beq	r2,zero,804b00 <_malloc_r+0x250>
  804b10:	480490fa 	slli	r2,r9,3
  804b14:	4819883a 	mov	r12,r9
  804b18:	023fff04 	movi	r8,-4
  804b1c:	589b883a 	add	r13,r11,r2
  804b20:	6807883a 	mov	r3,r13
  804b24:	014003c4 	movi	r5,15
  804b28:	1c000317 	ldw	r16,12(r3)
  804b2c:	1c00041e 	bne	r3,r16,804b40 <_malloc_r+0x290>
  804b30:	0000a706 	br	804dd0 <_malloc_r+0x520>
  804b34:	3000ab0e 	bge	r6,zero,804de4 <_malloc_r+0x534>
  804b38:	84000317 	ldw	r16,12(r16)
  804b3c:	1c00a426 	beq	r3,r16,804dd0 <_malloc_r+0x520>
  804b40:	80800117 	ldw	r2,4(r16)
  804b44:	1204703a 	and	r2,r2,r8
  804b48:	144dc83a 	sub	r6,r2,r17
  804b4c:	29bff90e 	bge	r5,r6,804b34 <_malloc_r+0x284>
  804b50:	81000317 	ldw	r4,12(r16)
  804b54:	80c00217 	ldw	r3,8(r16)
  804b58:	89400054 	ori	r5,r17,1
  804b5c:	8445883a 	add	r2,r16,r17
  804b60:	20c00215 	stw	r3,8(r4)
  804b64:	19000315 	stw	r4,12(r3)
  804b68:	81400115 	stw	r5,4(r16)
  804b6c:	1187883a 	add	r3,r2,r6
  804b70:	31000054 	ori	r4,r6,1
  804b74:	50800315 	stw	r2,12(r10)
  804b78:	50800215 	stw	r2,8(r10)
  804b7c:	19800015 	stw	r6,0(r3)
  804b80:	11000115 	stw	r4,4(r2)
  804b84:	12800215 	stw	r10,8(r2)
  804b88:	12800315 	stw	r10,12(r2)
  804b8c:	9009883a 	mov	r4,r18
  804b90:	08075b40 	call	8075b4 <__malloc_unlock>
  804b94:	80c00204 	addi	r3,r16,8
  804b98:	003f5906 	br	804900 <_malloc_r+0x50>
  804b9c:	8109883a 	add	r4,r16,r4
  804ba0:	20800117 	ldw	r2,4(r4)
  804ba4:	80c00217 	ldw	r3,8(r16)
  804ba8:	81400317 	ldw	r5,12(r16)
  804bac:	10800054 	ori	r2,r2,1
  804bb0:	20800115 	stw	r2,4(r4)
  804bb4:	28c00215 	stw	r3,8(r5)
  804bb8:	19400315 	stw	r5,12(r3)
  804bbc:	9009883a 	mov	r4,r18
  804bc0:	08075b40 	call	8075b4 <__malloc_unlock>
  804bc4:	80c00204 	addi	r3,r16,8
  804bc8:	003f4d06 	br	804900 <_malloc_r+0x50>
  804bcc:	80800204 	addi	r2,r16,8
  804bd0:	14000317 	ldw	r16,12(r2)
  804bd4:	143f911e 	bne	r2,r16,804a1c <_malloc_r+0x16c>
  804bd8:	1a400084 	addi	r9,r3,2
  804bdc:	003f7306 	br	8049ac <_malloc_r+0xfc>
  804be0:	88c00054 	ori	r3,r17,1
  804be4:	8445883a 	add	r2,r16,r17
  804be8:	80c00115 	stw	r3,4(r16)
  804bec:	003fdf06 	br	804b6c <_malloc_r+0x2bc>
  804bf0:	e4000217 	ldw	r16,8(fp)
  804bf4:	00bfff04 	movi	r2,-4
  804bf8:	80c00117 	ldw	r3,4(r16)
  804bfc:	802d883a 	mov	r22,r16
  804c00:	18aa703a 	and	r21,r3,r2
  804c04:	ac401636 	bltu	r21,r17,804c60 <_malloc_r+0x3b0>
  804c08:	ac49c83a 	sub	r4,r21,r17
  804c0c:	008003c4 	movi	r2,15
  804c10:	1100130e 	bge	r2,r4,804c60 <_malloc_r+0x3b0>
  804c14:	88800054 	ori	r2,r17,1
  804c18:	8447883a 	add	r3,r16,r17
  804c1c:	80800115 	stw	r2,4(r16)
  804c20:	20800054 	ori	r2,r4,1
  804c24:	18800115 	stw	r2,4(r3)
  804c28:	e0c00215 	stw	r3,8(fp)
  804c2c:	9009883a 	mov	r4,r18
  804c30:	08075b40 	call	8075b4 <__malloc_unlock>
  804c34:	80c00204 	addi	r3,r16,8
  804c38:	003f3106 	br	804900 <_malloc_r+0x50>
  804c3c:	39c00117 	ldw	r7,4(r7)
  804c40:	573ffe04 	addi	fp,r10,-8
  804c44:	003fa006 	br	804ac8 <_malloc_r+0x218>
  804c48:	00801504 	movi	r2,84
  804c4c:	10c06736 	bltu	r2,r3,804dec <_malloc_r+0x53c>
  804c50:	8804d33a 	srli	r2,r17,12
  804c54:	11801b84 	addi	r6,r2,110
  804c58:	300490fa 	slli	r2,r6,3
  804c5c:	003f4106 	br	804964 <_malloc_r+0xb4>
  804c60:	d0a77b17 	ldw	r2,-25108(gp)
  804c64:	d0e00417 	ldw	r3,-32752(gp)
  804c68:	053fffc4 	movi	r20,-1
  804c6c:	10800404 	addi	r2,r2,16
  804c70:	88a7883a 	add	r19,r17,r2
  804c74:	1d000326 	beq	r3,r20,804c84 <_malloc_r+0x3d4>
  804c78:	98c3ffc4 	addi	r3,r19,4095
  804c7c:	00bc0004 	movi	r2,-4096
  804c80:	18a6703a 	and	r19,r3,r2
  804c84:	9009883a 	mov	r4,r18
  804c88:	980b883a 	mov	r5,r19
  804c8c:	08058480 	call	805848 <_sbrk_r>
  804c90:	1009883a 	mov	r4,r2
  804c94:	15000426 	beq	r2,r20,804ca8 <_malloc_r+0x3f8>
  804c98:	854b883a 	add	r5,r16,r21
  804c9c:	1029883a 	mov	r20,r2
  804ca0:	11405a2e 	bgeu	r2,r5,804e0c <_malloc_r+0x55c>
  804ca4:	87000c26 	beq	r16,fp,804cd8 <_malloc_r+0x428>
  804ca8:	e4000217 	ldw	r16,8(fp)
  804cac:	80c00117 	ldw	r3,4(r16)
  804cb0:	00bfff04 	movi	r2,-4
  804cb4:	1884703a 	and	r2,r3,r2
  804cb8:	14400336 	bltu	r2,r17,804cc8 <_malloc_r+0x418>
  804cbc:	1449c83a 	sub	r4,r2,r17
  804cc0:	008003c4 	movi	r2,15
  804cc4:	113fd316 	blt	r2,r4,804c14 <_malloc_r+0x364>
  804cc8:	9009883a 	mov	r4,r18
  804ccc:	08075b40 	call	8075b4 <__malloc_unlock>
  804cd0:	0007883a 	mov	r3,zero
  804cd4:	003f0a06 	br	804900 <_malloc_r+0x50>
  804cd8:	05c02074 	movhi	r23,129
  804cdc:	bdfcd404 	addi	r23,r23,-3248
  804ce0:	b8800017 	ldw	r2,0(r23)
  804ce4:	988d883a 	add	r6,r19,r2
  804ce8:	b9800015 	stw	r6,0(r23)
  804cec:	d0e00417 	ldw	r3,-32752(gp)
  804cf0:	00bfffc4 	movi	r2,-1
  804cf4:	18808e26 	beq	r3,r2,804f30 <_malloc_r+0x680>
  804cf8:	2145c83a 	sub	r2,r4,r5
  804cfc:	3085883a 	add	r2,r6,r2
  804d00:	b8800015 	stw	r2,0(r23)
  804d04:	20c001cc 	andi	r3,r4,7
  804d08:	18005f1e 	bne	r3,zero,804e88 <_malloc_r+0x5d8>
  804d0c:	000b883a 	mov	r5,zero
  804d10:	a4c5883a 	add	r2,r20,r19
  804d14:	1083ffcc 	andi	r2,r2,4095
  804d18:	00c40004 	movi	r3,4096
  804d1c:	1887c83a 	sub	r3,r3,r2
  804d20:	28e7883a 	add	r19,r5,r3
  804d24:	9009883a 	mov	r4,r18
  804d28:	980b883a 	mov	r5,r19
  804d2c:	08058480 	call	805848 <_sbrk_r>
  804d30:	1007883a 	mov	r3,r2
  804d34:	00bfffc4 	movi	r2,-1
  804d38:	18807a26 	beq	r3,r2,804f24 <_malloc_r+0x674>
  804d3c:	1d05c83a 	sub	r2,r3,r20
  804d40:	9885883a 	add	r2,r19,r2
  804d44:	10c00054 	ori	r3,r2,1
  804d48:	b8800017 	ldw	r2,0(r23)
  804d4c:	a021883a 	mov	r16,r20
  804d50:	a0c00115 	stw	r3,4(r20)
  804d54:	9885883a 	add	r2,r19,r2
  804d58:	b8800015 	stw	r2,0(r23)
  804d5c:	e5000215 	stw	r20,8(fp)
  804d60:	b7003626 	beq	r22,fp,804e3c <_malloc_r+0x58c>
  804d64:	018003c4 	movi	r6,15
  804d68:	35404b36 	bltu	r6,r21,804e98 <_malloc_r+0x5e8>
  804d6c:	00800044 	movi	r2,1
  804d70:	a0800115 	stw	r2,4(r20)
  804d74:	003fcd06 	br	804cac <_malloc_r+0x3fc>
  804d78:	2808d27a 	srli	r4,r5,9
  804d7c:	2000371e 	bne	r4,zero,804e5c <_malloc_r+0x5ac>
  804d80:	2808d0fa 	srli	r4,r5,3
  804d84:	200690fa 	slli	r3,r4,3
  804d88:	1ad1883a 	add	r8,r3,r11
  804d8c:	41800217 	ldw	r6,8(r8)
  804d90:	41805b26 	beq	r8,r6,804f00 <_malloc_r+0x650>
  804d94:	30800117 	ldw	r2,4(r6)
  804d98:	00ffff04 	movi	r3,-4
  804d9c:	10c4703a 	and	r2,r2,r3
  804da0:	2880022e 	bgeu	r5,r2,804dac <_malloc_r+0x4fc>
  804da4:	31800217 	ldw	r6,8(r6)
  804da8:	41bffa1e 	bne	r8,r6,804d94 <_malloc_r+0x4e4>
  804dac:	32000317 	ldw	r8,12(r6)
  804db0:	39c00117 	ldw	r7,4(r7)
  804db4:	82000315 	stw	r8,12(r16)
  804db8:	81800215 	stw	r6,8(r16)
  804dbc:	07002074 	movhi	fp,129
  804dc0:	e72f2204 	addi	fp,fp,-17272
  804dc4:	34000315 	stw	r16,12(r6)
  804dc8:	44000215 	stw	r16,8(r8)
  804dcc:	003f3e06 	br	804ac8 <_malloc_r+0x218>
  804dd0:	63000044 	addi	r12,r12,1
  804dd4:	608000cc 	andi	r2,r12,3
  804dd8:	10005d26 	beq	r2,zero,804f50 <_malloc_r+0x6a0>
  804ddc:	18c00204 	addi	r3,r3,8
  804de0:	003f5106 	br	804b28 <_malloc_r+0x278>
  804de4:	8089883a 	add	r4,r16,r2
  804de8:	003f6d06 	br	804ba0 <_malloc_r+0x2f0>
  804dec:	00805504 	movi	r2,340
  804df0:	10c02036 	bltu	r2,r3,804e74 <_malloc_r+0x5c4>
  804df4:	8804d3fa 	srli	r2,r17,15
  804df8:	11801dc4 	addi	r6,r2,119
  804dfc:	300490fa 	slli	r2,r6,3
  804e00:	003ed806 	br	804964 <_malloc_r+0xb4>
  804e04:	48c000c4 	addi	r3,r9,3
  804e08:	003f3106 	br	804ad0 <_malloc_r+0x220>
  804e0c:	05c02074 	movhi	r23,129
  804e10:	bdfcd404 	addi	r23,r23,-3248
  804e14:	b8800017 	ldw	r2,0(r23)
  804e18:	988d883a 	add	r6,r19,r2
  804e1c:	b9800015 	stw	r6,0(r23)
  804e20:	293fb21e 	bne	r5,r4,804cec <_malloc_r+0x43c>
  804e24:	2083ffcc 	andi	r2,r4,4095
  804e28:	103fb01e 	bne	r2,zero,804cec <_malloc_r+0x43c>
  804e2c:	e4000217 	ldw	r16,8(fp)
  804e30:	9d45883a 	add	r2,r19,r21
  804e34:	10800054 	ori	r2,r2,1
  804e38:	80800115 	stw	r2,4(r16)
  804e3c:	b8c00017 	ldw	r3,0(r23)
  804e40:	d0a77c17 	ldw	r2,-25104(gp)
  804e44:	10c0012e 	bgeu	r2,r3,804e4c <_malloc_r+0x59c>
  804e48:	d0e77c15 	stw	r3,-25104(gp)
  804e4c:	d0a77d17 	ldw	r2,-25100(gp)
  804e50:	10ff962e 	bgeu	r2,r3,804cac <_malloc_r+0x3fc>
  804e54:	d0e77d15 	stw	r3,-25100(gp)
  804e58:	003f9406 	br	804cac <_malloc_r+0x3fc>
  804e5c:	00800104 	movi	r2,4
  804e60:	11001e36 	bltu	r2,r4,804edc <_malloc_r+0x62c>
  804e64:	2804d1ba 	srli	r2,r5,6
  804e68:	11000e04 	addi	r4,r2,56
  804e6c:	200690fa 	slli	r3,r4,3
  804e70:	003fc506 	br	804d88 <_malloc_r+0x4d8>
  804e74:	00815504 	movi	r2,1364
  804e78:	10c01d2e 	bgeu	r2,r3,804ef0 <_malloc_r+0x640>
  804e7c:	01801f84 	movi	r6,126
  804e80:	0080fc04 	movi	r2,1008
  804e84:	003eb706 	br	804964 <_malloc_r+0xb4>
  804e88:	00800204 	movi	r2,8
  804e8c:	10cbc83a 	sub	r5,r2,r3
  804e90:	2169883a 	add	r20,r4,r5
  804e94:	003f9e06 	br	804d10 <_malloc_r+0x460>
  804e98:	00bffe04 	movi	r2,-8
  804e9c:	a93ffd04 	addi	r4,r21,-12
  804ea0:	2088703a 	and	r4,r4,r2
  804ea4:	b10b883a 	add	r5,r22,r4
  804ea8:	00c00144 	movi	r3,5
  804eac:	28c00215 	stw	r3,8(r5)
  804eb0:	28c00115 	stw	r3,4(r5)
  804eb4:	b0800117 	ldw	r2,4(r22)
  804eb8:	1080004c 	andi	r2,r2,1
  804ebc:	2084b03a 	or	r2,r4,r2
  804ec0:	b0800115 	stw	r2,4(r22)
  804ec4:	313fdd2e 	bgeu	r6,r4,804e3c <_malloc_r+0x58c>
  804ec8:	b1400204 	addi	r5,r22,8
  804ecc:	9009883a 	mov	r4,r18
  804ed0:	08060100 	call	806010 <_free_r>
  804ed4:	e4000217 	ldw	r16,8(fp)
  804ed8:	003fd806 	br	804e3c <_malloc_r+0x58c>
  804edc:	00800504 	movi	r2,20
  804ee0:	11001536 	bltu	r2,r4,804f38 <_malloc_r+0x688>
  804ee4:	210016c4 	addi	r4,r4,91
  804ee8:	200690fa 	slli	r3,r4,3
  804eec:	003fa606 	br	804d88 <_malloc_r+0x4d8>
  804ef0:	8804d4ba 	srli	r2,r17,18
  804ef4:	11801f04 	addi	r6,r2,124
  804ef8:	300490fa 	slli	r2,r6,3
  804efc:	003e9906 	br	804964 <_malloc_r+0xb4>
  804f00:	2009d0ba 	srai	r4,r4,2
  804f04:	01402074 	movhi	r5,129
  804f08:	296f2204 	addi	r5,r5,-17272
  804f0c:	00c00044 	movi	r3,1
  804f10:	28800117 	ldw	r2,4(r5)
  804f14:	1906983a 	sll	r3,r3,r4
  804f18:	10c4b03a 	or	r2,r2,r3
  804f1c:	28800115 	stw	r2,4(r5)
  804f20:	003fa306 	br	804db0 <_malloc_r+0x500>
  804f24:	0027883a 	mov	r19,zero
  804f28:	00c00044 	movi	r3,1
  804f2c:	003f8606 	br	804d48 <_malloc_r+0x498>
  804f30:	d1200415 	stw	r4,-32752(gp)
  804f34:	003f7306 	br	804d04 <_malloc_r+0x454>
  804f38:	00801504 	movi	r2,84
  804f3c:	11001936 	bltu	r2,r4,804fa4 <_malloc_r+0x6f4>
  804f40:	2804d33a 	srli	r2,r5,12
  804f44:	11001b84 	addi	r4,r2,110
  804f48:	200690fa 	slli	r3,r4,3
  804f4c:	003f8e06 	br	804d88 <_malloc_r+0x4d8>
  804f50:	480b883a 	mov	r5,r9
  804f54:	6807883a 	mov	r3,r13
  804f58:	288000cc 	andi	r2,r5,3
  804f5c:	18fffe04 	addi	r3,r3,-8
  804f60:	297fffc4 	addi	r5,r5,-1
  804f64:	10001526 	beq	r2,zero,804fbc <_malloc_r+0x70c>
  804f68:	18800217 	ldw	r2,8(r3)
  804f6c:	10fffa26 	beq	r2,r3,804f58 <_malloc_r+0x6a8>
  804f70:	2109883a 	add	r4,r4,r4
  804f74:	393f1e36 	bltu	r7,r4,804bf0 <_malloc_r+0x340>
  804f78:	203f1d26 	beq	r4,zero,804bf0 <_malloc_r+0x340>
  804f7c:	21c4703a 	and	r2,r4,r7
  804f80:	10000226 	beq	r2,zero,804f8c <_malloc_r+0x6dc>
  804f84:	6013883a 	mov	r9,r12
  804f88:	003ee106 	br	804b10 <_malloc_r+0x260>
  804f8c:	2109883a 	add	r4,r4,r4
  804f90:	3904703a 	and	r2,r7,r4
  804f94:	63000104 	addi	r12,r12,4
  804f98:	103ffc26 	beq	r2,zero,804f8c <_malloc_r+0x6dc>
  804f9c:	6013883a 	mov	r9,r12
  804fa0:	003edb06 	br	804b10 <_malloc_r+0x260>
  804fa4:	00805504 	movi	r2,340
  804fa8:	11000836 	bltu	r2,r4,804fcc <_malloc_r+0x71c>
  804fac:	2804d3fa 	srli	r2,r5,15
  804fb0:	11001dc4 	addi	r4,r2,119
  804fb4:	200690fa 	slli	r3,r4,3
  804fb8:	003f7306 	br	804d88 <_malloc_r+0x4d8>
  804fbc:	0104303a 	nor	r2,zero,r4
  804fc0:	388e703a 	and	r7,r7,r2
  804fc4:	e1c00115 	stw	r7,4(fp)
  804fc8:	003fe906 	br	804f70 <_malloc_r+0x6c0>
  804fcc:	00815504 	movi	r2,1364
  804fd0:	1100032e 	bgeu	r2,r4,804fe0 <_malloc_r+0x730>
  804fd4:	01001f84 	movi	r4,126
  804fd8:	00c0fc04 	movi	r3,1008
  804fdc:	003f6a06 	br	804d88 <_malloc_r+0x4d8>
  804fe0:	2804d4ba 	srli	r2,r5,18
  804fe4:	11001f04 	addi	r4,r2,124
  804fe8:	200690fa 	slli	r3,r4,3
  804fec:	003f6606 	br	804d88 <_malloc_r+0x4d8>

00804ff0 <memchr>:
  804ff0:	008000c4 	movi	r2,3
  804ff4:	29403fcc 	andi	r5,r5,255
  804ff8:	2007883a 	mov	r3,r4
  804ffc:	1180022e 	bgeu	r2,r6,805008 <memchr+0x18>
  805000:	2084703a 	and	r2,r4,r2
  805004:	10000b26 	beq	r2,zero,805034 <memchr+0x44>
  805008:	313fffc4 	addi	r4,r6,-1
  80500c:	3000051e 	bne	r6,zero,805024 <memchr+0x34>
  805010:	00002c06 	br	8050c4 <memchr+0xd4>
  805014:	213fffc4 	addi	r4,r4,-1
  805018:	00bfffc4 	movi	r2,-1
  80501c:	18c00044 	addi	r3,r3,1
  805020:	20802826 	beq	r4,r2,8050c4 <memchr+0xd4>
  805024:	18800003 	ldbu	r2,0(r3)
  805028:	28bffa1e 	bne	r5,r2,805014 <memchr+0x24>
  80502c:	1805883a 	mov	r2,r3
  805030:	f800283a 	ret
  805034:	0011883a 	mov	r8,zero
  805038:	0007883a 	mov	r3,zero
  80503c:	01c00104 	movi	r7,4
  805040:	4004923a 	slli	r2,r8,8
  805044:	18c00044 	addi	r3,r3,1
  805048:	1151883a 	add	r8,r2,r5
  80504c:	19fffc1e 	bne	r3,r7,805040 <memchr+0x50>
  805050:	02bfbff4 	movhi	r10,65279
  805054:	52bfbfc4 	addi	r10,r10,-257
  805058:	02602074 	movhi	r9,32897
  80505c:	4a602004 	addi	r9,r9,-32640
  805060:	02c000c4 	movi	r11,3
  805064:	20800017 	ldw	r2,0(r4)
  805068:	31bfff04 	addi	r6,r6,-4
  80506c:	200f883a 	mov	r7,r4
  805070:	1204f03a 	xor	r2,r2,r8
  805074:	1287883a 	add	r3,r2,r10
  805078:	1a46703a 	and	r3,r3,r9
  80507c:	0084303a 	nor	r2,zero,r2
  805080:	10c4703a 	and	r2,r2,r3
  805084:	10000b26 	beq	r2,zero,8050b4 <memchr+0xc4>
  805088:	20800003 	ldbu	r2,0(r4)
  80508c:	28800f26 	beq	r5,r2,8050cc <memchr+0xdc>
  805090:	20800043 	ldbu	r2,1(r4)
  805094:	21c00044 	addi	r7,r4,1
  805098:	28800c26 	beq	r5,r2,8050cc <memchr+0xdc>
  80509c:	20800083 	ldbu	r2,2(r4)
  8050a0:	21c00084 	addi	r7,r4,2
  8050a4:	28800926 	beq	r5,r2,8050cc <memchr+0xdc>
  8050a8:	208000c3 	ldbu	r2,3(r4)
  8050ac:	21c000c4 	addi	r7,r4,3
  8050b0:	28800626 	beq	r5,r2,8050cc <memchr+0xdc>
  8050b4:	21000104 	addi	r4,r4,4
  8050b8:	59bfea36 	bltu	r11,r6,805064 <memchr+0x74>
  8050bc:	2007883a 	mov	r3,r4
  8050c0:	003fd106 	br	805008 <memchr+0x18>
  8050c4:	0005883a 	mov	r2,zero
  8050c8:	f800283a 	ret
  8050cc:	3805883a 	mov	r2,r7
  8050d0:	f800283a 	ret

008050d4 <memcpy>:
  8050d4:	01c003c4 	movi	r7,15
  8050d8:	2007883a 	mov	r3,r4
  8050dc:	3980032e 	bgeu	r7,r6,8050ec <memcpy+0x18>
  8050e0:	2904b03a 	or	r2,r5,r4
  8050e4:	108000cc 	andi	r2,r2,3
  8050e8:	10000926 	beq	r2,zero,805110 <memcpy+0x3c>
  8050ec:	30000626 	beq	r6,zero,805108 <memcpy+0x34>
  8050f0:	30cd883a 	add	r6,r6,r3
  8050f4:	28800003 	ldbu	r2,0(r5)
  8050f8:	29400044 	addi	r5,r5,1
  8050fc:	18800005 	stb	r2,0(r3)
  805100:	18c00044 	addi	r3,r3,1
  805104:	30fffb1e 	bne	r6,r3,8050f4 <memcpy+0x20>
  805108:	2005883a 	mov	r2,r4
  80510c:	f800283a 	ret
  805110:	3811883a 	mov	r8,r7
  805114:	200f883a 	mov	r7,r4
  805118:	28c00017 	ldw	r3,0(r5)
  80511c:	31bffc04 	addi	r6,r6,-16
  805120:	38c00015 	stw	r3,0(r7)
  805124:	28800117 	ldw	r2,4(r5)
  805128:	38800115 	stw	r2,4(r7)
  80512c:	28c00217 	ldw	r3,8(r5)
  805130:	38c00215 	stw	r3,8(r7)
  805134:	28800317 	ldw	r2,12(r5)
  805138:	29400404 	addi	r5,r5,16
  80513c:	38800315 	stw	r2,12(r7)
  805140:	39c00404 	addi	r7,r7,16
  805144:	41bff436 	bltu	r8,r6,805118 <memcpy+0x44>
  805148:	008000c4 	movi	r2,3
  80514c:	1180072e 	bgeu	r2,r6,80516c <memcpy+0x98>
  805150:	1007883a 	mov	r3,r2
  805154:	28800017 	ldw	r2,0(r5)
  805158:	31bfff04 	addi	r6,r6,-4
  80515c:	29400104 	addi	r5,r5,4
  805160:	38800015 	stw	r2,0(r7)
  805164:	39c00104 	addi	r7,r7,4
  805168:	19bffa36 	bltu	r3,r6,805154 <memcpy+0x80>
  80516c:	3807883a 	mov	r3,r7
  805170:	003fde06 	br	8050ec <memcpy+0x18>

00805174 <memmove>:
  805174:	2807883a 	mov	r3,r5
  805178:	2011883a 	mov	r8,r4
  80517c:	29000c2e 	bgeu	r5,r4,8051b0 <memmove+0x3c>
  805180:	298f883a 	add	r7,r5,r6
  805184:	21c00a2e 	bgeu	r4,r7,8051b0 <memmove+0x3c>
  805188:	30000726 	beq	r6,zero,8051a8 <memmove+0x34>
  80518c:	2187883a 	add	r3,r4,r6
  805190:	198dc83a 	sub	r6,r3,r6
  805194:	39ffffc4 	addi	r7,r7,-1
  805198:	38800003 	ldbu	r2,0(r7)
  80519c:	18ffffc4 	addi	r3,r3,-1
  8051a0:	18800005 	stb	r2,0(r3)
  8051a4:	19bffb1e 	bne	r3,r6,805194 <memmove+0x20>
  8051a8:	2005883a 	mov	r2,r4
  8051ac:	f800283a 	ret
  8051b0:	01c003c4 	movi	r7,15
  8051b4:	39800a36 	bltu	r7,r6,8051e0 <memmove+0x6c>
  8051b8:	303ffb26 	beq	r6,zero,8051a8 <memmove+0x34>
  8051bc:	400f883a 	mov	r7,r8
  8051c0:	320d883a 	add	r6,r6,r8
  8051c4:	28800003 	ldbu	r2,0(r5)
  8051c8:	29400044 	addi	r5,r5,1
  8051cc:	38800005 	stb	r2,0(r7)
  8051d0:	39c00044 	addi	r7,r7,1
  8051d4:	39bffb1e 	bne	r7,r6,8051c4 <memmove+0x50>
  8051d8:	2005883a 	mov	r2,r4
  8051dc:	f800283a 	ret
  8051e0:	1904b03a 	or	r2,r3,r4
  8051e4:	108000cc 	andi	r2,r2,3
  8051e8:	103ff31e 	bne	r2,zero,8051b8 <memmove+0x44>
  8051ec:	3811883a 	mov	r8,r7
  8051f0:	180b883a 	mov	r5,r3
  8051f4:	200f883a 	mov	r7,r4
  8051f8:	28c00017 	ldw	r3,0(r5)
  8051fc:	31bffc04 	addi	r6,r6,-16
  805200:	38c00015 	stw	r3,0(r7)
  805204:	28800117 	ldw	r2,4(r5)
  805208:	38800115 	stw	r2,4(r7)
  80520c:	28c00217 	ldw	r3,8(r5)
  805210:	38c00215 	stw	r3,8(r7)
  805214:	28800317 	ldw	r2,12(r5)
  805218:	29400404 	addi	r5,r5,16
  80521c:	38800315 	stw	r2,12(r7)
  805220:	39c00404 	addi	r7,r7,16
  805224:	41bff436 	bltu	r8,r6,8051f8 <memmove+0x84>
  805228:	008000c4 	movi	r2,3
  80522c:	1180072e 	bgeu	r2,r6,80524c <memmove+0xd8>
  805230:	1007883a 	mov	r3,r2
  805234:	28800017 	ldw	r2,0(r5)
  805238:	31bfff04 	addi	r6,r6,-4
  80523c:	29400104 	addi	r5,r5,4
  805240:	38800015 	stw	r2,0(r7)
  805244:	39c00104 	addi	r7,r7,4
  805248:	19bffa36 	bltu	r3,r6,805234 <memmove+0xc0>
  80524c:	3811883a 	mov	r8,r7
  805250:	003fd906 	br	8051b8 <memmove+0x44>

00805254 <_realloc_r>:
  805254:	defff404 	addi	sp,sp,-48
  805258:	dd800815 	stw	r22,32(sp)
  80525c:	dc800415 	stw	r18,16(sp)
  805260:	dc400315 	stw	r17,12(sp)
  805264:	dfc00b15 	stw	ra,44(sp)
  805268:	df000a15 	stw	fp,40(sp)
  80526c:	ddc00915 	stw	r23,36(sp)
  805270:	dd400715 	stw	r21,28(sp)
  805274:	dd000615 	stw	r20,24(sp)
  805278:	dcc00515 	stw	r19,20(sp)
  80527c:	dc000215 	stw	r16,8(sp)
  805280:	2825883a 	mov	r18,r5
  805284:	3023883a 	mov	r17,r6
  805288:	202d883a 	mov	r22,r4
  80528c:	2800c926 	beq	r5,zero,8055b4 <_realloc_r+0x360>
  805290:	08075940 	call	807594 <__malloc_lock>
  805294:	943ffe04 	addi	r16,r18,-8
  805298:	88c002c4 	addi	r3,r17,11
  80529c:	00800584 	movi	r2,22
  8052a0:	82000117 	ldw	r8,4(r16)
  8052a4:	10c01b2e 	bgeu	r2,r3,805314 <_realloc_r+0xc0>
  8052a8:	00bffe04 	movi	r2,-8
  8052ac:	188e703a 	and	r7,r3,r2
  8052b0:	3839883a 	mov	fp,r7
  8052b4:	38001a16 	blt	r7,zero,805320 <_realloc_r+0xcc>
  8052b8:	e4401936 	bltu	fp,r17,805320 <_realloc_r+0xcc>
  8052bc:	013fff04 	movi	r4,-4
  8052c0:	4126703a 	and	r19,r8,r4
  8052c4:	99c02616 	blt	r19,r7,805360 <_realloc_r+0x10c>
  8052c8:	802b883a 	mov	r21,r16
  8052cc:	9829883a 	mov	r20,r19
  8052d0:	84000204 	addi	r16,r16,8
  8052d4:	a80f883a 	mov	r7,r21
  8052d8:	a70dc83a 	sub	r6,r20,fp
  8052dc:	008003c4 	movi	r2,15
  8052e0:	1180c136 	bltu	r2,r6,8055e8 <_realloc_r+0x394>
  8052e4:	38800117 	ldw	r2,4(r7)
  8052e8:	a549883a 	add	r4,r20,r21
  8052ec:	1080004c 	andi	r2,r2,1
  8052f0:	a084b03a 	or	r2,r20,r2
  8052f4:	38800115 	stw	r2,4(r7)
  8052f8:	20c00117 	ldw	r3,4(r4)
  8052fc:	18c00054 	ori	r3,r3,1
  805300:	20c00115 	stw	r3,4(r4)
  805304:	b009883a 	mov	r4,r22
  805308:	08075b40 	call	8075b4 <__malloc_unlock>
  80530c:	8023883a 	mov	r17,r16
  805310:	00000606 	br	80532c <_realloc_r+0xd8>
  805314:	01c00404 	movi	r7,16
  805318:	3839883a 	mov	fp,r7
  80531c:	e47fe72e 	bgeu	fp,r17,8052bc <_realloc_r+0x68>
  805320:	00800304 	movi	r2,12
  805324:	0023883a 	mov	r17,zero
  805328:	b0800015 	stw	r2,0(r22)
  80532c:	8805883a 	mov	r2,r17
  805330:	dfc00b17 	ldw	ra,44(sp)
  805334:	df000a17 	ldw	fp,40(sp)
  805338:	ddc00917 	ldw	r23,36(sp)
  80533c:	dd800817 	ldw	r22,32(sp)
  805340:	dd400717 	ldw	r21,28(sp)
  805344:	dd000617 	ldw	r20,24(sp)
  805348:	dcc00517 	ldw	r19,20(sp)
  80534c:	dc800417 	ldw	r18,16(sp)
  805350:	dc400317 	ldw	r17,12(sp)
  805354:	dc000217 	ldw	r16,8(sp)
  805358:	dec00c04 	addi	sp,sp,48
  80535c:	f800283a 	ret
  805360:	00802074 	movhi	r2,129
  805364:	10af2204 	addi	r2,r2,-17272
  805368:	12400217 	ldw	r9,8(r2)
  80536c:	84cd883a 	add	r6,r16,r19
  805370:	802b883a 	mov	r21,r16
  805374:	3240b926 	beq	r6,r9,80565c <_realloc_r+0x408>
  805378:	31400117 	ldw	r5,4(r6)
  80537c:	00bfff84 	movi	r2,-2
  805380:	2884703a 	and	r2,r5,r2
  805384:	1185883a 	add	r2,r2,r6
  805388:	10c00117 	ldw	r3,4(r2)
  80538c:	18c0004c 	andi	r3,r3,1
  805390:	1807003a 	cmpeq	r3,r3,zero
  805394:	1800a326 	beq	r3,zero,805624 <_realloc_r+0x3d0>
  805398:	2908703a 	and	r4,r5,r4
  80539c:	9929883a 	add	r20,r19,r4
  8053a0:	a1c0a30e 	bge	r20,r7,805630 <_realloc_r+0x3dc>
  8053a4:	4080004c 	andi	r2,r8,1
  8053a8:	1000551e 	bne	r2,zero,805500 <_realloc_r+0x2ac>
  8053ac:	80800017 	ldw	r2,0(r16)
  8053b0:	80afc83a 	sub	r23,r16,r2
  8053b4:	b8c00117 	ldw	r3,4(r23)
  8053b8:	00bfff04 	movi	r2,-4
  8053bc:	1884703a 	and	r2,r3,r2
  8053c0:	30002e26 	beq	r6,zero,80547c <_realloc_r+0x228>
  8053c4:	3240b926 	beq	r6,r9,8056ac <_realloc_r+0x458>
  8053c8:	98a9883a 	add	r20,r19,r2
  8053cc:	2509883a 	add	r4,r4,r20
  8053d0:	d9000015 	stw	r4,0(sp)
  8053d4:	21c02a16 	blt	r4,r7,805480 <_realloc_r+0x22c>
  8053d8:	30800317 	ldw	r2,12(r6)
  8053dc:	30c00217 	ldw	r3,8(r6)
  8053e0:	01400904 	movi	r5,36
  8053e4:	99bfff04 	addi	r6,r19,-4
  8053e8:	18800315 	stw	r2,12(r3)
  8053ec:	10c00215 	stw	r3,8(r2)
  8053f0:	b9000317 	ldw	r4,12(r23)
  8053f4:	b8800217 	ldw	r2,8(r23)
  8053f8:	b82b883a 	mov	r21,r23
  8053fc:	bc000204 	addi	r16,r23,8
  805400:	20800215 	stw	r2,8(r4)
  805404:	11000315 	stw	r4,12(r2)
  805408:	2980e436 	bltu	r5,r6,80579c <_realloc_r+0x548>
  80540c:	008004c4 	movi	r2,19
  805410:	9009883a 	mov	r4,r18
  805414:	8011883a 	mov	r8,r16
  805418:	11800f2e 	bgeu	r2,r6,805458 <_realloc_r+0x204>
  80541c:	90800017 	ldw	r2,0(r18)
  805420:	ba000404 	addi	r8,r23,16
  805424:	91000204 	addi	r4,r18,8
  805428:	b8800215 	stw	r2,8(r23)
  80542c:	90c00117 	ldw	r3,4(r18)
  805430:	008006c4 	movi	r2,27
  805434:	b8c00315 	stw	r3,12(r23)
  805438:	1180072e 	bgeu	r2,r6,805458 <_realloc_r+0x204>
  80543c:	90c00217 	ldw	r3,8(r18)
  805440:	ba000604 	addi	r8,r23,24
  805444:	91000404 	addi	r4,r18,16
  805448:	b8c00415 	stw	r3,16(r23)
  80544c:	90800317 	ldw	r2,12(r18)
  805450:	b8800515 	stw	r2,20(r23)
  805454:	3140e726 	beq	r6,r5,8057f4 <_realloc_r+0x5a0>
  805458:	20800017 	ldw	r2,0(r4)
  80545c:	dd000017 	ldw	r20,0(sp)
  805460:	b80f883a 	mov	r7,r23
  805464:	40800015 	stw	r2,0(r8)
  805468:	20c00117 	ldw	r3,4(r4)
  80546c:	40c00115 	stw	r3,4(r8)
  805470:	20800217 	ldw	r2,8(r4)
  805474:	40800215 	stw	r2,8(r8)
  805478:	003f9706 	br	8052d8 <_realloc_r+0x84>
  80547c:	98a9883a 	add	r20,r19,r2
  805480:	a1c01f16 	blt	r20,r7,805500 <_realloc_r+0x2ac>
  805484:	b8c00317 	ldw	r3,12(r23)
  805488:	b8800217 	ldw	r2,8(r23)
  80548c:	99bfff04 	addi	r6,r19,-4
  805490:	01400904 	movi	r5,36
  805494:	b82b883a 	mov	r21,r23
  805498:	18800215 	stw	r2,8(r3)
  80549c:	10c00315 	stw	r3,12(r2)
  8054a0:	bc000204 	addi	r16,r23,8
  8054a4:	2980c336 	bltu	r5,r6,8057b4 <_realloc_r+0x560>
  8054a8:	008004c4 	movi	r2,19
  8054ac:	9009883a 	mov	r4,r18
  8054b0:	8011883a 	mov	r8,r16
  8054b4:	11800f2e 	bgeu	r2,r6,8054f4 <_realloc_r+0x2a0>
  8054b8:	90800017 	ldw	r2,0(r18)
  8054bc:	ba000404 	addi	r8,r23,16
  8054c0:	91000204 	addi	r4,r18,8
  8054c4:	b8800215 	stw	r2,8(r23)
  8054c8:	90c00117 	ldw	r3,4(r18)
  8054cc:	008006c4 	movi	r2,27
  8054d0:	b8c00315 	stw	r3,12(r23)
  8054d4:	1180072e 	bgeu	r2,r6,8054f4 <_realloc_r+0x2a0>
  8054d8:	90c00217 	ldw	r3,8(r18)
  8054dc:	ba000604 	addi	r8,r23,24
  8054e0:	91000404 	addi	r4,r18,16
  8054e4:	b8c00415 	stw	r3,16(r23)
  8054e8:	90800317 	ldw	r2,12(r18)
  8054ec:	b8800515 	stw	r2,20(r23)
  8054f0:	3140c726 	beq	r6,r5,805810 <_realloc_r+0x5bc>
  8054f4:	20800017 	ldw	r2,0(r4)
  8054f8:	b80f883a 	mov	r7,r23
  8054fc:	003fd906 	br	805464 <_realloc_r+0x210>
  805500:	880b883a 	mov	r5,r17
  805504:	b009883a 	mov	r4,r22
  805508:	08048b00 	call	8048b0 <_malloc_r>
  80550c:	1023883a 	mov	r17,r2
  805510:	10002526 	beq	r2,zero,8055a8 <_realloc_r+0x354>
  805514:	80800117 	ldw	r2,4(r16)
  805518:	00ffff84 	movi	r3,-2
  80551c:	893ffe04 	addi	r4,r17,-8
  805520:	10c4703a 	and	r2,r2,r3
  805524:	8085883a 	add	r2,r16,r2
  805528:	20809526 	beq	r4,r2,805780 <_realloc_r+0x52c>
  80552c:	99bfff04 	addi	r6,r19,-4
  805530:	01c00904 	movi	r7,36
  805534:	39804536 	bltu	r7,r6,80564c <_realloc_r+0x3f8>
  805538:	008004c4 	movi	r2,19
  80553c:	9009883a 	mov	r4,r18
  805540:	880b883a 	mov	r5,r17
  805544:	11800f2e 	bgeu	r2,r6,805584 <_realloc_r+0x330>
  805548:	90800017 	ldw	r2,0(r18)
  80554c:	89400204 	addi	r5,r17,8
  805550:	91000204 	addi	r4,r18,8
  805554:	88800015 	stw	r2,0(r17)
  805558:	90c00117 	ldw	r3,4(r18)
  80555c:	008006c4 	movi	r2,27
  805560:	88c00115 	stw	r3,4(r17)
  805564:	1180072e 	bgeu	r2,r6,805584 <_realloc_r+0x330>
  805568:	90c00217 	ldw	r3,8(r18)
  80556c:	89400404 	addi	r5,r17,16
  805570:	91000404 	addi	r4,r18,16
  805574:	88c00215 	stw	r3,8(r17)
  805578:	90800317 	ldw	r2,12(r18)
  80557c:	88800315 	stw	r2,12(r17)
  805580:	31c09126 	beq	r6,r7,8057c8 <_realloc_r+0x574>
  805584:	20800017 	ldw	r2,0(r4)
  805588:	28800015 	stw	r2,0(r5)
  80558c:	20c00117 	ldw	r3,4(r4)
  805590:	28c00115 	stw	r3,4(r5)
  805594:	20800217 	ldw	r2,8(r4)
  805598:	28800215 	stw	r2,8(r5)
  80559c:	900b883a 	mov	r5,r18
  8055a0:	b009883a 	mov	r4,r22
  8055a4:	08060100 	call	806010 <_free_r>
  8055a8:	b009883a 	mov	r4,r22
  8055ac:	08075b40 	call	8075b4 <__malloc_unlock>
  8055b0:	003f5e06 	br	80532c <_realloc_r+0xd8>
  8055b4:	300b883a 	mov	r5,r6
  8055b8:	dfc00b17 	ldw	ra,44(sp)
  8055bc:	df000a17 	ldw	fp,40(sp)
  8055c0:	ddc00917 	ldw	r23,36(sp)
  8055c4:	dd800817 	ldw	r22,32(sp)
  8055c8:	dd400717 	ldw	r21,28(sp)
  8055cc:	dd000617 	ldw	r20,24(sp)
  8055d0:	dcc00517 	ldw	r19,20(sp)
  8055d4:	dc800417 	ldw	r18,16(sp)
  8055d8:	dc400317 	ldw	r17,12(sp)
  8055dc:	dc000217 	ldw	r16,8(sp)
  8055e0:	dec00c04 	addi	sp,sp,48
  8055e4:	08048b01 	jmpi	8048b0 <_malloc_r>
  8055e8:	38800117 	ldw	r2,4(r7)
  8055ec:	e54b883a 	add	r5,fp,r21
  8055f0:	31000054 	ori	r4,r6,1
  8055f4:	1080004c 	andi	r2,r2,1
  8055f8:	1704b03a 	or	r2,r2,fp
  8055fc:	38800115 	stw	r2,4(r7)
  805600:	29000115 	stw	r4,4(r5)
  805604:	2987883a 	add	r3,r5,r6
  805608:	18800117 	ldw	r2,4(r3)
  80560c:	29400204 	addi	r5,r5,8
  805610:	b009883a 	mov	r4,r22
  805614:	10800054 	ori	r2,r2,1
  805618:	18800115 	stw	r2,4(r3)
  80561c:	08060100 	call	806010 <_free_r>
  805620:	003f3806 	br	805304 <_realloc_r+0xb0>
  805624:	000d883a 	mov	r6,zero
  805628:	0009883a 	mov	r4,zero
  80562c:	003f5d06 	br	8053a4 <_realloc_r+0x150>
  805630:	30c00217 	ldw	r3,8(r6)
  805634:	30800317 	ldw	r2,12(r6)
  805638:	800f883a 	mov	r7,r16
  80563c:	84000204 	addi	r16,r16,8
  805640:	10c00215 	stw	r3,8(r2)
  805644:	18800315 	stw	r2,12(r3)
  805648:	003f2306 	br	8052d8 <_realloc_r+0x84>
  80564c:	8809883a 	mov	r4,r17
  805650:	900b883a 	mov	r5,r18
  805654:	08051740 	call	805174 <memmove>
  805658:	003fd006 	br	80559c <_realloc_r+0x348>
  80565c:	30800117 	ldw	r2,4(r6)
  805660:	e0c00404 	addi	r3,fp,16
  805664:	1108703a 	and	r4,r2,r4
  805668:	9905883a 	add	r2,r19,r4
  80566c:	10ff4d16 	blt	r2,r3,8053a4 <_realloc_r+0x150>
  805670:	1705c83a 	sub	r2,r2,fp
  805674:	870b883a 	add	r5,r16,fp
  805678:	10800054 	ori	r2,r2,1
  80567c:	28800115 	stw	r2,4(r5)
  805680:	80c00117 	ldw	r3,4(r16)
  805684:	00802074 	movhi	r2,129
  805688:	10af2204 	addi	r2,r2,-17272
  80568c:	b009883a 	mov	r4,r22
  805690:	18c0004c 	andi	r3,r3,1
  805694:	e0c6b03a 	or	r3,fp,r3
  805698:	11400215 	stw	r5,8(r2)
  80569c:	80c00115 	stw	r3,4(r16)
  8056a0:	08075b40 	call	8075b4 <__malloc_unlock>
  8056a4:	84400204 	addi	r17,r16,8
  8056a8:	003f2006 	br	80532c <_realloc_r+0xd8>
  8056ac:	98a9883a 	add	r20,r19,r2
  8056b0:	2509883a 	add	r4,r4,r20
  8056b4:	e0800404 	addi	r2,fp,16
  8056b8:	d9000115 	stw	r4,4(sp)
  8056bc:	20bf7016 	blt	r4,r2,805480 <_realloc_r+0x22c>
  8056c0:	b8c00317 	ldw	r3,12(r23)
  8056c4:	b8800217 	ldw	r2,8(r23)
  8056c8:	99bfff04 	addi	r6,r19,-4
  8056cc:	01400904 	movi	r5,36
  8056d0:	18800215 	stw	r2,8(r3)
  8056d4:	10c00315 	stw	r3,12(r2)
  8056d8:	bc400204 	addi	r17,r23,8
  8056dc:	29804136 	bltu	r5,r6,8057e4 <_realloc_r+0x590>
  8056e0:	008004c4 	movi	r2,19
  8056e4:	9009883a 	mov	r4,r18
  8056e8:	880f883a 	mov	r7,r17
  8056ec:	11800f2e 	bgeu	r2,r6,80572c <_realloc_r+0x4d8>
  8056f0:	90800017 	ldw	r2,0(r18)
  8056f4:	b9c00404 	addi	r7,r23,16
  8056f8:	91000204 	addi	r4,r18,8
  8056fc:	b8800215 	stw	r2,8(r23)
  805700:	90c00117 	ldw	r3,4(r18)
  805704:	008006c4 	movi	r2,27
  805708:	b8c00315 	stw	r3,12(r23)
  80570c:	1180072e 	bgeu	r2,r6,80572c <_realloc_r+0x4d8>
  805710:	90c00217 	ldw	r3,8(r18)
  805714:	b9c00604 	addi	r7,r23,24
  805718:	91000404 	addi	r4,r18,16
  80571c:	b8c00415 	stw	r3,16(r23)
  805720:	90800317 	ldw	r2,12(r18)
  805724:	b8800515 	stw	r2,20(r23)
  805728:	31404026 	beq	r6,r5,80582c <_realloc_r+0x5d8>
  80572c:	20800017 	ldw	r2,0(r4)
  805730:	38800015 	stw	r2,0(r7)
  805734:	20c00117 	ldw	r3,4(r4)
  805738:	38c00115 	stw	r3,4(r7)
  80573c:	20800217 	ldw	r2,8(r4)
  805740:	38800215 	stw	r2,8(r7)
  805744:	d8c00117 	ldw	r3,4(sp)
  805748:	bf0b883a 	add	r5,r23,fp
  80574c:	b009883a 	mov	r4,r22
  805750:	1f05c83a 	sub	r2,r3,fp
  805754:	10800054 	ori	r2,r2,1
  805758:	28800115 	stw	r2,4(r5)
  80575c:	b8c00117 	ldw	r3,4(r23)
  805760:	00802074 	movhi	r2,129
  805764:	10af2204 	addi	r2,r2,-17272
  805768:	11400215 	stw	r5,8(r2)
  80576c:	18c0004c 	andi	r3,r3,1
  805770:	e0c6b03a 	or	r3,fp,r3
  805774:	b8c00115 	stw	r3,4(r23)
  805778:	08075b40 	call	8075b4 <__malloc_unlock>
  80577c:	003eeb06 	br	80532c <_realloc_r+0xd8>
  805780:	20800117 	ldw	r2,4(r4)
  805784:	00ffff04 	movi	r3,-4
  805788:	800f883a 	mov	r7,r16
  80578c:	10c4703a 	and	r2,r2,r3
  805790:	98a9883a 	add	r20,r19,r2
  805794:	84000204 	addi	r16,r16,8
  805798:	003ecf06 	br	8052d8 <_realloc_r+0x84>
  80579c:	900b883a 	mov	r5,r18
  8057a0:	8009883a 	mov	r4,r16
  8057a4:	08051740 	call	805174 <memmove>
  8057a8:	dd000017 	ldw	r20,0(sp)
  8057ac:	b80f883a 	mov	r7,r23
  8057b0:	003ec906 	br	8052d8 <_realloc_r+0x84>
  8057b4:	900b883a 	mov	r5,r18
  8057b8:	8009883a 	mov	r4,r16
  8057bc:	08051740 	call	805174 <memmove>
  8057c0:	b80f883a 	mov	r7,r23
  8057c4:	003ec406 	br	8052d8 <_realloc_r+0x84>
  8057c8:	90c00417 	ldw	r3,16(r18)
  8057cc:	89400604 	addi	r5,r17,24
  8057d0:	91000604 	addi	r4,r18,24
  8057d4:	88c00415 	stw	r3,16(r17)
  8057d8:	90800517 	ldw	r2,20(r18)
  8057dc:	88800515 	stw	r2,20(r17)
  8057e0:	003f6806 	br	805584 <_realloc_r+0x330>
  8057e4:	900b883a 	mov	r5,r18
  8057e8:	8809883a 	mov	r4,r17
  8057ec:	08051740 	call	805174 <memmove>
  8057f0:	003fd406 	br	805744 <_realloc_r+0x4f0>
  8057f4:	90c00417 	ldw	r3,16(r18)
  8057f8:	91000604 	addi	r4,r18,24
  8057fc:	ba000804 	addi	r8,r23,32
  805800:	b8c00615 	stw	r3,24(r23)
  805804:	90800517 	ldw	r2,20(r18)
  805808:	b8800715 	stw	r2,28(r23)
  80580c:	003f1206 	br	805458 <_realloc_r+0x204>
  805810:	90c00417 	ldw	r3,16(r18)
  805814:	91000604 	addi	r4,r18,24
  805818:	ba000804 	addi	r8,r23,32
  80581c:	b8c00615 	stw	r3,24(r23)
  805820:	90800517 	ldw	r2,20(r18)
  805824:	b8800715 	stw	r2,28(r23)
  805828:	003f3206 	br	8054f4 <_realloc_r+0x2a0>
  80582c:	90c00417 	ldw	r3,16(r18)
  805830:	91000604 	addi	r4,r18,24
  805834:	b9c00804 	addi	r7,r23,32
  805838:	b8c00615 	stw	r3,24(r23)
  80583c:	90800517 	ldw	r2,20(r18)
  805840:	b8800715 	stw	r2,28(r23)
  805844:	003fb906 	br	80572c <_realloc_r+0x4d8>

00805848 <_sbrk_r>:
  805848:	defffd04 	addi	sp,sp,-12
  80584c:	dc000015 	stw	r16,0(sp)
  805850:	04002074 	movhi	r16,129
  805854:	843c9d04 	addi	r16,r16,-3468
  805858:	dc400115 	stw	r17,4(sp)
  80585c:	80000015 	stw	zero,0(r16)
  805860:	2023883a 	mov	r17,r4
  805864:	2809883a 	mov	r4,r5
  805868:	dfc00215 	stw	ra,8(sp)
  80586c:	0807a780 	call	807a78 <sbrk>
  805870:	1007883a 	mov	r3,r2
  805874:	00bfffc4 	movi	r2,-1
  805878:	18800626 	beq	r3,r2,805894 <_sbrk_r+0x4c>
  80587c:	1805883a 	mov	r2,r3
  805880:	dfc00217 	ldw	ra,8(sp)
  805884:	dc400117 	ldw	r17,4(sp)
  805888:	dc000017 	ldw	r16,0(sp)
  80588c:	dec00304 	addi	sp,sp,12
  805890:	f800283a 	ret
  805894:	80800017 	ldw	r2,0(r16)
  805898:	103ff826 	beq	r2,zero,80587c <_sbrk_r+0x34>
  80589c:	88800015 	stw	r2,0(r17)
  8058a0:	1805883a 	mov	r2,r3
  8058a4:	dfc00217 	ldw	ra,8(sp)
  8058a8:	dc400117 	ldw	r17,4(sp)
  8058ac:	dc000017 	ldw	r16,0(sp)
  8058b0:	dec00304 	addi	sp,sp,12
  8058b4:	f800283a 	ret

008058b8 <__swsetup_r>:
  8058b8:	00802074 	movhi	r2,129
  8058bc:	10b52004 	addi	r2,r2,-11136
  8058c0:	10c00017 	ldw	r3,0(r2)
  8058c4:	defffd04 	addi	sp,sp,-12
  8058c8:	dc400115 	stw	r17,4(sp)
  8058cc:	dc000015 	stw	r16,0(sp)
  8058d0:	dfc00215 	stw	ra,8(sp)
  8058d4:	2023883a 	mov	r17,r4
  8058d8:	2821883a 	mov	r16,r5
  8058dc:	18000226 	beq	r3,zero,8058e8 <__swsetup_r+0x30>
  8058e0:	18800e17 	ldw	r2,56(r3)
  8058e4:	10001f26 	beq	r2,zero,805964 <__swsetup_r+0xac>
  8058e8:	8100030b 	ldhu	r4,12(r16)
  8058ec:	2080020c 	andi	r2,r4,8
  8058f0:	10002826 	beq	r2,zero,805994 <__swsetup_r+0xdc>
  8058f4:	81400417 	ldw	r5,16(r16)
  8058f8:	28001d26 	beq	r5,zero,805970 <__swsetup_r+0xb8>
  8058fc:	2080004c 	andi	r2,r4,1
  805900:	1005003a 	cmpeq	r2,r2,zero
  805904:	10000b26 	beq	r2,zero,805934 <__swsetup_r+0x7c>
  805908:	2080008c 	andi	r2,r4,2
  80590c:	10001226 	beq	r2,zero,805958 <__swsetup_r+0xa0>
  805910:	0005883a 	mov	r2,zero
  805914:	80800215 	stw	r2,8(r16)
  805918:	28000b26 	beq	r5,zero,805948 <__swsetup_r+0x90>
  80591c:	0005883a 	mov	r2,zero
  805920:	dfc00217 	ldw	ra,8(sp)
  805924:	dc400117 	ldw	r17,4(sp)
  805928:	dc000017 	ldw	r16,0(sp)
  80592c:	dec00304 	addi	sp,sp,12
  805930:	f800283a 	ret
  805934:	80800517 	ldw	r2,20(r16)
  805938:	80000215 	stw	zero,8(r16)
  80593c:	0085c83a 	sub	r2,zero,r2
  805940:	80800615 	stw	r2,24(r16)
  805944:	283ff51e 	bne	r5,zero,80591c <__swsetup_r+0x64>
  805948:	2080200c 	andi	r2,r4,128
  80594c:	103ff326 	beq	r2,zero,80591c <__swsetup_r+0x64>
  805950:	00bfffc4 	movi	r2,-1
  805954:	003ff206 	br	805920 <__swsetup_r+0x68>
  805958:	80800517 	ldw	r2,20(r16)
  80595c:	80800215 	stw	r2,8(r16)
  805960:	003fed06 	br	805918 <__swsetup_r+0x60>
  805964:	1809883a 	mov	r4,r3
  805968:	0805c8c0 	call	805c8c <__sinit>
  80596c:	003fde06 	br	8058e8 <__swsetup_r+0x30>
  805970:	20c0a00c 	andi	r3,r4,640
  805974:	00808004 	movi	r2,512
  805978:	18bfe026 	beq	r3,r2,8058fc <__swsetup_r+0x44>
  80597c:	8809883a 	mov	r4,r17
  805980:	800b883a 	mov	r5,r16
  805984:	08064a40 	call	8064a4 <__smakebuf_r>
  805988:	8100030b 	ldhu	r4,12(r16)
  80598c:	81400417 	ldw	r5,16(r16)
  805990:	003fda06 	br	8058fc <__swsetup_r+0x44>
  805994:	2080040c 	andi	r2,r4,16
  805998:	103fed26 	beq	r2,zero,805950 <__swsetup_r+0x98>
  80599c:	2080010c 	andi	r2,r4,4
  8059a0:	10001226 	beq	r2,zero,8059ec <__swsetup_r+0x134>
  8059a4:	81400c17 	ldw	r5,48(r16)
  8059a8:	28000526 	beq	r5,zero,8059c0 <__swsetup_r+0x108>
  8059ac:	80801004 	addi	r2,r16,64
  8059b0:	28800226 	beq	r5,r2,8059bc <__swsetup_r+0x104>
  8059b4:	8809883a 	mov	r4,r17
  8059b8:	08060100 	call	806010 <_free_r>
  8059bc:	80000c15 	stw	zero,48(r16)
  8059c0:	8080030b 	ldhu	r2,12(r16)
  8059c4:	81400417 	ldw	r5,16(r16)
  8059c8:	80000115 	stw	zero,4(r16)
  8059cc:	10bff6cc 	andi	r2,r2,65499
  8059d0:	8080030d 	sth	r2,12(r16)
  8059d4:	81400015 	stw	r5,0(r16)
  8059d8:	8080030b 	ldhu	r2,12(r16)
  8059dc:	10800214 	ori	r2,r2,8
  8059e0:	113fffcc 	andi	r4,r2,65535
  8059e4:	8080030d 	sth	r2,12(r16)
  8059e8:	003fc306 	br	8058f8 <__swsetup_r+0x40>
  8059ec:	81400417 	ldw	r5,16(r16)
  8059f0:	003ff906 	br	8059d8 <__swsetup_r+0x120>

008059f4 <_fflush_r>:
  8059f4:	defffb04 	addi	sp,sp,-20
  8059f8:	dcc00315 	stw	r19,12(sp)
  8059fc:	dc800215 	stw	r18,8(sp)
  805a00:	dfc00415 	stw	ra,16(sp)
  805a04:	dc400115 	stw	r17,4(sp)
  805a08:	dc000015 	stw	r16,0(sp)
  805a0c:	2027883a 	mov	r19,r4
  805a10:	2825883a 	mov	r18,r5
  805a14:	20000226 	beq	r4,zero,805a20 <_fflush_r+0x2c>
  805a18:	20800e17 	ldw	r2,56(r4)
  805a1c:	10005626 	beq	r2,zero,805b78 <_fflush_r+0x184>
  805a20:	9100030b 	ldhu	r4,12(r18)
  805a24:	20ffffcc 	andi	r3,r4,65535
  805a28:	18e0001c 	xori	r3,r3,32768
  805a2c:	18e00004 	addi	r3,r3,-32768
  805a30:	1880020c 	andi	r2,r3,8
  805a34:	1000261e 	bne	r2,zero,805ad0 <_fflush_r+0xdc>
  805a38:	90c00117 	ldw	r3,4(r18)
  805a3c:	20820014 	ori	r2,r4,2048
  805a40:	9080030d 	sth	r2,12(r18)
  805a44:	1009883a 	mov	r4,r2
  805a48:	00c0400e 	bge	zero,r3,805b4c <_fflush_r+0x158>
  805a4c:	92000a17 	ldw	r8,40(r18)
  805a50:	40004026 	beq	r8,zero,805b54 <_fflush_r+0x160>
  805a54:	2084000c 	andi	r2,r4,4096
  805a58:	10005326 	beq	r2,zero,805ba8 <_fflush_r+0x1b4>
  805a5c:	94001417 	ldw	r16,80(r18)
  805a60:	9080030b 	ldhu	r2,12(r18)
  805a64:	1080010c 	andi	r2,r2,4
  805a68:	1000481e 	bne	r2,zero,805b8c <_fflush_r+0x198>
  805a6c:	91400717 	ldw	r5,28(r18)
  805a70:	9809883a 	mov	r4,r19
  805a74:	800d883a 	mov	r6,r16
  805a78:	000f883a 	mov	r7,zero
  805a7c:	403ee83a 	callr	r8
  805a80:	8080261e 	bne	r16,r2,805b1c <_fflush_r+0x128>
  805a84:	9080030b 	ldhu	r2,12(r18)
  805a88:	91000417 	ldw	r4,16(r18)
  805a8c:	90000115 	stw	zero,4(r18)
  805a90:	10bdffcc 	andi	r2,r2,63487
  805a94:	10ffffcc 	andi	r3,r2,65535
  805a98:	18c4000c 	andi	r3,r3,4096
  805a9c:	9080030d 	sth	r2,12(r18)
  805aa0:	91000015 	stw	r4,0(r18)
  805aa4:	18002b26 	beq	r3,zero,805b54 <_fflush_r+0x160>
  805aa8:	0007883a 	mov	r3,zero
  805aac:	1805883a 	mov	r2,r3
  805ab0:	94001415 	stw	r16,80(r18)
  805ab4:	dfc00417 	ldw	ra,16(sp)
  805ab8:	dcc00317 	ldw	r19,12(sp)
  805abc:	dc800217 	ldw	r18,8(sp)
  805ac0:	dc400117 	ldw	r17,4(sp)
  805ac4:	dc000017 	ldw	r16,0(sp)
  805ac8:	dec00504 	addi	sp,sp,20
  805acc:	f800283a 	ret
  805ad0:	94400417 	ldw	r17,16(r18)
  805ad4:	88001f26 	beq	r17,zero,805b54 <_fflush_r+0x160>
  805ad8:	90800017 	ldw	r2,0(r18)
  805adc:	18c000cc 	andi	r3,r3,3
  805ae0:	94400015 	stw	r17,0(r18)
  805ae4:	1461c83a 	sub	r16,r2,r17
  805ae8:	18002526 	beq	r3,zero,805b80 <_fflush_r+0x18c>
  805aec:	0005883a 	mov	r2,zero
  805af0:	90800215 	stw	r2,8(r18)
  805af4:	0400170e 	bge	zero,r16,805b54 <_fflush_r+0x160>
  805af8:	90c00917 	ldw	r3,36(r18)
  805afc:	91400717 	ldw	r5,28(r18)
  805b00:	880d883a 	mov	r6,r17
  805b04:	800f883a 	mov	r7,r16
  805b08:	9809883a 	mov	r4,r19
  805b0c:	183ee83a 	callr	r3
  805b10:	88a3883a 	add	r17,r17,r2
  805b14:	80a1c83a 	sub	r16,r16,r2
  805b18:	00bff616 	blt	zero,r2,805af4 <_fflush_r+0x100>
  805b1c:	9080030b 	ldhu	r2,12(r18)
  805b20:	00ffffc4 	movi	r3,-1
  805b24:	10801014 	ori	r2,r2,64
  805b28:	9080030d 	sth	r2,12(r18)
  805b2c:	1805883a 	mov	r2,r3
  805b30:	dfc00417 	ldw	ra,16(sp)
  805b34:	dcc00317 	ldw	r19,12(sp)
  805b38:	dc800217 	ldw	r18,8(sp)
  805b3c:	dc400117 	ldw	r17,4(sp)
  805b40:	dc000017 	ldw	r16,0(sp)
  805b44:	dec00504 	addi	sp,sp,20
  805b48:	f800283a 	ret
  805b4c:	90800f17 	ldw	r2,60(r18)
  805b50:	00bfbe16 	blt	zero,r2,805a4c <_fflush_r+0x58>
  805b54:	0007883a 	mov	r3,zero
  805b58:	1805883a 	mov	r2,r3
  805b5c:	dfc00417 	ldw	ra,16(sp)
  805b60:	dcc00317 	ldw	r19,12(sp)
  805b64:	dc800217 	ldw	r18,8(sp)
  805b68:	dc400117 	ldw	r17,4(sp)
  805b6c:	dc000017 	ldw	r16,0(sp)
  805b70:	dec00504 	addi	sp,sp,20
  805b74:	f800283a 	ret
  805b78:	0805c8c0 	call	805c8c <__sinit>
  805b7c:	003fa806 	br	805a20 <_fflush_r+0x2c>
  805b80:	90800517 	ldw	r2,20(r18)
  805b84:	90800215 	stw	r2,8(r18)
  805b88:	003fda06 	br	805af4 <_fflush_r+0x100>
  805b8c:	90800117 	ldw	r2,4(r18)
  805b90:	90c00c17 	ldw	r3,48(r18)
  805b94:	80a1c83a 	sub	r16,r16,r2
  805b98:	183fb426 	beq	r3,zero,805a6c <_fflush_r+0x78>
  805b9c:	90800f17 	ldw	r2,60(r18)
  805ba0:	80a1c83a 	sub	r16,r16,r2
  805ba4:	003fb106 	br	805a6c <_fflush_r+0x78>
  805ba8:	91400717 	ldw	r5,28(r18)
  805bac:	9809883a 	mov	r4,r19
  805bb0:	000d883a 	mov	r6,zero
  805bb4:	01c00044 	movi	r7,1
  805bb8:	403ee83a 	callr	r8
  805bbc:	1021883a 	mov	r16,r2
  805bc0:	00bfffc4 	movi	r2,-1
  805bc4:	80800226 	beq	r16,r2,805bd0 <_fflush_r+0x1dc>
  805bc8:	92000a17 	ldw	r8,40(r18)
  805bcc:	003fa406 	br	805a60 <_fflush_r+0x6c>
  805bd0:	98c00017 	ldw	r3,0(r19)
  805bd4:	00800744 	movi	r2,29
  805bd8:	18bfde26 	beq	r3,r2,805b54 <_fflush_r+0x160>
  805bdc:	9080030b 	ldhu	r2,12(r18)
  805be0:	8007883a 	mov	r3,r16
  805be4:	10801014 	ori	r2,r2,64
  805be8:	9080030d 	sth	r2,12(r18)
  805bec:	003fcf06 	br	805b2c <_fflush_r+0x138>

00805bf0 <fflush>:
  805bf0:	01402034 	movhi	r5,128
  805bf4:	29567d04 	addi	r5,r5,23028
  805bf8:	2007883a 	mov	r3,r4
  805bfc:	20000526 	beq	r4,zero,805c14 <fflush+0x24>
  805c00:	00802074 	movhi	r2,129
  805c04:	10b52004 	addi	r2,r2,-11136
  805c08:	11000017 	ldw	r4,0(r2)
  805c0c:	180b883a 	mov	r5,r3
  805c10:	08059f41 	jmpi	8059f4 <_fflush_r>
  805c14:	00802074 	movhi	r2,129
  805c18:	10b52104 	addi	r2,r2,-11132
  805c1c:	11000017 	ldw	r4,0(r2)
  805c20:	08063241 	jmpi	806324 <_fwalk_reent>

00805c24 <std>:
  805c24:	00802034 	movhi	r2,128
  805c28:	1099b404 	addi	r2,r2,26320
  805c2c:	20800b15 	stw	r2,44(r4)
  805c30:	00802034 	movhi	r2,128
  805c34:	1099ef04 	addi	r2,r2,26556
  805c38:	20800815 	stw	r2,32(r4)
  805c3c:	00c02034 	movhi	r3,128
  805c40:	18d9d004 	addi	r3,r3,26432
  805c44:	00802034 	movhi	r2,128
  805c48:	1099b604 	addi	r2,r2,26328
  805c4c:	2140030d 	sth	r5,12(r4)
  805c50:	2180038d 	sth	r6,14(r4)
  805c54:	20c00915 	stw	r3,36(r4)
  805c58:	20800a15 	stw	r2,40(r4)
  805c5c:	20000015 	stw	zero,0(r4)
  805c60:	20000115 	stw	zero,4(r4)
  805c64:	20000215 	stw	zero,8(r4)
  805c68:	20000415 	stw	zero,16(r4)
  805c6c:	20000515 	stw	zero,20(r4)
  805c70:	20000615 	stw	zero,24(r4)
  805c74:	21000715 	stw	r4,28(r4)
  805c78:	f800283a 	ret

00805c7c <__sfp_lock_acquire>:
  805c7c:	f800283a 	ret

00805c80 <__sfp_lock_release>:
  805c80:	f800283a 	ret

00805c84 <__sinit_lock_acquire>:
  805c84:	f800283a 	ret

00805c88 <__sinit_lock_release>:
  805c88:	f800283a 	ret

00805c8c <__sinit>:
  805c8c:	20800e17 	ldw	r2,56(r4)
  805c90:	defffd04 	addi	sp,sp,-12
  805c94:	dc400115 	stw	r17,4(sp)
  805c98:	dc000015 	stw	r16,0(sp)
  805c9c:	dfc00215 	stw	ra,8(sp)
  805ca0:	04400044 	movi	r17,1
  805ca4:	01400104 	movi	r5,4
  805ca8:	000d883a 	mov	r6,zero
  805cac:	2021883a 	mov	r16,r4
  805cb0:	2200bb04 	addi	r8,r4,748
  805cb4:	200f883a 	mov	r7,r4
  805cb8:	10000526 	beq	r2,zero,805cd0 <__sinit+0x44>
  805cbc:	dfc00217 	ldw	ra,8(sp)
  805cc0:	dc400117 	ldw	r17,4(sp)
  805cc4:	dc000017 	ldw	r16,0(sp)
  805cc8:	dec00304 	addi	sp,sp,12
  805ccc:	f800283a 	ret
  805cd0:	21000117 	ldw	r4,4(r4)
  805cd4:	00802034 	movhi	r2,128
  805cd8:	10975c04 	addi	r2,r2,23920
  805cdc:	00c000c4 	movi	r3,3
  805ce0:	80800f15 	stw	r2,60(r16)
  805ce4:	80c0b915 	stw	r3,740(r16)
  805ce8:	8200ba15 	stw	r8,744(r16)
  805cec:	84400e15 	stw	r17,56(r16)
  805cf0:	8000b815 	stw	zero,736(r16)
  805cf4:	0805c240 	call	805c24 <std>
  805cf8:	81000217 	ldw	r4,8(r16)
  805cfc:	880d883a 	mov	r6,r17
  805d00:	800f883a 	mov	r7,r16
  805d04:	01400284 	movi	r5,10
  805d08:	0805c240 	call	805c24 <std>
  805d0c:	81000317 	ldw	r4,12(r16)
  805d10:	800f883a 	mov	r7,r16
  805d14:	01400484 	movi	r5,18
  805d18:	01800084 	movi	r6,2
  805d1c:	dfc00217 	ldw	ra,8(sp)
  805d20:	dc400117 	ldw	r17,4(sp)
  805d24:	dc000017 	ldw	r16,0(sp)
  805d28:	dec00304 	addi	sp,sp,12
  805d2c:	0805c241 	jmpi	805c24 <std>

00805d30 <__fp_lock>:
  805d30:	0005883a 	mov	r2,zero
  805d34:	f800283a 	ret

00805d38 <__fp_unlock>:
  805d38:	0005883a 	mov	r2,zero
  805d3c:	f800283a 	ret

00805d40 <__fp_unlock_all>:
  805d40:	00802074 	movhi	r2,129
  805d44:	10b52004 	addi	r2,r2,-11136
  805d48:	11000017 	ldw	r4,0(r2)
  805d4c:	01402034 	movhi	r5,128
  805d50:	29574e04 	addi	r5,r5,23864
  805d54:	08063ec1 	jmpi	8063ec <_fwalk>

00805d58 <__fp_lock_all>:
  805d58:	00802074 	movhi	r2,129
  805d5c:	10b52004 	addi	r2,r2,-11136
  805d60:	11000017 	ldw	r4,0(r2)
  805d64:	01402034 	movhi	r5,128
  805d68:	29574c04 	addi	r5,r5,23856
  805d6c:	08063ec1 	jmpi	8063ec <_fwalk>

00805d70 <_cleanup_r>:
  805d70:	01402034 	movhi	r5,128
  805d74:	295a8504 	addi	r5,r5,27156
  805d78:	08063ec1 	jmpi	8063ec <_fwalk>

00805d7c <_cleanup>:
  805d7c:	00802074 	movhi	r2,129
  805d80:	10b52104 	addi	r2,r2,-11132
  805d84:	11000017 	ldw	r4,0(r2)
  805d88:	0805d701 	jmpi	805d70 <_cleanup_r>

00805d8c <__sfmoreglue>:
  805d8c:	defffc04 	addi	sp,sp,-16
  805d90:	dc400115 	stw	r17,4(sp)
  805d94:	2c401724 	muli	r17,r5,92
  805d98:	dc800215 	stw	r18,8(sp)
  805d9c:	2825883a 	mov	r18,r5
  805da0:	89400304 	addi	r5,r17,12
  805da4:	dc000015 	stw	r16,0(sp)
  805da8:	dfc00315 	stw	ra,12(sp)
  805dac:	08048b00 	call	8048b0 <_malloc_r>
  805db0:	0021883a 	mov	r16,zero
  805db4:	880d883a 	mov	r6,r17
  805db8:	000b883a 	mov	r5,zero
  805dbc:	10000626 	beq	r2,zero,805dd8 <__sfmoreglue+0x4c>
  805dc0:	11000304 	addi	r4,r2,12
  805dc4:	14800115 	stw	r18,4(r2)
  805dc8:	10000015 	stw	zero,0(r2)
  805dcc:	11000215 	stw	r4,8(r2)
  805dd0:	1021883a 	mov	r16,r2
  805dd4:	08066380 	call	806638 <memset>
  805dd8:	8005883a 	mov	r2,r16
  805ddc:	dfc00317 	ldw	ra,12(sp)
  805de0:	dc800217 	ldw	r18,8(sp)
  805de4:	dc400117 	ldw	r17,4(sp)
  805de8:	dc000017 	ldw	r16,0(sp)
  805dec:	dec00404 	addi	sp,sp,16
  805df0:	f800283a 	ret

00805df4 <__sfp>:
  805df4:	defffd04 	addi	sp,sp,-12
  805df8:	00802074 	movhi	r2,129
  805dfc:	10b52104 	addi	r2,r2,-11132
  805e00:	dc000015 	stw	r16,0(sp)
  805e04:	14000017 	ldw	r16,0(r2)
  805e08:	dc400115 	stw	r17,4(sp)
  805e0c:	dfc00215 	stw	ra,8(sp)
  805e10:	80800e17 	ldw	r2,56(r16)
  805e14:	2023883a 	mov	r17,r4
  805e18:	10002626 	beq	r2,zero,805eb4 <__sfp+0xc0>
  805e1c:	8400b804 	addi	r16,r16,736
  805e20:	80800117 	ldw	r2,4(r16)
  805e24:	81000217 	ldw	r4,8(r16)
  805e28:	10ffffc4 	addi	r3,r2,-1
  805e2c:	18000916 	blt	r3,zero,805e54 <__sfp+0x60>
  805e30:	2080030f 	ldh	r2,12(r4)
  805e34:	10000b26 	beq	r2,zero,805e64 <__sfp+0x70>
  805e38:	017fffc4 	movi	r5,-1
  805e3c:	00000206 	br	805e48 <__sfp+0x54>
  805e40:	2080030f 	ldh	r2,12(r4)
  805e44:	10000726 	beq	r2,zero,805e64 <__sfp+0x70>
  805e48:	18ffffc4 	addi	r3,r3,-1
  805e4c:	21001704 	addi	r4,r4,92
  805e50:	197ffb1e 	bne	r3,r5,805e40 <__sfp+0x4c>
  805e54:	80800017 	ldw	r2,0(r16)
  805e58:	10001926 	beq	r2,zero,805ec0 <__sfp+0xcc>
  805e5c:	1021883a 	mov	r16,r2
  805e60:	003fef06 	br	805e20 <__sfp+0x2c>
  805e64:	00bfffc4 	movi	r2,-1
  805e68:	00c00044 	movi	r3,1
  805e6c:	2080038d 	sth	r2,14(r4)
  805e70:	20c0030d 	sth	r3,12(r4)
  805e74:	20000015 	stw	zero,0(r4)
  805e78:	20000215 	stw	zero,8(r4)
  805e7c:	20000115 	stw	zero,4(r4)
  805e80:	20000415 	stw	zero,16(r4)
  805e84:	20000515 	stw	zero,20(r4)
  805e88:	20000615 	stw	zero,24(r4)
  805e8c:	20000c15 	stw	zero,48(r4)
  805e90:	20000d15 	stw	zero,52(r4)
  805e94:	20001115 	stw	zero,68(r4)
  805e98:	20001215 	stw	zero,72(r4)
  805e9c:	2005883a 	mov	r2,r4
  805ea0:	dfc00217 	ldw	ra,8(sp)
  805ea4:	dc400117 	ldw	r17,4(sp)
  805ea8:	dc000017 	ldw	r16,0(sp)
  805eac:	dec00304 	addi	sp,sp,12
  805eb0:	f800283a 	ret
  805eb4:	8009883a 	mov	r4,r16
  805eb8:	0805c8c0 	call	805c8c <__sinit>
  805ebc:	003fd706 	br	805e1c <__sfp+0x28>
  805ec0:	8809883a 	mov	r4,r17
  805ec4:	01400104 	movi	r5,4
  805ec8:	0805d8c0 	call	805d8c <__sfmoreglue>
  805ecc:	80800015 	stw	r2,0(r16)
  805ed0:	103fe21e 	bne	r2,zero,805e5c <__sfp+0x68>
  805ed4:	00800304 	movi	r2,12
  805ed8:	0009883a 	mov	r4,zero
  805edc:	88800015 	stw	r2,0(r17)
  805ee0:	003fee06 	br	805e9c <__sfp+0xa8>

00805ee4 <_malloc_trim_r>:
  805ee4:	defffb04 	addi	sp,sp,-20
  805ee8:	dcc00315 	stw	r19,12(sp)
  805eec:	04c02074 	movhi	r19,129
  805ef0:	9cef2204 	addi	r19,r19,-17272
  805ef4:	dc800215 	stw	r18,8(sp)
  805ef8:	dc400115 	stw	r17,4(sp)
  805efc:	dc000015 	stw	r16,0(sp)
  805f00:	2823883a 	mov	r17,r5
  805f04:	2025883a 	mov	r18,r4
  805f08:	dfc00415 	stw	ra,16(sp)
  805f0c:	08075940 	call	807594 <__malloc_lock>
  805f10:	98800217 	ldw	r2,8(r19)
  805f14:	9009883a 	mov	r4,r18
  805f18:	000b883a 	mov	r5,zero
  805f1c:	10c00117 	ldw	r3,4(r2)
  805f20:	00bfff04 	movi	r2,-4
  805f24:	18a0703a 	and	r16,r3,r2
  805f28:	8463c83a 	sub	r17,r16,r17
  805f2c:	8c43fbc4 	addi	r17,r17,4079
  805f30:	8822d33a 	srli	r17,r17,12
  805f34:	0083ffc4 	movi	r2,4095
  805f38:	8c7fffc4 	addi	r17,r17,-1
  805f3c:	8822933a 	slli	r17,r17,12
  805f40:	1440060e 	bge	r2,r17,805f5c <_malloc_trim_r+0x78>
  805f44:	08058480 	call	805848 <_sbrk_r>
  805f48:	98c00217 	ldw	r3,8(r19)
  805f4c:	9009883a 	mov	r4,r18
  805f50:	044bc83a 	sub	r5,zero,r17
  805f54:	80c7883a 	add	r3,r16,r3
  805f58:	10c00926 	beq	r2,r3,805f80 <_malloc_trim_r+0x9c>
  805f5c:	08075b40 	call	8075b4 <__malloc_unlock>
  805f60:	0005883a 	mov	r2,zero
  805f64:	dfc00417 	ldw	ra,16(sp)
  805f68:	dcc00317 	ldw	r19,12(sp)
  805f6c:	dc800217 	ldw	r18,8(sp)
  805f70:	dc400117 	ldw	r17,4(sp)
  805f74:	dc000017 	ldw	r16,0(sp)
  805f78:	dec00504 	addi	sp,sp,20
  805f7c:	f800283a 	ret
  805f80:	9009883a 	mov	r4,r18
  805f84:	08058480 	call	805848 <_sbrk_r>
  805f88:	844dc83a 	sub	r6,r16,r17
  805f8c:	00ffffc4 	movi	r3,-1
  805f90:	9009883a 	mov	r4,r18
  805f94:	000b883a 	mov	r5,zero
  805f98:	01c02074 	movhi	r7,129
  805f9c:	39fcd404 	addi	r7,r7,-3248
  805fa0:	31800054 	ori	r6,r6,1
  805fa4:	10c00926 	beq	r2,r3,805fcc <_malloc_trim_r+0xe8>
  805fa8:	38800017 	ldw	r2,0(r7)
  805fac:	98c00217 	ldw	r3,8(r19)
  805fb0:	9009883a 	mov	r4,r18
  805fb4:	1445c83a 	sub	r2,r2,r17
  805fb8:	38800015 	stw	r2,0(r7)
  805fbc:	19800115 	stw	r6,4(r3)
  805fc0:	08075b40 	call	8075b4 <__malloc_unlock>
  805fc4:	00800044 	movi	r2,1
  805fc8:	003fe606 	br	805f64 <_malloc_trim_r+0x80>
  805fcc:	08058480 	call	805848 <_sbrk_r>
  805fd0:	99800217 	ldw	r6,8(r19)
  805fd4:	100f883a 	mov	r7,r2
  805fd8:	9009883a 	mov	r4,r18
  805fdc:	1187c83a 	sub	r3,r2,r6
  805fe0:	008003c4 	movi	r2,15
  805fe4:	19400054 	ori	r5,r3,1
  805fe8:	10ffdc0e 	bge	r2,r3,805f5c <_malloc_trim_r+0x78>
  805fec:	00802074 	movhi	r2,129
  805ff0:	10b52304 	addi	r2,r2,-11124
  805ff4:	10c00017 	ldw	r3,0(r2)
  805ff8:	00802074 	movhi	r2,129
  805ffc:	10bcd404 	addi	r2,r2,-3248
  806000:	31400115 	stw	r5,4(r6)
  806004:	38c7c83a 	sub	r3,r7,r3
  806008:	10c00015 	stw	r3,0(r2)
  80600c:	003fd306 	br	805f5c <_malloc_trim_r+0x78>

00806010 <_free_r>:
  806010:	defffd04 	addi	sp,sp,-12
  806014:	dc400115 	stw	r17,4(sp)
  806018:	dc000015 	stw	r16,0(sp)
  80601c:	dfc00215 	stw	ra,8(sp)
  806020:	2821883a 	mov	r16,r5
  806024:	2023883a 	mov	r17,r4
  806028:	28005a26 	beq	r5,zero,806194 <_free_r+0x184>
  80602c:	08075940 	call	807594 <__malloc_lock>
  806030:	823ffe04 	addi	r8,r16,-8
  806034:	41400117 	ldw	r5,4(r8)
  806038:	00bfff84 	movi	r2,-2
  80603c:	02802074 	movhi	r10,129
  806040:	52af2204 	addi	r10,r10,-17272
  806044:	288e703a 	and	r7,r5,r2
  806048:	41cd883a 	add	r6,r8,r7
  80604c:	30c00117 	ldw	r3,4(r6)
  806050:	51000217 	ldw	r4,8(r10)
  806054:	00bfff04 	movi	r2,-4
  806058:	1892703a 	and	r9,r3,r2
  80605c:	5017883a 	mov	r11,r10
  806060:	31006726 	beq	r6,r4,806200 <_free_r+0x1f0>
  806064:	2880004c 	andi	r2,r5,1
  806068:	1005003a 	cmpeq	r2,r2,zero
  80606c:	32400115 	stw	r9,4(r6)
  806070:	10001a1e 	bne	r2,zero,8060dc <_free_r+0xcc>
  806074:	000b883a 	mov	r5,zero
  806078:	3247883a 	add	r3,r6,r9
  80607c:	18800117 	ldw	r2,4(r3)
  806080:	1080004c 	andi	r2,r2,1
  806084:	1000231e 	bne	r2,zero,806114 <_free_r+0x104>
  806088:	280ac03a 	cmpne	r5,r5,zero
  80608c:	3a4f883a 	add	r7,r7,r9
  806090:	2800451e 	bne	r5,zero,8061a8 <_free_r+0x198>
  806094:	31000217 	ldw	r4,8(r6)
  806098:	00802074 	movhi	r2,129
  80609c:	10af2404 	addi	r2,r2,-17264
  8060a0:	20807b26 	beq	r4,r2,806290 <_free_r+0x280>
  8060a4:	30800317 	ldw	r2,12(r6)
  8060a8:	3a07883a 	add	r3,r7,r8
  8060ac:	19c00015 	stw	r7,0(r3)
  8060b0:	11000215 	stw	r4,8(r2)
  8060b4:	20800315 	stw	r2,12(r4)
  8060b8:	38800054 	ori	r2,r7,1
  8060bc:	40800115 	stw	r2,4(r8)
  8060c0:	28001a26 	beq	r5,zero,80612c <_free_r+0x11c>
  8060c4:	8809883a 	mov	r4,r17
  8060c8:	dfc00217 	ldw	ra,8(sp)
  8060cc:	dc400117 	ldw	r17,4(sp)
  8060d0:	dc000017 	ldw	r16,0(sp)
  8060d4:	dec00304 	addi	sp,sp,12
  8060d8:	08075b41 	jmpi	8075b4 <__malloc_unlock>
  8060dc:	80bffe17 	ldw	r2,-8(r16)
  8060e0:	50c00204 	addi	r3,r10,8
  8060e4:	4091c83a 	sub	r8,r8,r2
  8060e8:	41000217 	ldw	r4,8(r8)
  8060ec:	388f883a 	add	r7,r7,r2
  8060f0:	20c06126 	beq	r4,r3,806278 <_free_r+0x268>
  8060f4:	40800317 	ldw	r2,12(r8)
  8060f8:	3247883a 	add	r3,r6,r9
  8060fc:	000b883a 	mov	r5,zero
  806100:	11000215 	stw	r4,8(r2)
  806104:	20800315 	stw	r2,12(r4)
  806108:	18800117 	ldw	r2,4(r3)
  80610c:	1080004c 	andi	r2,r2,1
  806110:	103fdd26 	beq	r2,zero,806088 <_free_r+0x78>
  806114:	38800054 	ori	r2,r7,1
  806118:	3a07883a 	add	r3,r7,r8
  80611c:	280ac03a 	cmpne	r5,r5,zero
  806120:	40800115 	stw	r2,4(r8)
  806124:	19c00015 	stw	r7,0(r3)
  806128:	283fe61e 	bne	r5,zero,8060c4 <_free_r+0xb4>
  80612c:	00807fc4 	movi	r2,511
  806130:	11c01f2e 	bgeu	r2,r7,8061b0 <_free_r+0x1a0>
  806134:	3806d27a 	srli	r3,r7,9
  806138:	1800481e 	bne	r3,zero,80625c <_free_r+0x24c>
  80613c:	3804d0fa 	srli	r2,r7,3
  806140:	100690fa 	slli	r3,r2,3
  806144:	1acd883a 	add	r6,r3,r11
  806148:	31400217 	ldw	r5,8(r6)
  80614c:	31405926 	beq	r6,r5,8062b4 <_free_r+0x2a4>
  806150:	28800117 	ldw	r2,4(r5)
  806154:	00ffff04 	movi	r3,-4
  806158:	10c4703a 	and	r2,r2,r3
  80615c:	3880022e 	bgeu	r7,r2,806168 <_free_r+0x158>
  806160:	29400217 	ldw	r5,8(r5)
  806164:	317ffa1e 	bne	r6,r5,806150 <_free_r+0x140>
  806168:	29800317 	ldw	r6,12(r5)
  80616c:	41800315 	stw	r6,12(r8)
  806170:	41400215 	stw	r5,8(r8)
  806174:	8809883a 	mov	r4,r17
  806178:	2a000315 	stw	r8,12(r5)
  80617c:	32000215 	stw	r8,8(r6)
  806180:	dfc00217 	ldw	ra,8(sp)
  806184:	dc400117 	ldw	r17,4(sp)
  806188:	dc000017 	ldw	r16,0(sp)
  80618c:	dec00304 	addi	sp,sp,12
  806190:	08075b41 	jmpi	8075b4 <__malloc_unlock>
  806194:	dfc00217 	ldw	ra,8(sp)
  806198:	dc400117 	ldw	r17,4(sp)
  80619c:	dc000017 	ldw	r16,0(sp)
  8061a0:	dec00304 	addi	sp,sp,12
  8061a4:	f800283a 	ret
  8061a8:	31000217 	ldw	r4,8(r6)
  8061ac:	003fbd06 	br	8060a4 <_free_r+0x94>
  8061b0:	3806d0fa 	srli	r3,r7,3
  8061b4:	00800044 	movi	r2,1
  8061b8:	51400117 	ldw	r5,4(r10)
  8061bc:	180890fa 	slli	r4,r3,3
  8061c0:	1807d0ba 	srai	r3,r3,2
  8061c4:	22c9883a 	add	r4,r4,r11
  8061c8:	21800217 	ldw	r6,8(r4)
  8061cc:	10c4983a 	sll	r2,r2,r3
  8061d0:	41000315 	stw	r4,12(r8)
  8061d4:	41800215 	stw	r6,8(r8)
  8061d8:	288ab03a 	or	r5,r5,r2
  8061dc:	22000215 	stw	r8,8(r4)
  8061e0:	8809883a 	mov	r4,r17
  8061e4:	51400115 	stw	r5,4(r10)
  8061e8:	32000315 	stw	r8,12(r6)
  8061ec:	dfc00217 	ldw	ra,8(sp)
  8061f0:	dc400117 	ldw	r17,4(sp)
  8061f4:	dc000017 	ldw	r16,0(sp)
  8061f8:	dec00304 	addi	sp,sp,12
  8061fc:	08075b41 	jmpi	8075b4 <__malloc_unlock>
  806200:	2880004c 	andi	r2,r5,1
  806204:	3a4d883a 	add	r6,r7,r9
  806208:	1000071e 	bne	r2,zero,806228 <_free_r+0x218>
  80620c:	80bffe17 	ldw	r2,-8(r16)
  806210:	4091c83a 	sub	r8,r8,r2
  806214:	41000317 	ldw	r4,12(r8)
  806218:	40c00217 	ldw	r3,8(r8)
  80621c:	308d883a 	add	r6,r6,r2
  806220:	20c00215 	stw	r3,8(r4)
  806224:	19000315 	stw	r4,12(r3)
  806228:	00802074 	movhi	r2,129
  80622c:	10b52204 	addi	r2,r2,-11128
  806230:	11000017 	ldw	r4,0(r2)
  806234:	30c00054 	ori	r3,r6,1
  806238:	52000215 	stw	r8,8(r10)
  80623c:	40c00115 	stw	r3,4(r8)
  806240:	313fa036 	bltu	r6,r4,8060c4 <_free_r+0xb4>
  806244:	00802074 	movhi	r2,129
  806248:	10bc9a04 	addi	r2,r2,-3480
  80624c:	11400017 	ldw	r5,0(r2)
  806250:	8809883a 	mov	r4,r17
  806254:	0805ee40 	call	805ee4 <_malloc_trim_r>
  806258:	003f9a06 	br	8060c4 <_free_r+0xb4>
  80625c:	00800104 	movi	r2,4
  806260:	10c0072e 	bgeu	r2,r3,806280 <_free_r+0x270>
  806264:	00800504 	movi	r2,20
  806268:	10c01936 	bltu	r2,r3,8062d0 <_free_r+0x2c0>
  80626c:	188016c4 	addi	r2,r3,91
  806270:	100690fa 	slli	r3,r2,3
  806274:	003fb306 	br	806144 <_free_r+0x134>
  806278:	01400044 	movi	r5,1
  80627c:	003f7e06 	br	806078 <_free_r+0x68>
  806280:	3804d1ba 	srli	r2,r7,6
  806284:	10800e04 	addi	r2,r2,56
  806288:	100690fa 	slli	r3,r2,3
  80628c:	003fad06 	br	806144 <_free_r+0x134>
  806290:	22000315 	stw	r8,12(r4)
  806294:	22000215 	stw	r8,8(r4)
  806298:	3a05883a 	add	r2,r7,r8
  80629c:	38c00054 	ori	r3,r7,1
  8062a0:	11c00015 	stw	r7,0(r2)
  8062a4:	41000215 	stw	r4,8(r8)
  8062a8:	40c00115 	stw	r3,4(r8)
  8062ac:	41000315 	stw	r4,12(r8)
  8062b0:	003f8406 	br	8060c4 <_free_r+0xb4>
  8062b4:	1005d0ba 	srai	r2,r2,2
  8062b8:	00c00044 	movi	r3,1
  8062bc:	51000117 	ldw	r4,4(r10)
  8062c0:	1886983a 	sll	r3,r3,r2
  8062c4:	20c8b03a 	or	r4,r4,r3
  8062c8:	51000115 	stw	r4,4(r10)
  8062cc:	003fa706 	br	80616c <_free_r+0x15c>
  8062d0:	00801504 	movi	r2,84
  8062d4:	10c00436 	bltu	r2,r3,8062e8 <_free_r+0x2d8>
  8062d8:	3804d33a 	srli	r2,r7,12
  8062dc:	10801b84 	addi	r2,r2,110
  8062e0:	100690fa 	slli	r3,r2,3
  8062e4:	003f9706 	br	806144 <_free_r+0x134>
  8062e8:	00805504 	movi	r2,340
  8062ec:	10c00436 	bltu	r2,r3,806300 <_free_r+0x2f0>
  8062f0:	3804d3fa 	srli	r2,r7,15
  8062f4:	10801dc4 	addi	r2,r2,119
  8062f8:	100690fa 	slli	r3,r2,3
  8062fc:	003f9106 	br	806144 <_free_r+0x134>
  806300:	00815504 	movi	r2,1364
  806304:	10c0032e 	bgeu	r2,r3,806314 <_free_r+0x304>
  806308:	00801f84 	movi	r2,126
  80630c:	00c0fc04 	movi	r3,1008
  806310:	003f8c06 	br	806144 <_free_r+0x134>
  806314:	3804d4ba 	srli	r2,r7,18
  806318:	10801f04 	addi	r2,r2,124
  80631c:	100690fa 	slli	r3,r2,3
  806320:	003f8806 	br	806144 <_free_r+0x134>

00806324 <_fwalk_reent>:
  806324:	defff704 	addi	sp,sp,-36
  806328:	dcc00315 	stw	r19,12(sp)
  80632c:	24c0b804 	addi	r19,r4,736
  806330:	dd800615 	stw	r22,24(sp)
  806334:	dd400515 	stw	r21,20(sp)
  806338:	dfc00815 	stw	ra,32(sp)
  80633c:	ddc00715 	stw	r23,28(sp)
  806340:	dd000415 	stw	r20,16(sp)
  806344:	dc800215 	stw	r18,8(sp)
  806348:	dc400115 	stw	r17,4(sp)
  80634c:	dc000015 	stw	r16,0(sp)
  806350:	202b883a 	mov	r21,r4
  806354:	282d883a 	mov	r22,r5
  806358:	0805c7c0 	call	805c7c <__sfp_lock_acquire>
  80635c:	98002126 	beq	r19,zero,8063e4 <_fwalk_reent+0xc0>
  806360:	002f883a 	mov	r23,zero
  806364:	9c800117 	ldw	r18,4(r19)
  806368:	9c000217 	ldw	r16,8(r19)
  80636c:	90bfffc4 	addi	r2,r18,-1
  806370:	10000d16 	blt	r2,zero,8063a8 <_fwalk_reent+0x84>
  806374:	0023883a 	mov	r17,zero
  806378:	053fffc4 	movi	r20,-1
  80637c:	8080030f 	ldh	r2,12(r16)
  806380:	8c400044 	addi	r17,r17,1
  806384:	10000626 	beq	r2,zero,8063a0 <_fwalk_reent+0x7c>
  806388:	8080038f 	ldh	r2,14(r16)
  80638c:	800b883a 	mov	r5,r16
  806390:	a809883a 	mov	r4,r21
  806394:	15000226 	beq	r2,r20,8063a0 <_fwalk_reent+0x7c>
  806398:	b03ee83a 	callr	r22
  80639c:	b8aeb03a 	or	r23,r23,r2
  8063a0:	84001704 	addi	r16,r16,92
  8063a4:	947ff51e 	bne	r18,r17,80637c <_fwalk_reent+0x58>
  8063a8:	9cc00017 	ldw	r19,0(r19)
  8063ac:	983fed1e 	bne	r19,zero,806364 <_fwalk_reent+0x40>
  8063b0:	0805c800 	call	805c80 <__sfp_lock_release>
  8063b4:	b805883a 	mov	r2,r23
  8063b8:	dfc00817 	ldw	ra,32(sp)
  8063bc:	ddc00717 	ldw	r23,28(sp)
  8063c0:	dd800617 	ldw	r22,24(sp)
  8063c4:	dd400517 	ldw	r21,20(sp)
  8063c8:	dd000417 	ldw	r20,16(sp)
  8063cc:	dcc00317 	ldw	r19,12(sp)
  8063d0:	dc800217 	ldw	r18,8(sp)
  8063d4:	dc400117 	ldw	r17,4(sp)
  8063d8:	dc000017 	ldw	r16,0(sp)
  8063dc:	dec00904 	addi	sp,sp,36
  8063e0:	f800283a 	ret
  8063e4:	002f883a 	mov	r23,zero
  8063e8:	003ff106 	br	8063b0 <_fwalk_reent+0x8c>

008063ec <_fwalk>:
  8063ec:	defff804 	addi	sp,sp,-32
  8063f0:	dcc00315 	stw	r19,12(sp)
  8063f4:	24c0b804 	addi	r19,r4,736
  8063f8:	dd400515 	stw	r21,20(sp)
  8063fc:	dfc00715 	stw	ra,28(sp)
  806400:	dd800615 	stw	r22,24(sp)
  806404:	dd000415 	stw	r20,16(sp)
  806408:	dc800215 	stw	r18,8(sp)
  80640c:	dc400115 	stw	r17,4(sp)
  806410:	dc000015 	stw	r16,0(sp)
  806414:	282b883a 	mov	r21,r5
  806418:	0805c7c0 	call	805c7c <__sfp_lock_acquire>
  80641c:	98001f26 	beq	r19,zero,80649c <_fwalk+0xb0>
  806420:	002d883a 	mov	r22,zero
  806424:	9c800117 	ldw	r18,4(r19)
  806428:	9c000217 	ldw	r16,8(r19)
  80642c:	90bfffc4 	addi	r2,r18,-1
  806430:	10000c16 	blt	r2,zero,806464 <_fwalk+0x78>
  806434:	0023883a 	mov	r17,zero
  806438:	053fffc4 	movi	r20,-1
  80643c:	8080030f 	ldh	r2,12(r16)
  806440:	8c400044 	addi	r17,r17,1
  806444:	10000526 	beq	r2,zero,80645c <_fwalk+0x70>
  806448:	8080038f 	ldh	r2,14(r16)
  80644c:	8009883a 	mov	r4,r16
  806450:	15000226 	beq	r2,r20,80645c <_fwalk+0x70>
  806454:	a83ee83a 	callr	r21
  806458:	b0acb03a 	or	r22,r22,r2
  80645c:	84001704 	addi	r16,r16,92
  806460:	947ff61e 	bne	r18,r17,80643c <_fwalk+0x50>
  806464:	9cc00017 	ldw	r19,0(r19)
  806468:	983fee1e 	bne	r19,zero,806424 <_fwalk+0x38>
  80646c:	0805c800 	call	805c80 <__sfp_lock_release>
  806470:	b005883a 	mov	r2,r22
  806474:	dfc00717 	ldw	ra,28(sp)
  806478:	dd800617 	ldw	r22,24(sp)
  80647c:	dd400517 	ldw	r21,20(sp)
  806480:	dd000417 	ldw	r20,16(sp)
  806484:	dcc00317 	ldw	r19,12(sp)
  806488:	dc800217 	ldw	r18,8(sp)
  80648c:	dc400117 	ldw	r17,4(sp)
  806490:	dc000017 	ldw	r16,0(sp)
  806494:	dec00804 	addi	sp,sp,32
  806498:	f800283a 	ret
  80649c:	002d883a 	mov	r22,zero
  8064a0:	003ff206 	br	80646c <_fwalk+0x80>

008064a4 <__smakebuf_r>:
  8064a4:	2880030b 	ldhu	r2,12(r5)
  8064a8:	deffed04 	addi	sp,sp,-76
  8064ac:	dc401015 	stw	r17,64(sp)
  8064b0:	1080008c 	andi	r2,r2,2
  8064b4:	dc000f15 	stw	r16,60(sp)
  8064b8:	dfc01215 	stw	ra,72(sp)
  8064bc:	dc801115 	stw	r18,68(sp)
  8064c0:	2821883a 	mov	r16,r5
  8064c4:	2023883a 	mov	r17,r4
  8064c8:	10000b26 	beq	r2,zero,8064f8 <__smakebuf_r+0x54>
  8064cc:	28c010c4 	addi	r3,r5,67
  8064d0:	00800044 	movi	r2,1
  8064d4:	28800515 	stw	r2,20(r5)
  8064d8:	28c00415 	stw	r3,16(r5)
  8064dc:	28c00015 	stw	r3,0(r5)
  8064e0:	dfc01217 	ldw	ra,72(sp)
  8064e4:	dc801117 	ldw	r18,68(sp)
  8064e8:	dc401017 	ldw	r17,64(sp)
  8064ec:	dc000f17 	ldw	r16,60(sp)
  8064f0:	dec01304 	addi	sp,sp,76
  8064f4:	f800283a 	ret
  8064f8:	2940038f 	ldh	r5,14(r5)
  8064fc:	28002116 	blt	r5,zero,806584 <__smakebuf_r+0xe0>
  806500:	d80d883a 	mov	r6,sp
  806504:	0806a280 	call	806a28 <_fstat_r>
  806508:	10001e16 	blt	r2,zero,806584 <__smakebuf_r+0xe0>
  80650c:	d8800117 	ldw	r2,4(sp)
  806510:	00e00014 	movui	r3,32768
  806514:	113c000c 	andi	r4,r2,61440
  806518:	20c03126 	beq	r4,r3,8065e0 <__smakebuf_r+0x13c>
  80651c:	8080030b 	ldhu	r2,12(r16)
  806520:	00c80004 	movi	r3,8192
  806524:	10820014 	ori	r2,r2,2048
  806528:	8080030d 	sth	r2,12(r16)
  80652c:	20c01e26 	beq	r4,r3,8065a8 <__smakebuf_r+0x104>
  806530:	04810004 	movi	r18,1024
  806534:	8809883a 	mov	r4,r17
  806538:	900b883a 	mov	r5,r18
  80653c:	08048b00 	call	8048b0 <_malloc_r>
  806540:	1009883a 	mov	r4,r2
  806544:	10003126 	beq	r2,zero,80660c <__smakebuf_r+0x168>
  806548:	80c0030b 	ldhu	r3,12(r16)
  80654c:	00802034 	movhi	r2,128
  806550:	10975c04 	addi	r2,r2,23920
  806554:	88800f15 	stw	r2,60(r17)
  806558:	18c02014 	ori	r3,r3,128
  80655c:	84800515 	stw	r18,20(r16)
  806560:	80c0030d 	sth	r3,12(r16)
  806564:	81000415 	stw	r4,16(r16)
  806568:	81000015 	stw	r4,0(r16)
  80656c:	dfc01217 	ldw	ra,72(sp)
  806570:	dc801117 	ldw	r18,68(sp)
  806574:	dc401017 	ldw	r17,64(sp)
  806578:	dc000f17 	ldw	r16,60(sp)
  80657c:	dec01304 	addi	sp,sp,76
  806580:	f800283a 	ret
  806584:	80c0030b 	ldhu	r3,12(r16)
  806588:	1880200c 	andi	r2,r3,128
  80658c:	10000426 	beq	r2,zero,8065a0 <__smakebuf_r+0xfc>
  806590:	04801004 	movi	r18,64
  806594:	18820014 	ori	r2,r3,2048
  806598:	8080030d 	sth	r2,12(r16)
  80659c:	003fe506 	br	806534 <__smakebuf_r+0x90>
  8065a0:	04810004 	movi	r18,1024
  8065a4:	003ffb06 	br	806594 <__smakebuf_r+0xf0>
  8065a8:	8140038f 	ldh	r5,14(r16)
  8065ac:	8809883a 	mov	r4,r17
  8065b0:	0806a9c0 	call	806a9c <_isatty_r>
  8065b4:	103fde26 	beq	r2,zero,806530 <__smakebuf_r+0x8c>
  8065b8:	8080030b 	ldhu	r2,12(r16)
  8065bc:	80c010c4 	addi	r3,r16,67
  8065c0:	04810004 	movi	r18,1024
  8065c4:	10800054 	ori	r2,r2,1
  8065c8:	8080030d 	sth	r2,12(r16)
  8065cc:	00800044 	movi	r2,1
  8065d0:	80c00415 	stw	r3,16(r16)
  8065d4:	80800515 	stw	r2,20(r16)
  8065d8:	80c00015 	stw	r3,0(r16)
  8065dc:	003fd506 	br	806534 <__smakebuf_r+0x90>
  8065e0:	80c00a17 	ldw	r3,40(r16)
  8065e4:	00802034 	movhi	r2,128
  8065e8:	1099b604 	addi	r2,r2,26328
  8065ec:	18bfcb1e 	bne	r3,r2,80651c <__smakebuf_r+0x78>
  8065f0:	8080030b 	ldhu	r2,12(r16)
  8065f4:	00c10004 	movi	r3,1024
  8065f8:	1825883a 	mov	r18,r3
  8065fc:	10c4b03a 	or	r2,r2,r3
  806600:	8080030d 	sth	r2,12(r16)
  806604:	80c01315 	stw	r3,76(r16)
  806608:	003fca06 	br	806534 <__smakebuf_r+0x90>
  80660c:	8100030b 	ldhu	r4,12(r16)
  806610:	2080800c 	andi	r2,r4,512
  806614:	103fb21e 	bne	r2,zero,8064e0 <__smakebuf_r+0x3c>
  806618:	80c010c4 	addi	r3,r16,67
  80661c:	21000094 	ori	r4,r4,2
  806620:	00800044 	movi	r2,1
  806624:	80800515 	stw	r2,20(r16)
  806628:	8100030d 	sth	r4,12(r16)
  80662c:	80c00415 	stw	r3,16(r16)
  806630:	80c00015 	stw	r3,0(r16)
  806634:	003faa06 	br	8064e0 <__smakebuf_r+0x3c>

00806638 <memset>:
  806638:	008000c4 	movi	r2,3
  80663c:	29403fcc 	andi	r5,r5,255
  806640:	2007883a 	mov	r3,r4
  806644:	1180022e 	bgeu	r2,r6,806650 <memset+0x18>
  806648:	2084703a 	and	r2,r4,r2
  80664c:	10000826 	beq	r2,zero,806670 <memset+0x38>
  806650:	30000526 	beq	r6,zero,806668 <memset+0x30>
  806654:	2805883a 	mov	r2,r5
  806658:	30cd883a 	add	r6,r6,r3
  80665c:	18800005 	stb	r2,0(r3)
  806660:	18c00044 	addi	r3,r3,1
  806664:	19bffd1e 	bne	r3,r6,80665c <memset+0x24>
  806668:	2005883a 	mov	r2,r4
  80666c:	f800283a 	ret
  806670:	2804923a 	slli	r2,r5,8
  806674:	020003c4 	movi	r8,15
  806678:	200f883a 	mov	r7,r4
  80667c:	2884b03a 	or	r2,r5,r2
  806680:	1006943a 	slli	r3,r2,16
  806684:	10c6b03a 	or	r3,r2,r3
  806688:	41800a2e 	bgeu	r8,r6,8066b4 <memset+0x7c>
  80668c:	4005883a 	mov	r2,r8
  806690:	31bffc04 	addi	r6,r6,-16
  806694:	38c00015 	stw	r3,0(r7)
  806698:	38c00115 	stw	r3,4(r7)
  80669c:	38c00215 	stw	r3,8(r7)
  8066a0:	38c00315 	stw	r3,12(r7)
  8066a4:	39c00404 	addi	r7,r7,16
  8066a8:	11bff936 	bltu	r2,r6,806690 <memset+0x58>
  8066ac:	008000c4 	movi	r2,3
  8066b0:	1180052e 	bgeu	r2,r6,8066c8 <memset+0x90>
  8066b4:	31bfff04 	addi	r6,r6,-4
  8066b8:	008000c4 	movi	r2,3
  8066bc:	38c00015 	stw	r3,0(r7)
  8066c0:	39c00104 	addi	r7,r7,4
  8066c4:	11bffb36 	bltu	r2,r6,8066b4 <memset+0x7c>
  8066c8:	3807883a 	mov	r3,r7
  8066cc:	003fe006 	br	806650 <memset+0x18>

008066d0 <__sclose>:
  8066d0:	2940038f 	ldh	r5,14(r5)
  8066d4:	08068941 	jmpi	806894 <_close_r>

008066d8 <__sseek>:
  8066d8:	defffe04 	addi	sp,sp,-8
  8066dc:	dc000015 	stw	r16,0(sp)
  8066e0:	2821883a 	mov	r16,r5
  8066e4:	2940038f 	ldh	r5,14(r5)
  8066e8:	dfc00115 	stw	ra,4(sp)
  8066ec:	0806b0c0 	call	806b0c <_lseek_r>
  8066f0:	1007883a 	mov	r3,r2
  8066f4:	00bfffc4 	movi	r2,-1
  8066f8:	18800926 	beq	r3,r2,806720 <__sseek+0x48>
  8066fc:	8080030b 	ldhu	r2,12(r16)
  806700:	80c01415 	stw	r3,80(r16)
  806704:	10840014 	ori	r2,r2,4096
  806708:	8080030d 	sth	r2,12(r16)
  80670c:	1805883a 	mov	r2,r3
  806710:	dfc00117 	ldw	ra,4(sp)
  806714:	dc000017 	ldw	r16,0(sp)
  806718:	dec00204 	addi	sp,sp,8
  80671c:	f800283a 	ret
  806720:	8080030b 	ldhu	r2,12(r16)
  806724:	10bbffcc 	andi	r2,r2,61439
  806728:	8080030d 	sth	r2,12(r16)
  80672c:	1805883a 	mov	r2,r3
  806730:	dfc00117 	ldw	ra,4(sp)
  806734:	dc000017 	ldw	r16,0(sp)
  806738:	dec00204 	addi	sp,sp,8
  80673c:	f800283a 	ret

00806740 <__swrite>:
  806740:	2880030b 	ldhu	r2,12(r5)
  806744:	defffb04 	addi	sp,sp,-20
  806748:	dcc00315 	stw	r19,12(sp)
  80674c:	1080400c 	andi	r2,r2,256
  806750:	dc800215 	stw	r18,8(sp)
  806754:	dc400115 	stw	r17,4(sp)
  806758:	dc000015 	stw	r16,0(sp)
  80675c:	3027883a 	mov	r19,r6
  806760:	3825883a 	mov	r18,r7
  806764:	dfc00415 	stw	ra,16(sp)
  806768:	2821883a 	mov	r16,r5
  80676c:	000d883a 	mov	r6,zero
  806770:	01c00084 	movi	r7,2
  806774:	2023883a 	mov	r17,r4
  806778:	10000226 	beq	r2,zero,806784 <__swrite+0x44>
  80677c:	2940038f 	ldh	r5,14(r5)
  806780:	0806b0c0 	call	806b0c <_lseek_r>
  806784:	8080030b 	ldhu	r2,12(r16)
  806788:	8140038f 	ldh	r5,14(r16)
  80678c:	8809883a 	mov	r4,r17
  806790:	10bbffcc 	andi	r2,r2,61439
  806794:	980d883a 	mov	r6,r19
  806798:	900f883a 	mov	r7,r18
  80679c:	8080030d 	sth	r2,12(r16)
  8067a0:	dfc00417 	ldw	ra,16(sp)
  8067a4:	dcc00317 	ldw	r19,12(sp)
  8067a8:	dc800217 	ldw	r18,8(sp)
  8067ac:	dc400117 	ldw	r17,4(sp)
  8067b0:	dc000017 	ldw	r16,0(sp)
  8067b4:	dec00504 	addi	sp,sp,20
  8067b8:	080681c1 	jmpi	80681c <_write_r>

008067bc <__sread>:
  8067bc:	defffe04 	addi	sp,sp,-8
  8067c0:	dc000015 	stw	r16,0(sp)
  8067c4:	2821883a 	mov	r16,r5
  8067c8:	2940038f 	ldh	r5,14(r5)
  8067cc:	dfc00115 	stw	ra,4(sp)
  8067d0:	0806b840 	call	806b84 <_read_r>
  8067d4:	1007883a 	mov	r3,r2
  8067d8:	10000816 	blt	r2,zero,8067fc <__sread+0x40>
  8067dc:	80801417 	ldw	r2,80(r16)
  8067e0:	10c5883a 	add	r2,r2,r3
  8067e4:	80801415 	stw	r2,80(r16)
  8067e8:	1805883a 	mov	r2,r3
  8067ec:	dfc00117 	ldw	ra,4(sp)
  8067f0:	dc000017 	ldw	r16,0(sp)
  8067f4:	dec00204 	addi	sp,sp,8
  8067f8:	f800283a 	ret
  8067fc:	8080030b 	ldhu	r2,12(r16)
  806800:	10bbffcc 	andi	r2,r2,61439
  806804:	8080030d 	sth	r2,12(r16)
  806808:	1805883a 	mov	r2,r3
  80680c:	dfc00117 	ldw	ra,4(sp)
  806810:	dc000017 	ldw	r16,0(sp)
  806814:	dec00204 	addi	sp,sp,8
  806818:	f800283a 	ret

0080681c <_write_r>:
  80681c:	defffd04 	addi	sp,sp,-12
  806820:	dc000015 	stw	r16,0(sp)
  806824:	04002074 	movhi	r16,129
  806828:	843c9d04 	addi	r16,r16,-3468
  80682c:	dc400115 	stw	r17,4(sp)
  806830:	80000015 	stw	zero,0(r16)
  806834:	2023883a 	mov	r17,r4
  806838:	2809883a 	mov	r4,r5
  80683c:	300b883a 	mov	r5,r6
  806840:	380d883a 	mov	r6,r7
  806844:	dfc00215 	stw	ra,8(sp)
  806848:	0807cd80 	call	807cd8 <write>
  80684c:	1007883a 	mov	r3,r2
  806850:	00bfffc4 	movi	r2,-1
  806854:	18800626 	beq	r3,r2,806870 <_write_r+0x54>
  806858:	1805883a 	mov	r2,r3
  80685c:	dfc00217 	ldw	ra,8(sp)
  806860:	dc400117 	ldw	r17,4(sp)
  806864:	dc000017 	ldw	r16,0(sp)
  806868:	dec00304 	addi	sp,sp,12
  80686c:	f800283a 	ret
  806870:	80800017 	ldw	r2,0(r16)
  806874:	103ff826 	beq	r2,zero,806858 <_write_r+0x3c>
  806878:	88800015 	stw	r2,0(r17)
  80687c:	1805883a 	mov	r2,r3
  806880:	dfc00217 	ldw	ra,8(sp)
  806884:	dc400117 	ldw	r17,4(sp)
  806888:	dc000017 	ldw	r16,0(sp)
  80688c:	dec00304 	addi	sp,sp,12
  806890:	f800283a 	ret

00806894 <_close_r>:
  806894:	defffd04 	addi	sp,sp,-12
  806898:	dc000015 	stw	r16,0(sp)
  80689c:	04002074 	movhi	r16,129
  8068a0:	843c9d04 	addi	r16,r16,-3468
  8068a4:	dc400115 	stw	r17,4(sp)
  8068a8:	80000015 	stw	zero,0(r16)
  8068ac:	2023883a 	mov	r17,r4
  8068b0:	2809883a 	mov	r4,r5
  8068b4:	dfc00215 	stw	ra,8(sp)
  8068b8:	0806d500 	call	806d50 <close>
  8068bc:	1007883a 	mov	r3,r2
  8068c0:	00bfffc4 	movi	r2,-1
  8068c4:	18800626 	beq	r3,r2,8068e0 <_close_r+0x4c>
  8068c8:	1805883a 	mov	r2,r3
  8068cc:	dfc00217 	ldw	ra,8(sp)
  8068d0:	dc400117 	ldw	r17,4(sp)
  8068d4:	dc000017 	ldw	r16,0(sp)
  8068d8:	dec00304 	addi	sp,sp,12
  8068dc:	f800283a 	ret
  8068e0:	80800017 	ldw	r2,0(r16)
  8068e4:	103ff826 	beq	r2,zero,8068c8 <_close_r+0x34>
  8068e8:	88800015 	stw	r2,0(r17)
  8068ec:	1805883a 	mov	r2,r3
  8068f0:	dfc00217 	ldw	ra,8(sp)
  8068f4:	dc400117 	ldw	r17,4(sp)
  8068f8:	dc000017 	ldw	r16,0(sp)
  8068fc:	dec00304 	addi	sp,sp,12
  806900:	f800283a 	ret

00806904 <_fclose_r>:
  806904:	defffc04 	addi	sp,sp,-16
  806908:	dc400115 	stw	r17,4(sp)
  80690c:	dc000015 	stw	r16,0(sp)
  806910:	dfc00315 	stw	ra,12(sp)
  806914:	dc800215 	stw	r18,8(sp)
  806918:	2821883a 	mov	r16,r5
  80691c:	2023883a 	mov	r17,r4
  806920:	28002926 	beq	r5,zero,8069c8 <_fclose_r+0xc4>
  806924:	0805c7c0 	call	805c7c <__sfp_lock_acquire>
  806928:	88000226 	beq	r17,zero,806934 <_fclose_r+0x30>
  80692c:	88800e17 	ldw	r2,56(r17)
  806930:	10002d26 	beq	r2,zero,8069e8 <_fclose_r+0xe4>
  806934:	8080030f 	ldh	r2,12(r16)
  806938:	10002226 	beq	r2,zero,8069c4 <_fclose_r+0xc0>
  80693c:	8809883a 	mov	r4,r17
  806940:	800b883a 	mov	r5,r16
  806944:	08059f40 	call	8059f4 <_fflush_r>
  806948:	1025883a 	mov	r18,r2
  80694c:	80800b17 	ldw	r2,44(r16)
  806950:	10000426 	beq	r2,zero,806964 <_fclose_r+0x60>
  806954:	81400717 	ldw	r5,28(r16)
  806958:	8809883a 	mov	r4,r17
  80695c:	103ee83a 	callr	r2
  806960:	10002a16 	blt	r2,zero,806a0c <_fclose_r+0x108>
  806964:	8080030b 	ldhu	r2,12(r16)
  806968:	1080200c 	andi	r2,r2,128
  80696c:	1000231e 	bne	r2,zero,8069fc <_fclose_r+0xf8>
  806970:	81400c17 	ldw	r5,48(r16)
  806974:	28000526 	beq	r5,zero,80698c <_fclose_r+0x88>
  806978:	80801004 	addi	r2,r16,64
  80697c:	28800226 	beq	r5,r2,806988 <_fclose_r+0x84>
  806980:	8809883a 	mov	r4,r17
  806984:	08060100 	call	806010 <_free_r>
  806988:	80000c15 	stw	zero,48(r16)
  80698c:	81401117 	ldw	r5,68(r16)
  806990:	28000326 	beq	r5,zero,8069a0 <_fclose_r+0x9c>
  806994:	8809883a 	mov	r4,r17
  806998:	08060100 	call	806010 <_free_r>
  80699c:	80001115 	stw	zero,68(r16)
  8069a0:	8000030d 	sth	zero,12(r16)
  8069a4:	0805c800 	call	805c80 <__sfp_lock_release>
  8069a8:	9005883a 	mov	r2,r18
  8069ac:	dfc00317 	ldw	ra,12(sp)
  8069b0:	dc800217 	ldw	r18,8(sp)
  8069b4:	dc400117 	ldw	r17,4(sp)
  8069b8:	dc000017 	ldw	r16,0(sp)
  8069bc:	dec00404 	addi	sp,sp,16
  8069c0:	f800283a 	ret
  8069c4:	0805c800 	call	805c80 <__sfp_lock_release>
  8069c8:	0025883a 	mov	r18,zero
  8069cc:	9005883a 	mov	r2,r18
  8069d0:	dfc00317 	ldw	ra,12(sp)
  8069d4:	dc800217 	ldw	r18,8(sp)
  8069d8:	dc400117 	ldw	r17,4(sp)
  8069dc:	dc000017 	ldw	r16,0(sp)
  8069e0:	dec00404 	addi	sp,sp,16
  8069e4:	f800283a 	ret
  8069e8:	8809883a 	mov	r4,r17
  8069ec:	0805c8c0 	call	805c8c <__sinit>
  8069f0:	8080030f 	ldh	r2,12(r16)
  8069f4:	103fd11e 	bne	r2,zero,80693c <_fclose_r+0x38>
  8069f8:	003ff206 	br	8069c4 <_fclose_r+0xc0>
  8069fc:	81400417 	ldw	r5,16(r16)
  806a00:	8809883a 	mov	r4,r17
  806a04:	08060100 	call	806010 <_free_r>
  806a08:	003fd906 	br	806970 <_fclose_r+0x6c>
  806a0c:	04bfffc4 	movi	r18,-1
  806a10:	003fd406 	br	806964 <_fclose_r+0x60>

00806a14 <fclose>:
  806a14:	00802074 	movhi	r2,129
  806a18:	10b52004 	addi	r2,r2,-11136
  806a1c:	200b883a 	mov	r5,r4
  806a20:	11000017 	ldw	r4,0(r2)
  806a24:	08069041 	jmpi	806904 <_fclose_r>

00806a28 <_fstat_r>:
  806a28:	defffd04 	addi	sp,sp,-12
  806a2c:	dc000015 	stw	r16,0(sp)
  806a30:	04002074 	movhi	r16,129
  806a34:	843c9d04 	addi	r16,r16,-3468
  806a38:	dc400115 	stw	r17,4(sp)
  806a3c:	80000015 	stw	zero,0(r16)
  806a40:	2023883a 	mov	r17,r4
  806a44:	2809883a 	mov	r4,r5
  806a48:	300b883a 	mov	r5,r6
  806a4c:	dfc00215 	stw	ra,8(sp)
  806a50:	0806ed80 	call	806ed8 <fstat>
  806a54:	1007883a 	mov	r3,r2
  806a58:	00bfffc4 	movi	r2,-1
  806a5c:	18800626 	beq	r3,r2,806a78 <_fstat_r+0x50>
  806a60:	1805883a 	mov	r2,r3
  806a64:	dfc00217 	ldw	ra,8(sp)
  806a68:	dc400117 	ldw	r17,4(sp)
  806a6c:	dc000017 	ldw	r16,0(sp)
  806a70:	dec00304 	addi	sp,sp,12
  806a74:	f800283a 	ret
  806a78:	80800017 	ldw	r2,0(r16)
  806a7c:	103ff826 	beq	r2,zero,806a60 <_fstat_r+0x38>
  806a80:	88800015 	stw	r2,0(r17)
  806a84:	1805883a 	mov	r2,r3
  806a88:	dfc00217 	ldw	ra,8(sp)
  806a8c:	dc400117 	ldw	r17,4(sp)
  806a90:	dc000017 	ldw	r16,0(sp)
  806a94:	dec00304 	addi	sp,sp,12
  806a98:	f800283a 	ret

00806a9c <_isatty_r>:
  806a9c:	defffd04 	addi	sp,sp,-12
  806aa0:	dc000015 	stw	r16,0(sp)
  806aa4:	04002074 	movhi	r16,129
  806aa8:	843c9d04 	addi	r16,r16,-3468
  806aac:	dc400115 	stw	r17,4(sp)
  806ab0:	80000015 	stw	zero,0(r16)
  806ab4:	2023883a 	mov	r17,r4
  806ab8:	2809883a 	mov	r4,r5
  806abc:	dfc00215 	stw	ra,8(sp)
  806ac0:	08071cc0 	call	8071cc <isatty>
  806ac4:	1007883a 	mov	r3,r2
  806ac8:	00bfffc4 	movi	r2,-1
  806acc:	18800626 	beq	r3,r2,806ae8 <_isatty_r+0x4c>
  806ad0:	1805883a 	mov	r2,r3
  806ad4:	dfc00217 	ldw	ra,8(sp)
  806ad8:	dc400117 	ldw	r17,4(sp)
  806adc:	dc000017 	ldw	r16,0(sp)
  806ae0:	dec00304 	addi	sp,sp,12
  806ae4:	f800283a 	ret
  806ae8:	80800017 	ldw	r2,0(r16)
  806aec:	103ff826 	beq	r2,zero,806ad0 <_isatty_r+0x34>
  806af0:	88800015 	stw	r2,0(r17)
  806af4:	1805883a 	mov	r2,r3
  806af8:	dfc00217 	ldw	ra,8(sp)
  806afc:	dc400117 	ldw	r17,4(sp)
  806b00:	dc000017 	ldw	r16,0(sp)
  806b04:	dec00304 	addi	sp,sp,12
  806b08:	f800283a 	ret

00806b0c <_lseek_r>:
  806b0c:	defffd04 	addi	sp,sp,-12
  806b10:	dc000015 	stw	r16,0(sp)
  806b14:	04002074 	movhi	r16,129
  806b18:	843c9d04 	addi	r16,r16,-3468
  806b1c:	dc400115 	stw	r17,4(sp)
  806b20:	80000015 	stw	zero,0(r16)
  806b24:	2023883a 	mov	r17,r4
  806b28:	2809883a 	mov	r4,r5
  806b2c:	300b883a 	mov	r5,r6
  806b30:	380d883a 	mov	r6,r7
  806b34:	dfc00215 	stw	ra,8(sp)
  806b38:	08073d80 	call	8073d8 <lseek>
  806b3c:	1007883a 	mov	r3,r2
  806b40:	00bfffc4 	movi	r2,-1
  806b44:	18800626 	beq	r3,r2,806b60 <_lseek_r+0x54>
  806b48:	1805883a 	mov	r2,r3
  806b4c:	dfc00217 	ldw	ra,8(sp)
  806b50:	dc400117 	ldw	r17,4(sp)
  806b54:	dc000017 	ldw	r16,0(sp)
  806b58:	dec00304 	addi	sp,sp,12
  806b5c:	f800283a 	ret
  806b60:	80800017 	ldw	r2,0(r16)
  806b64:	103ff826 	beq	r2,zero,806b48 <_lseek_r+0x3c>
  806b68:	88800015 	stw	r2,0(r17)
  806b6c:	1805883a 	mov	r2,r3
  806b70:	dfc00217 	ldw	ra,8(sp)
  806b74:	dc400117 	ldw	r17,4(sp)
  806b78:	dc000017 	ldw	r16,0(sp)
  806b7c:	dec00304 	addi	sp,sp,12
  806b80:	f800283a 	ret

00806b84 <_read_r>:
  806b84:	defffd04 	addi	sp,sp,-12
  806b88:	dc000015 	stw	r16,0(sp)
  806b8c:	04002074 	movhi	r16,129
  806b90:	843c9d04 	addi	r16,r16,-3468
  806b94:	dc400115 	stw	r17,4(sp)
  806b98:	80000015 	stw	zero,0(r16)
  806b9c:	2023883a 	mov	r17,r4
  806ba0:	2809883a 	mov	r4,r5
  806ba4:	300b883a 	mov	r5,r6
  806ba8:	380d883a 	mov	r6,r7
  806bac:	dfc00215 	stw	ra,8(sp)
  806bb0:	08078980 	call	807898 <read>
  806bb4:	1007883a 	mov	r3,r2
  806bb8:	00bfffc4 	movi	r2,-1
  806bbc:	18800626 	beq	r3,r2,806bd8 <_read_r+0x54>
  806bc0:	1805883a 	mov	r2,r3
  806bc4:	dfc00217 	ldw	ra,8(sp)
  806bc8:	dc400117 	ldw	r17,4(sp)
  806bcc:	dc000017 	ldw	r16,0(sp)
  806bd0:	dec00304 	addi	sp,sp,12
  806bd4:	f800283a 	ret
  806bd8:	80800017 	ldw	r2,0(r16)
  806bdc:	103ff826 	beq	r2,zero,806bc0 <_read_r+0x3c>
  806be0:	88800015 	stw	r2,0(r17)
  806be4:	1805883a 	mov	r2,r3
  806be8:	dfc00217 	ldw	ra,8(sp)
  806bec:	dc400117 	ldw	r17,4(sp)
  806bf0:	dc000017 	ldw	r16,0(sp)
  806bf4:	dec00304 	addi	sp,sp,12
  806bf8:	f800283a 	ret

00806bfc <alt_alarm_start>:
 */ 

int alt_alarm_start (alt_alarm* alarm, alt_u32 nticks,
                     alt_u32 (*callback) (void* context),
                     void* context)
{
  806bfc:	defff404 	addi	sp,sp,-48
  806c00:	df000b15 	stw	fp,44(sp)
  806c04:	df000b04 	addi	fp,sp,44
  806c08:	e13ffb15 	stw	r4,-20(fp)
  806c0c:	e17ffc15 	stw	r5,-16(fp)
  806c10:	e1bffd15 	stw	r6,-12(fp)
  806c14:	e1fffe15 	stw	r7,-8(fp)
  alt_irq_context irq_context;
  alt_u32 current_nticks = 0;
  806c18:	e03ff915 	stw	zero,-28(fp)
 * Obtain the system clock rate in ticks/s. 
 */

static ALT_INLINE alt_u32 ALT_ALWAYS_INLINE alt_ticks_per_second (void)
{
  return _alt_tick_rate;
  806c1c:	00802074 	movhi	r2,129
  806c20:	10bca204 	addi	r2,r2,-3448
  806c24:	10800017 	ldw	r2,0(r2)
  
  if (alt_ticks_per_second ())
  806c28:	1005003a 	cmpeq	r2,r2,zero
  806c2c:	1000411e 	bne	r2,zero,806d34 <alt_alarm_start+0x138>
  {
    if (alarm)
  806c30:	e0bffb17 	ldw	r2,-20(fp)
  806c34:	1005003a 	cmpeq	r2,r2,zero
  806c38:	10003b1e 	bne	r2,zero,806d28 <alt_alarm_start+0x12c>
    {
      alarm->callback = callback;
  806c3c:	e0fffb17 	ldw	r3,-20(fp)
  806c40:	e0bffd17 	ldw	r2,-12(fp)
  806c44:	18800315 	stw	r2,12(r3)
      alarm->context  = context;
  806c48:	e0fffb17 	ldw	r3,-20(fp)
  806c4c:	e0bffe17 	ldw	r2,-8(fp)
  806c50:	18800515 	stw	r2,20(r3)
static ALT_INLINE alt_irq_context ALT_ALWAYS_INLINE 
       alt_irq_disable_all (void)
{
  alt_irq_context context;

  NIOS2_READ_STATUS (context);
  806c54:	0005303a 	rdctl	r2,status
  806c58:	e0bff815 	stw	r2,-32(fp)

  NIOS2_WRITE_STATUS (context & ~NIOS2_STATUS_PIE_MSK);
  806c5c:	e0fff817 	ldw	r3,-32(fp)
  806c60:	00bfff84 	movi	r2,-2
  806c64:	1884703a 	and	r2,r3,r2
  806c68:	1001703a 	wrctl	status,r2
  
  return context;
  806c6c:	e0bff817 	ldw	r2,-32(fp)
 
      irq_context = alt_irq_disable_all ();
  806c70:	e0bffa15 	stw	r2,-24(fp)
 * alt_nticks() returns the elapsed number of system clock ticks since reset.
 */

static ALT_INLINE alt_u32 ALT_ALWAYS_INLINE alt_nticks (void)
{
  return _alt_nticks;
  806c74:	00802074 	movhi	r2,129
  806c78:	10bca304 	addi	r2,r2,-3444
  806c7c:	10800017 	ldw	r2,0(r2)
      
      current_nticks = alt_nticks();
  806c80:	e0bff915 	stw	r2,-28(fp)
      
      alarm->time = nticks + current_nticks + 1; 
  806c84:	e0fffc17 	ldw	r3,-16(fp)
  806c88:	e0bff917 	ldw	r2,-28(fp)
  806c8c:	1885883a 	add	r2,r3,r2
  806c90:	10c00044 	addi	r3,r2,1
  806c94:	e0bffb17 	ldw	r2,-20(fp)
  806c98:	10c00215 	stw	r3,8(r2)
      /* 
       * If the desired alarm time causes a roll-over, set the rollover
       * flag. This will prevent the subsequent tick event from causing
       * an alarm too early.
       */
      if(alarm->time < current_nticks)
  806c9c:	e0bffb17 	ldw	r2,-20(fp)
  806ca0:	10c00217 	ldw	r3,8(r2)
  806ca4:	e0bff917 	ldw	r2,-28(fp)
  806ca8:	1880042e 	bgeu	r3,r2,806cbc <alt_alarm_start+0xc0>
      {
        alarm->rollover = 1;
  806cac:	e0fffb17 	ldw	r3,-20(fp)
  806cb0:	00800044 	movi	r2,1
  806cb4:	18800405 	stb	r2,16(r3)
  806cb8:	00000206 	br	806cc4 <alt_alarm_start+0xc8>
      }
      else
      {
        alarm->rollover = 0;
  806cbc:	e0bffb17 	ldw	r2,-20(fp)
  806cc0:	10000405 	stb	zero,16(r2)
      }
    
      alt_llist_insert (&alt_alarm_list, &alarm->llist);
  806cc4:	e0fffb17 	ldw	r3,-20(fp)
  806cc8:	00802074 	movhi	r2,129
  806ccc:	10b52c04 	addi	r2,r2,-11088
  806cd0:	e0bff615 	stw	r2,-40(fp)
  806cd4:	e0fff715 	stw	r3,-36(fp)
 */

static ALT_INLINE void ALT_ALWAYS_INLINE alt_llist_insert(alt_llist* list, 
                alt_llist* entry)
{
  entry->previous = list;
  806cd8:	e0fff717 	ldw	r3,-36(fp)
  806cdc:	e0bff617 	ldw	r2,-40(fp)
  806ce0:	18800115 	stw	r2,4(r3)
  entry->next     = list->next;
  806ce4:	e0bff617 	ldw	r2,-40(fp)
  806ce8:	10c00017 	ldw	r3,0(r2)
  806cec:	e0bff717 	ldw	r2,-36(fp)
  806cf0:	10c00015 	stw	r3,0(r2)

  list->next->previous = entry;
  806cf4:	e0bff617 	ldw	r2,-40(fp)
  806cf8:	10c00017 	ldw	r3,0(r2)
  806cfc:	e0bff717 	ldw	r2,-36(fp)
  806d00:	18800115 	stw	r2,4(r3)
  list->next           = entry;
  806d04:	e0fff617 	ldw	r3,-40(fp)
  806d08:	e0bff717 	ldw	r2,-36(fp)
  806d0c:	18800015 	stw	r2,0(r3)
  806d10:	e0bffa17 	ldw	r2,-24(fp)
  806d14:	e0bff515 	stw	r2,-44(fp)
  status &= ~NIOS2_STATUS_PIE_MSK;
  status |= (context & NIOS2_STATUS_PIE_MSK);
  
  NIOS2_WRITE_STATUS (status);
#else
  NIOS2_WRITE_STATUS (context);
  806d18:	e0bff517 	ldw	r2,-44(fp)
  806d1c:	1001703a 	wrctl	status,r2
      alt_irq_enable_all (irq_context);

      return 0;
  806d20:	e03fff15 	stw	zero,-4(fp)
  806d24:	00000506 	br	806d3c <alt_alarm_start+0x140>
    }
    else
    {
      return -EINVAL;
  806d28:	00bffa84 	movi	r2,-22
  806d2c:	e0bfff15 	stw	r2,-4(fp)
  806d30:	00000206 	br	806d3c <alt_alarm_start+0x140>
    }
  }
  else
  {
    return -ENOTSUP;
  806d34:	00bfde84 	movi	r2,-134
  806d38:	e0bfff15 	stw	r2,-4(fp)
  806d3c:	e0bfff17 	ldw	r2,-4(fp)
  }
}
  806d40:	e037883a 	mov	sp,fp
  806d44:	df000017 	ldw	fp,0(sp)
  806d48:	dec00104 	addi	sp,sp,4
  806d4c:	f800283a 	ret

00806d50 <close>:
 *
 * ALT_CLOSE is mapped onto the close() system call in alt_syscall.h
 */
 
int ALT_CLOSE (int fildes)
{
  806d50:	defff804 	addi	sp,sp,-32
  806d54:	dfc00715 	stw	ra,28(sp)
  806d58:	df000615 	stw	fp,24(sp)
  806d5c:	df000604 	addi	fp,sp,24
  806d60:	e13ffc15 	stw	r4,-16(fp)
   * A common error case is that when the file descriptor was created, the call
   * to open() failed resulting in a negative file descriptor. This is trapped
   * below so that we don't try and process an invalid file descriptor.
   */

  fd = (fildes < 0) ? NULL : &alt_fd_list[fildes];
  806d64:	e0bffc17 	ldw	r2,-16(fp)
  806d68:	1004803a 	cmplt	r2,r2,zero
  806d6c:	1000081e 	bne	r2,zero,806d90 <close+0x40>
  806d70:	e0bffc17 	ldw	r2,-16(fp)
  806d74:	10800324 	muli	r2,r2,12
  806d78:	1007883a 	mov	r3,r2
  806d7c:	00802074 	movhi	r2,129
  806d80:	10b02e04 	addi	r2,r2,-16200
  806d84:	1887883a 	add	r3,r3,r2
  806d88:	e0ffff15 	stw	r3,-4(fp)
  806d8c:	00000106 	br	806d94 <close+0x44>
  806d90:	e03fff15 	stw	zero,-4(fp)
  806d94:	e0bfff17 	ldw	r2,-4(fp)
  806d98:	e0bffb15 	stw	r2,-20(fp)

  if (fd)
  806d9c:	e0bffb17 	ldw	r2,-20(fp)
  806da0:	1005003a 	cmpeq	r2,r2,zero
  806da4:	10001d1e 	bne	r2,zero,806e1c <close+0xcc>
    /*
     * If the associated file system/device has a close function, call it so 
     * that any necessary cleanup code can run.
     */

    rval = (fd->dev->close) ? fd->dev->close(fd) : 0;
  806da8:	e0bffb17 	ldw	r2,-20(fp)
  806dac:	10800017 	ldw	r2,0(r2)
  806db0:	10800417 	ldw	r2,16(r2)
  806db4:	1005003a 	cmpeq	r2,r2,zero
  806db8:	1000071e 	bne	r2,zero,806dd8 <close+0x88>
  806dbc:	e0bffb17 	ldw	r2,-20(fp)
  806dc0:	10800017 	ldw	r2,0(r2)
  806dc4:	10800417 	ldw	r2,16(r2)
  806dc8:	e13ffb17 	ldw	r4,-20(fp)
  806dcc:	103ee83a 	callr	r2
  806dd0:	e0bffe15 	stw	r2,-8(fp)
  806dd4:	00000106 	br	806ddc <close+0x8c>
  806dd8:	e03ffe15 	stw	zero,-8(fp)
  806ddc:	e0bffe17 	ldw	r2,-8(fp)
  806de0:	e0bffa15 	stw	r2,-24(fp)

    /* Free the file descriptor structure and return. */

    alt_release_fd (fildes);
  806de4:	e13ffc17 	ldw	r4,-16(fp)
  806de8:	0807a180 	call	807a18 <alt_release_fd>
    if (rval < 0)
  806dec:	e0bffa17 	ldw	r2,-24(fp)
  806df0:	1004403a 	cmpge	r2,r2,zero
  806df4:	1000071e 	bne	r2,zero,806e14 <close+0xc4>
    {
      ALT_ERRNO = -rval;
  806df8:	0806e4c0 	call	806e4c <alt_get_errno>
  806dfc:	e0fffa17 	ldw	r3,-24(fp)
  806e00:	00c7c83a 	sub	r3,zero,r3
  806e04:	10c00015 	stw	r3,0(r2)
      return -1;
  806e08:	00bfffc4 	movi	r2,-1
  806e0c:	e0bffd15 	stw	r2,-12(fp)
  806e10:	00000806 	br	806e34 <close+0xe4>
    }
    return 0;
  806e14:	e03ffd15 	stw	zero,-12(fp)
  806e18:	00000606 	br	806e34 <close+0xe4>
  }
  else
  {
    ALT_ERRNO = EBADFD;
  806e1c:	0806e4c0 	call	806e4c <alt_get_errno>
  806e20:	1007883a 	mov	r3,r2
  806e24:	00801444 	movi	r2,81
  806e28:	18800015 	stw	r2,0(r3)
    return -1;
  806e2c:	00bfffc4 	movi	r2,-1
  806e30:	e0bffd15 	stw	r2,-12(fp)
  806e34:	e0bffd17 	ldw	r2,-12(fp)
  }
}
  806e38:	e037883a 	mov	sp,fp
  806e3c:	dfc00117 	ldw	ra,4(sp)
  806e40:	df000017 	ldw	fp,0(sp)
  806e44:	dec00204 	addi	sp,sp,8
  806e48:	f800283a 	ret

00806e4c <alt_get_errno>:
#undef errno

extern int errno;

static ALT_INLINE int* alt_get_errno(void)
{
  806e4c:	defffd04 	addi	sp,sp,-12
  806e50:	dfc00215 	stw	ra,8(sp)
  806e54:	df000115 	stw	fp,4(sp)
  806e58:	df000104 	addi	fp,sp,4
  return ((alt_errno) ? alt_errno() : &errno);
  806e5c:	00802074 	movhi	r2,129
  806e60:	10b52904 	addi	r2,r2,-11100
  806e64:	10800017 	ldw	r2,0(r2)
  806e68:	1005003a 	cmpeq	r2,r2,zero
  806e6c:	1000061e 	bne	r2,zero,806e88 <alt_get_errno+0x3c>
  806e70:	00802074 	movhi	r2,129
  806e74:	10b52904 	addi	r2,r2,-11100
  806e78:	10800017 	ldw	r2,0(r2)
  806e7c:	103ee83a 	callr	r2
  806e80:	e0bfff15 	stw	r2,-4(fp)
  806e84:	00000306 	br	806e94 <alt_get_errno+0x48>
  806e88:	00802074 	movhi	r2,129
  806e8c:	10bc9d04 	addi	r2,r2,-3468
  806e90:	e0bfff15 	stw	r2,-4(fp)
  806e94:	e0bfff17 	ldw	r2,-4(fp)
}
  806e98:	e037883a 	mov	sp,fp
  806e9c:	dfc00117 	ldw	ra,4(sp)
  806ea0:	df000017 	ldw	fp,0(sp)
  806ea4:	dec00204 	addi	sp,sp,8
  806ea8:	f800283a 	ret

00806eac <alt_dev_null_write>:
 * by the alt_dev_null device. It simple discards all data passed to it, and
 * indicates that the data has been successfully transmitted.
 */

static int alt_dev_null_write (alt_fd* fd, const char* ptr, int len)
{
  806eac:	defffc04 	addi	sp,sp,-16
  806eb0:	df000315 	stw	fp,12(sp)
  806eb4:	df000304 	addi	fp,sp,12
  806eb8:	e13ffd15 	stw	r4,-12(fp)
  806ebc:	e17ffe15 	stw	r5,-8(fp)
  806ec0:	e1bfff15 	stw	r6,-4(fp)
  return len;
  806ec4:	e0bfff17 	ldw	r2,-4(fp)
}
  806ec8:	e037883a 	mov	sp,fp
  806ecc:	df000017 	ldw	fp,0(sp)
  806ed0:	dec00104 	addi	sp,sp,4
  806ed4:	f800283a 	ret

00806ed8 <fstat>:
}

#else /* !ALT_USE_DIRECT_DRIVERS */

int ALT_FSTAT (int file, struct stat *st)
{
  806ed8:	defff904 	addi	sp,sp,-28
  806edc:	dfc00615 	stw	ra,24(sp)
  806ee0:	df000515 	stw	fp,20(sp)
  806ee4:	df000504 	addi	fp,sp,20
  806ee8:	e13ffc15 	stw	r4,-16(fp)
  806eec:	e17ffd15 	stw	r5,-12(fp)
   * A common error case is that when the file descriptor was created, the call
   * to open() failed resulting in a negative file descriptor. This is trapped
   * below so that we don't try and process an invalid file descriptor.
   */

  fd = (file < 0) ? NULL : &alt_fd_list[file];
  806ef0:	e0bffc17 	ldw	r2,-16(fp)
  806ef4:	1004803a 	cmplt	r2,r2,zero
  806ef8:	1000081e 	bne	r2,zero,806f1c <fstat+0x44>
  806efc:	e0bffc17 	ldw	r2,-16(fp)
  806f00:	10800324 	muli	r2,r2,12
  806f04:	1007883a 	mov	r3,r2
  806f08:	00802074 	movhi	r2,129
  806f0c:	10b02e04 	addi	r2,r2,-16200
  806f10:	1887883a 	add	r3,r3,r2
  806f14:	e0ffff15 	stw	r3,-4(fp)
  806f18:	00000106 	br	806f20 <fstat+0x48>
  806f1c:	e03fff15 	stw	zero,-4(fp)
  806f20:	e0bfff17 	ldw	r2,-4(fp)
  806f24:	e0bffb15 	stw	r2,-20(fp)
  
  if (fd)
  806f28:	e0bffb17 	ldw	r2,-20(fp)
  806f2c:	1005003a 	cmpeq	r2,r2,zero
  806f30:	1000121e 	bne	r2,zero,806f7c <fstat+0xa4>
  {
    /* Call the drivers fstat() function to fill out the "st" structure. */

    if (fd->dev->fstat)
  806f34:	e0bffb17 	ldw	r2,-20(fp)
  806f38:	10800017 	ldw	r2,0(r2)
  806f3c:	10800817 	ldw	r2,32(r2)
  806f40:	1005003a 	cmpeq	r2,r2,zero
  806f44:	1000081e 	bne	r2,zero,806f68 <fstat+0x90>
    {
      return fd->dev->fstat(fd, st);
  806f48:	e0bffb17 	ldw	r2,-20(fp)
  806f4c:	10800017 	ldw	r2,0(r2)
  806f50:	10800817 	ldw	r2,32(r2)
  806f54:	e13ffb17 	ldw	r4,-20(fp)
  806f58:	e17ffd17 	ldw	r5,-12(fp)
  806f5c:	103ee83a 	callr	r2
  806f60:	e0bffe15 	stw	r2,-8(fp)
  806f64:	00000b06 	br	806f94 <fstat+0xbc>
     * device.
     */
 
    else
    {
      st->st_mode = _IFCHR;
  806f68:	e0fffd17 	ldw	r3,-12(fp)
  806f6c:	00880004 	movi	r2,8192
  806f70:	18800115 	stw	r2,4(r3)
      return 0;
  806f74:	e03ffe15 	stw	zero,-8(fp)
  806f78:	00000606 	br	806f94 <fstat+0xbc>
    }
  }
  else
  {
    ALT_ERRNO = EBADFD;
  806f7c:	0806fac0 	call	806fac <alt_get_errno>
  806f80:	1007883a 	mov	r3,r2
  806f84:	00801444 	movi	r2,81
  806f88:	18800015 	stw	r2,0(r3)
    return -1;
  806f8c:	00bfffc4 	movi	r2,-1
  806f90:	e0bffe15 	stw	r2,-8(fp)
  806f94:	e0bffe17 	ldw	r2,-8(fp)
  }
}
  806f98:	e037883a 	mov	sp,fp
  806f9c:	dfc00117 	ldw	ra,4(sp)
  806fa0:	df000017 	ldw	fp,0(sp)
  806fa4:	dec00204 	addi	sp,sp,8
  806fa8:	f800283a 	ret

00806fac <alt_get_errno>:
#undef errno

extern int errno;

static ALT_INLINE int* alt_get_errno(void)
{
  806fac:	defffd04 	addi	sp,sp,-12
  806fb0:	dfc00215 	stw	ra,8(sp)
  806fb4:	df000115 	stw	fp,4(sp)
  806fb8:	df000104 	addi	fp,sp,4
  return ((alt_errno) ? alt_errno() : &errno);
  806fbc:	00802074 	movhi	r2,129
  806fc0:	10b52904 	addi	r2,r2,-11100
  806fc4:	10800017 	ldw	r2,0(r2)
  806fc8:	1005003a 	cmpeq	r2,r2,zero
  806fcc:	1000061e 	bne	r2,zero,806fe8 <alt_get_errno+0x3c>
  806fd0:	00802074 	movhi	r2,129
  806fd4:	10b52904 	addi	r2,r2,-11100
  806fd8:	10800017 	ldw	r2,0(r2)
  806fdc:	103ee83a 	callr	r2
  806fe0:	e0bfff15 	stw	r2,-4(fp)
  806fe4:	00000306 	br	806ff4 <alt_get_errno+0x48>
  806fe8:	00802074 	movhi	r2,129
  806fec:	10bc9d04 	addi	r2,r2,-3468
  806ff0:	e0bfff15 	stw	r2,-4(fp)
  806ff4:	e0bfff17 	ldw	r2,-4(fp)
}
  806ff8:	e037883a 	mov	sp,fp
  806ffc:	dfc00117 	ldw	ra,4(sp)
  807000:	df000017 	ldw	fp,0(sp)
  807004:	dec00204 	addi	sp,sp,8
  807008:	f800283a 	ret

0080700c <alt_irq_register>:
 */
 
int alt_irq_register (alt_u32 id, 
                      void* context, 
                      alt_isr_func handler)
{
  80700c:	deffef04 	addi	sp,sp,-68
  807010:	df001015 	stw	fp,64(sp)
  807014:	df001004 	addi	fp,sp,64
  807018:	e13ffc15 	stw	r4,-16(fp)
  80701c:	e17ffd15 	stw	r5,-12(fp)
  807020:	e1bffe15 	stw	r6,-8(fp)
  int rc = -EINVAL;  
  807024:	00bffa84 	movi	r2,-22
  807028:	e0bffb15 	stw	r2,-20(fp)
  alt_irq_context status;

  if (id < ALT_NIRQ)
  80702c:	e0bffc17 	ldw	r2,-16(fp)
  807030:	10800828 	cmpgeui	r2,r2,32
  807034:	1000601e 	bne	r2,zero,8071b8 <alt_irq_register+0x1ac>
static ALT_INLINE alt_irq_context ALT_ALWAYS_INLINE 
       alt_irq_disable_all (void)
{
  alt_irq_context context;

  NIOS2_READ_STATUS (context);
  807038:	0005303a 	rdctl	r2,status
  80703c:	e0bff915 	stw	r2,-28(fp)

  NIOS2_WRITE_STATUS (context & ~NIOS2_STATUS_PIE_MSK);
  807040:	e0fff917 	ldw	r3,-28(fp)
  807044:	00bfff84 	movi	r2,-2
  807048:	1884703a 	and	r2,r3,r2
  80704c:	1001703a 	wrctl	status,r2
  
  return context;
  807050:	e0bff917 	ldw	r2,-28(fp)
     * interrupts are disabled while the handler tables are updated to ensure
     * that an interrupt doesn't occur while the tables are in an inconsistant
     * state.
     */

    status = alt_irq_disable_all ();
  807054:	e0bffa15 	stw	r2,-24(fp)

    alt_irq[id].handler = handler;
  807058:	e0bffc17 	ldw	r2,-16(fp)
  80705c:	00c02074 	movhi	r3,129
  807060:	18fcde04 	addi	r3,r3,-3208
  807064:	100490fa 	slli	r2,r2,3
  807068:	10c7883a 	add	r3,r2,r3
  80706c:	e0bffe17 	ldw	r2,-8(fp)
  807070:	18800015 	stw	r2,0(r3)
    alt_irq[id].context = context;
  807074:	e0bffc17 	ldw	r2,-16(fp)
  807078:	00c02074 	movhi	r3,129
  80707c:	18fcde04 	addi	r3,r3,-3208
  807080:	100490fa 	slli	r2,r2,3
  807084:	10c5883a 	add	r2,r2,r3
  807088:	10c00104 	addi	r3,r2,4
  80708c:	e0bffd17 	ldw	r2,-12(fp)
  807090:	18800015 	stw	r2,0(r3)

    rc = (handler) ? alt_irq_enable (id): alt_irq_disable (id);
  807094:	e0bffe17 	ldw	r2,-8(fp)
  807098:	1005003a 	cmpeq	r2,r2,zero
  80709c:	1000201e 	bne	r2,zero,807120 <alt_irq_register+0x114>
  8070a0:	e0bffc17 	ldw	r2,-16(fp)
  8070a4:	e0bff715 	stw	r2,-36(fp)
static ALT_INLINE alt_irq_context ALT_ALWAYS_INLINE 
       alt_irq_disable_all (void)
{
  alt_irq_context context;

  NIOS2_READ_STATUS (context);
  8070a8:	0005303a 	rdctl	r2,status
  8070ac:	e0bff615 	stw	r2,-40(fp)

  NIOS2_WRITE_STATUS (context & ~NIOS2_STATUS_PIE_MSK);
  8070b0:	e0fff617 	ldw	r3,-40(fp)
  8070b4:	00bfff84 	movi	r2,-2
  8070b8:	1884703a 	and	r2,r3,r2
  8070bc:	1001703a 	wrctl	status,r2
  
  return context;
  8070c0:	e0bff617 	ldw	r2,-40(fp)
static ALT_INLINE int ALT_ALWAYS_INLINE alt_irq_enable (alt_u32 id)
{
  alt_irq_context  status;
  extern volatile alt_u32 alt_irq_active;

  status = alt_irq_disable_all ();
  8070c4:	e0bff815 	stw	r2,-32(fp)

  alt_irq_active |= (1 << id);
  8070c8:	e0fff717 	ldw	r3,-36(fp)
  8070cc:	00800044 	movi	r2,1
  8070d0:	10c4983a 	sll	r2,r2,r3
  8070d4:	1007883a 	mov	r3,r2
  8070d8:	00802074 	movhi	r2,129
  8070dc:	10bc9e04 	addi	r2,r2,-3464
  8070e0:	10800017 	ldw	r2,0(r2)
  8070e4:	1886b03a 	or	r3,r3,r2
  8070e8:	00802074 	movhi	r2,129
  8070ec:	10bc9e04 	addi	r2,r2,-3464
  8070f0:	10c00015 	stw	r3,0(r2)
  NIOS2_WRITE_IENABLE (alt_irq_active);
  8070f4:	00802074 	movhi	r2,129
  8070f8:	10bc9e04 	addi	r2,r2,-3464
  8070fc:	10800017 	ldw	r2,0(r2)
  807100:	100170fa 	wrctl	ienable,r2
  807104:	e0bff817 	ldw	r2,-32(fp)
  807108:	e0bff515 	stw	r2,-44(fp)
  status &= ~NIOS2_STATUS_PIE_MSK;
  status |= (context & NIOS2_STATUS_PIE_MSK);
  
  NIOS2_WRITE_STATUS (status);
#else
  NIOS2_WRITE_STATUS (context);
  80710c:	e0bff517 	ldw	r2,-44(fp)
  807110:	1001703a 	wrctl	status,r2

  alt_irq_enable_all(status);

  return 0;
  807114:	0005883a 	mov	r2,zero
  807118:	e0bfff15 	stw	r2,-4(fp)
  80711c:	00002006 	br	8071a0 <alt_irq_register+0x194>
  807120:	e0bffc17 	ldw	r2,-16(fp)
  807124:	e0bff315 	stw	r2,-52(fp)
static ALT_INLINE alt_irq_context ALT_ALWAYS_INLINE 
       alt_irq_disable_all (void)
{
  alt_irq_context context;

  NIOS2_READ_STATUS (context);
  807128:	0005303a 	rdctl	r2,status
  80712c:	e0bff215 	stw	r2,-56(fp)

  NIOS2_WRITE_STATUS (context & ~NIOS2_STATUS_PIE_MSK);
  807130:	e0fff217 	ldw	r3,-56(fp)
  807134:	00bfff84 	movi	r2,-2
  807138:	1884703a 	and	r2,r3,r2
  80713c:	1001703a 	wrctl	status,r2
  
  return context;
  807140:	e0bff217 	ldw	r2,-56(fp)
static ALT_INLINE int ALT_ALWAYS_INLINE alt_irq_disable (alt_u32 id)
{
  alt_irq_context  status;
  extern volatile alt_u32 alt_irq_active;

  status = alt_irq_disable_all ();
  807144:	e0bff415 	stw	r2,-48(fp)

  alt_irq_active &= ~(1 << id);
  807148:	e0fff317 	ldw	r3,-52(fp)
  80714c:	00800044 	movi	r2,1
  807150:	10c4983a 	sll	r2,r2,r3
  807154:	0084303a 	nor	r2,zero,r2
  807158:	1007883a 	mov	r3,r2
  80715c:	00802074 	movhi	r2,129
  807160:	10bc9e04 	addi	r2,r2,-3464
  807164:	10800017 	ldw	r2,0(r2)
  807168:	1886703a 	and	r3,r3,r2
  80716c:	00802074 	movhi	r2,129
  807170:	10bc9e04 	addi	r2,r2,-3464
  807174:	10c00015 	stw	r3,0(r2)
  NIOS2_WRITE_IENABLE (alt_irq_active);
  807178:	00802074 	movhi	r2,129
  80717c:	10bc9e04 	addi	r2,r2,-3464
  807180:	10800017 	ldw	r2,0(r2)
  807184:	100170fa 	wrctl	ienable,r2
  807188:	e0bff417 	ldw	r2,-48(fp)
  80718c:	e0bff115 	stw	r2,-60(fp)
  status &= ~NIOS2_STATUS_PIE_MSK;
  status |= (context & NIOS2_STATUS_PIE_MSK);
  
  NIOS2_WRITE_STATUS (status);
#else
  NIOS2_WRITE_STATUS (context);
  807190:	e0bff117 	ldw	r2,-60(fp)
  807194:	1001703a 	wrctl	status,r2

  alt_irq_enable_all(status);

  return 0;
  807198:	0005883a 	mov	r2,zero
  80719c:	e0bfff15 	stw	r2,-4(fp)
  8071a0:	e0bfff17 	ldw	r2,-4(fp)
  8071a4:	e0bffb15 	stw	r2,-20(fp)
  8071a8:	e0bffa17 	ldw	r2,-24(fp)
  8071ac:	e0bff015 	stw	r2,-64(fp)
  8071b0:	e0bff017 	ldw	r2,-64(fp)
  8071b4:	1001703a 	wrctl	status,r2

    alt_irq_enable_all(status);
  }
  return rc; 
  8071b8:	e0bffb17 	ldw	r2,-20(fp)
}
  8071bc:	e037883a 	mov	sp,fp
  8071c0:	df000017 	ldw	fp,0(sp)
  8071c4:	dec00104 	addi	sp,sp,4
  8071c8:	f800283a 	ret

008071cc <isatty>:
 *
 * ALT_ISATTY is mapped onto the isatty() system call in alt_syscall.h
 */
 
int ALT_ISATTY (int file)
{
  8071cc:	deffeb04 	addi	sp,sp,-84
  8071d0:	dfc01415 	stw	ra,80(sp)
  8071d4:	df001315 	stw	fp,76(sp)
  8071d8:	df001304 	addi	fp,sp,76
  8071dc:	e13ffd15 	stw	r4,-12(fp)
   * A common error case is that when the file descriptor was created, the call
   * to open() failed resulting in a negative file descriptor. This is trapped
   * below so that we don't try and process an invalid file descriptor.
   */

  fd = (file < 0) ? NULL : &alt_fd_list[file];
  8071e0:	e0bffd17 	ldw	r2,-12(fp)
  8071e4:	1004803a 	cmplt	r2,r2,zero
  8071e8:	1000081e 	bne	r2,zero,80720c <isatty+0x40>
  8071ec:	e0bffd17 	ldw	r2,-12(fp)
  8071f0:	10800324 	muli	r2,r2,12
  8071f4:	1007883a 	mov	r3,r2
  8071f8:	00802074 	movhi	r2,129
  8071fc:	10b02e04 	addi	r2,r2,-16200
  807200:	1887883a 	add	r3,r3,r2
  807204:	e0ffff15 	stw	r3,-4(fp)
  807208:	00000106 	br	807210 <isatty+0x44>
  80720c:	e03fff15 	stw	zero,-4(fp)
  807210:	e0bfff17 	ldw	r2,-4(fp)
  807214:	e0bfed15 	stw	r2,-76(fp)
  
  if (fd)
  807218:	e0bfed17 	ldw	r2,-76(fp)
  80721c:	1005003a 	cmpeq	r2,r2,zero
  807220:	10000f1e 	bne	r2,zero,807260 <isatty+0x94>
    /*
     * If a device driver does not provide an fstat() function, then it is 
     * treated as a terminal device by default.
     */

    if (!fd->dev->fstat)
  807224:	e0bfed17 	ldw	r2,-76(fp)
  807228:	10800017 	ldw	r2,0(r2)
  80722c:	10800817 	ldw	r2,32(r2)
  807230:	1004c03a 	cmpne	r2,r2,zero
  807234:	1000031e 	bne	r2,zero,807244 <isatty+0x78>
    {
      return 1;
  807238:	00800044 	movi	r2,1
  80723c:	e0bffe15 	stw	r2,-8(fp)
  807240:	00000c06 	br	807274 <isatty+0xa8>
     * this is called so that the device can identify itself.
     */ 

    else
    {
      fstat (file, &stat);
  807244:	e17fee04 	addi	r5,fp,-72
  807248:	e13ffd17 	ldw	r4,-12(fp)
  80724c:	0806ed80 	call	806ed8 <fstat>
      return (stat.st_mode == _IFCHR) ? 1 : 0;
  807250:	e0bfef17 	ldw	r2,-68(fp)
  807254:	10880020 	cmpeqi	r2,r2,8192
  807258:	e0bffe15 	stw	r2,-8(fp)
  80725c:	00000506 	br	807274 <isatty+0xa8>
    }
  }
  else
  {
    ALT_ERRNO = EBADFD;
  807260:	080728c0 	call	80728c <alt_get_errno>
  807264:	1007883a 	mov	r3,r2
  807268:	00801444 	movi	r2,81
  80726c:	18800015 	stw	r2,0(r3)
    return 0;
  807270:	e03ffe15 	stw	zero,-8(fp)
  807274:	e0bffe17 	ldw	r2,-8(fp)
  }
}
  807278:	e037883a 	mov	sp,fp
  80727c:	dfc00117 	ldw	ra,4(sp)
  807280:	df000017 	ldw	fp,0(sp)
  807284:	dec00204 	addi	sp,sp,8
  807288:	f800283a 	ret

0080728c <alt_get_errno>:
#undef errno

extern int errno;

static ALT_INLINE int* alt_get_errno(void)
{
  80728c:	defffd04 	addi	sp,sp,-12
  807290:	dfc00215 	stw	ra,8(sp)
  807294:	df000115 	stw	fp,4(sp)
  807298:	df000104 	addi	fp,sp,4
  return ((alt_errno) ? alt_errno() : &errno);
  80729c:	00802074 	movhi	r2,129
  8072a0:	10b52904 	addi	r2,r2,-11100
  8072a4:	10800017 	ldw	r2,0(r2)
  8072a8:	1005003a 	cmpeq	r2,r2,zero
  8072ac:	1000061e 	bne	r2,zero,8072c8 <alt_get_errno+0x3c>
  8072b0:	00802074 	movhi	r2,129
  8072b4:	10b52904 	addi	r2,r2,-11100
  8072b8:	10800017 	ldw	r2,0(r2)
  8072bc:	103ee83a 	callr	r2
  8072c0:	e0bfff15 	stw	r2,-4(fp)
  8072c4:	00000306 	br	8072d4 <alt_get_errno+0x48>
  8072c8:	00802074 	movhi	r2,129
  8072cc:	10bc9d04 	addi	r2,r2,-3468
  8072d0:	e0bfff15 	stw	r2,-4(fp)
  8072d4:	e0bfff17 	ldw	r2,-4(fp)
}
  8072d8:	e037883a 	mov	sp,fp
  8072dc:	dfc00117 	ldw	ra,4(sp)
  8072e0:	df000017 	ldw	fp,0(sp)
  8072e4:	dec00204 	addi	sp,sp,8
  8072e8:	f800283a 	ret

008072ec <alt_load>:
 * there is no bootloader, so this application is responsible for loading to
 * RAM any sections that are required.
 */  

void alt_load (void)
{
  8072ec:	defffe04 	addi	sp,sp,-8
  8072f0:	dfc00115 	stw	ra,4(sp)
  8072f4:	df000015 	stw	fp,0(sp)
  8072f8:	d839883a 	mov	fp,sp
  /* 
   * Copy the .rwdata section. 
   */

  alt_load_section (&__flash_rwdata_start, 
  8072fc:	01002074 	movhi	r4,129
  807300:	21353004 	addi	r4,r4,-11072
  807304:	01402074 	movhi	r5,129
  807308:	296e2204 	addi	r5,r5,-18296
  80730c:	01802074 	movhi	r6,129
  807310:	31b53004 	addi	r6,r6,-11072
  807314:	080736c0 	call	80736c <alt_load_section>

  /*
   * Copy the exception handler.
   */

  alt_load_section (&__flash_exceptions_start, 
  807318:	01002034 	movhi	r4,128
  80731c:	21000804 	addi	r4,r4,32
  807320:	01402034 	movhi	r5,128
  807324:	29400804 	addi	r5,r5,32
  807328:	01802034 	movhi	r6,128
  80732c:	31806d04 	addi	r6,r6,436
  807330:	080736c0 	call	80736c <alt_load_section>

  /*
   * Copy the .rodata section.
   */

  alt_load_section (&__flash_rodata_start, 
  807334:	01002074 	movhi	r4,129
  807338:	212d0f04 	addi	r4,r4,-19396
  80733c:	01402074 	movhi	r5,129
  807340:	296d0f04 	addi	r5,r5,-19396
  807344:	01802074 	movhi	r6,129
  807348:	31ae2204 	addi	r6,r6,-18296
  80734c:	080736c0 	call	80736c <alt_load_section>
  
  /*
   * Now ensure that the caches are in synch.
   */
  
  alt_dcache_flush_all();
  807350:	080a3f40 	call	80a3f4 <alt_dcache_flush_all>
  alt_icache_flush_all();
  807354:	080a8800 	call	80a880 <alt_icache_flush_all>
}
  807358:	e037883a 	mov	sp,fp
  80735c:	dfc00117 	ldw	ra,4(sp)
  807360:	df000017 	ldw	fp,0(sp)
  807364:	dec00204 	addi	sp,sp,8
  807368:	f800283a 	ret

0080736c <alt_load_section>:
 */

static void ALT_INLINE alt_load_section (alt_u32* from, 
                                         alt_u32* to, 
                                         alt_u32* end)
{
  80736c:	defffc04 	addi	sp,sp,-16
  807370:	df000315 	stw	fp,12(sp)
  807374:	df000304 	addi	fp,sp,12
  807378:	e13ffd15 	stw	r4,-12(fp)
  80737c:	e17ffe15 	stw	r5,-8(fp)
  807380:	e1bfff15 	stw	r6,-4(fp)
  if (to != from)
  807384:	e0fffe17 	ldw	r3,-8(fp)
  807388:	e0bffd17 	ldw	r2,-12(fp)
  80738c:	18800e26 	beq	r3,r2,8073c8 <alt_load_section+0x5c>
  {
    while( to != end )
  807390:	00000a06 	br	8073bc <alt_load_section+0x50>
    {
      *to++ = *from++;
  807394:	e0bffd17 	ldw	r2,-12(fp)
  807398:	10c00017 	ldw	r3,0(r2)
  80739c:	e0bffe17 	ldw	r2,-8(fp)
  8073a0:	10c00015 	stw	r3,0(r2)
  8073a4:	e0bffe17 	ldw	r2,-8(fp)
  8073a8:	10800104 	addi	r2,r2,4
  8073ac:	e0bffe15 	stw	r2,-8(fp)
  8073b0:	e0bffd17 	ldw	r2,-12(fp)
  8073b4:	10800104 	addi	r2,r2,4
  8073b8:	e0bffd15 	stw	r2,-12(fp)
                                         alt_u32* to, 
                                         alt_u32* end)
{
  if (to != from)
  {
    while( to != end )
  8073bc:	e0fffe17 	ldw	r3,-8(fp)
  8073c0:	e0bfff17 	ldw	r2,-4(fp)
  8073c4:	18bff31e 	bne	r3,r2,807394 <alt_load_section+0x28>
    {
      *to++ = *from++;
    }
  }
}
  8073c8:	e037883a 	mov	sp,fp
  8073cc:	df000017 	ldw	fp,0(sp)
  8073d0:	dec00104 	addi	sp,sp,4
  8073d4:	f800283a 	ret

008073d8 <lseek>:
 * ALT_LSEEK is mapped onto the lseek() system call in alt_syscall.h
 *
 */

off_t ALT_LSEEK (int file, off_t ptr, int dir)
{
  8073d8:	defff804 	addi	sp,sp,-32
  8073dc:	dfc00715 	stw	ra,28(sp)
  8073e0:	df000615 	stw	fp,24(sp)
  8073e4:	df000604 	addi	fp,sp,24
  8073e8:	e13ffc15 	stw	r4,-16(fp)
  8073ec:	e17ffd15 	stw	r5,-12(fp)
  8073f0:	e1bffe15 	stw	r6,-8(fp)
  alt_fd* fd;
  off_t   rc = 0; 
  8073f4:	e03ffa15 	stw	zero,-24(fp)
   * A common error case is that when the file descriptor was created, the call
   * to open() failed resulting in a negative file descriptor. This is trapped
   * below so that we don't try and process an invalid file descriptor.
   */

  fd = (file < 0) ? NULL : &alt_fd_list[file];
  8073f8:	e0bffc17 	ldw	r2,-16(fp)
  8073fc:	1004803a 	cmplt	r2,r2,zero
  807400:	1000081e 	bne	r2,zero,807424 <lseek+0x4c>
  807404:	e0bffc17 	ldw	r2,-16(fp)
  807408:	10800324 	muli	r2,r2,12
  80740c:	1007883a 	mov	r3,r2
  807410:	00802074 	movhi	r2,129
  807414:	10b02e04 	addi	r2,r2,-16200
  807418:	1887883a 	add	r3,r3,r2
  80741c:	e0ffff15 	stw	r3,-4(fp)
  807420:	00000106 	br	807428 <lseek+0x50>
  807424:	e03fff15 	stw	zero,-4(fp)
  807428:	e0bfff17 	ldw	r2,-4(fp)
  80742c:	e0bffb15 	stw	r2,-20(fp)
  
  if (fd) 
  807430:	e0bffb17 	ldw	r2,-20(fp)
  807434:	1005003a 	cmpeq	r2,r2,zero
  807438:	1000111e 	bne	r2,zero,807480 <lseek+0xa8>
    /*
     * If the device driver provides an implementation of the lseek() function,
     * then call that to process the request.
     */
 
    if (fd->dev->lseek)
  80743c:	e0bffb17 	ldw	r2,-20(fp)
  807440:	10800017 	ldw	r2,0(r2)
  807444:	10800717 	ldw	r2,28(r2)
  807448:	1005003a 	cmpeq	r2,r2,zero
  80744c:	1000091e 	bne	r2,zero,807474 <lseek+0x9c>
    {
      rc = fd->dev->lseek(fd, ptr, dir);
  807450:	e0bffb17 	ldw	r2,-20(fp)
  807454:	10800017 	ldw	r2,0(r2)
  807458:	10800717 	ldw	r2,28(r2)
  80745c:	e13ffb17 	ldw	r4,-20(fp)
  807460:	e17ffd17 	ldw	r5,-12(fp)
  807464:	e1bffe17 	ldw	r6,-8(fp)
  807468:	103ee83a 	callr	r2
  80746c:	e0bffa15 	stw	r2,-24(fp)
  807470:	00000506 	br	807488 <lseek+0xb0>
     * Otherwise return an error.
     */

    else
    {
      rc = -ENOTSUP;
  807474:	00bfde84 	movi	r2,-134
  807478:	e0bffa15 	stw	r2,-24(fp)
  80747c:	00000206 	br	807488 <lseek+0xb0>
    }
  }
  else  
  {
    rc = -EBADFD;
  807480:	00bfebc4 	movi	r2,-81
  807484:	e0bffa15 	stw	r2,-24(fp)
  }

  if (rc < 0)
  807488:	e0bffa17 	ldw	r2,-24(fp)
  80748c:	1004403a 	cmpge	r2,r2,zero
  807490:	1000071e 	bne	r2,zero,8074b0 <lseek+0xd8>
  {
    ALT_ERRNO = -rc;
  807494:	08074c80 	call	8074c8 <alt_get_errno>
  807498:	1007883a 	mov	r3,r2
  80749c:	e0bffa17 	ldw	r2,-24(fp)
  8074a0:	0085c83a 	sub	r2,zero,r2
  8074a4:	18800015 	stw	r2,0(r3)
    rc = -1;
  8074a8:	00bfffc4 	movi	r2,-1
  8074ac:	e0bffa15 	stw	r2,-24(fp)
  }

  return rc;
  8074b0:	e0bffa17 	ldw	r2,-24(fp)
}
  8074b4:	e037883a 	mov	sp,fp
  8074b8:	dfc00117 	ldw	ra,4(sp)
  8074bc:	df000017 	ldw	fp,0(sp)
  8074c0:	dec00204 	addi	sp,sp,8
  8074c4:	f800283a 	ret

008074c8 <alt_get_errno>:
#undef errno

extern int errno;

static ALT_INLINE int* alt_get_errno(void)
{
  8074c8:	defffd04 	addi	sp,sp,-12
  8074cc:	dfc00215 	stw	ra,8(sp)
  8074d0:	df000115 	stw	fp,4(sp)
  8074d4:	df000104 	addi	fp,sp,4
  return ((alt_errno) ? alt_errno() : &errno);
  8074d8:	00802074 	movhi	r2,129
  8074dc:	10b52904 	addi	r2,r2,-11100
  8074e0:	10800017 	ldw	r2,0(r2)
  8074e4:	1005003a 	cmpeq	r2,r2,zero
  8074e8:	1000061e 	bne	r2,zero,807504 <alt_get_errno+0x3c>
  8074ec:	00802074 	movhi	r2,129
  8074f0:	10b52904 	addi	r2,r2,-11100
  8074f4:	10800017 	ldw	r2,0(r2)
  8074f8:	103ee83a 	callr	r2
  8074fc:	e0bfff15 	stw	r2,-4(fp)
  807500:	00000306 	br	807510 <alt_get_errno+0x48>
  807504:	00802074 	movhi	r2,129
  807508:	10bc9d04 	addi	r2,r2,-3468
  80750c:	e0bfff15 	stw	r2,-4(fp)
  807510:	e0bfff17 	ldw	r2,-4(fp)
}
  807514:	e037883a 	mov	sp,fp
  807518:	dfc00117 	ldw	ra,4(sp)
  80751c:	df000017 	ldw	fp,0(sp)
  807520:	dec00204 	addi	sp,sp,8
  807524:	f800283a 	ret

00807528 <alt_main>:
 * devices/filesystems/components in the system; and call the entry point for
 * the users application, i.e. main().
 */

void alt_main (void)
{
  807528:	defffd04 	addi	sp,sp,-12
  80752c:	dfc00215 	stw	ra,8(sp)
  807530:	df000115 	stw	fp,4(sp)
  807534:	df000104 	addi	fp,sp,4
#endif

  /* ALT LOG - please see HAL/sys/alt_log_printf.h for details */
  ALT_LOG_PRINT_BOOT("[alt_main.c] Entering alt_main, calling alt_irq_init.\r\n");
  /* Initialize the interrupt controller. */
  alt_irq_init (NULL);
  807538:	0009883a 	mov	r4,zero
  80753c:	0807e580 	call	807e58 <alt_irq_init>
  ALT_LOG_PRINT_BOOT("[alt_main.c] Done OS Init, calling alt_sem_create.\r\n");
  ALT_SEM_CREATE (&alt_fd_list_lock, 1);

  /* Initialize the device drivers/software components. */
  ALT_LOG_PRINT_BOOT("[alt_main.c] Calling alt_sys_init.\r\n");
  alt_sys_init();
  807540:	0807e8c0 	call	807e8c <alt_sys_init>
   * devices be present (not equal to /dev/null) and if direct drivers
   * aren't being used.
   */

    ALT_LOG_PRINT_BOOT("[alt_main.c] Redirecting IO.\r\n");
    alt_io_redirect(ALT_STDOUT, ALT_STDIN, ALT_STDERR);
  807544:	01002074 	movhi	r4,129
  807548:	212d7304 	addi	r4,r4,-18996
  80754c:	01402074 	movhi	r5,129
  807550:	296d7304 	addi	r5,r5,-18996
  807554:	01802074 	movhi	r6,129
  807558:	31ad7304 	addi	r6,r6,-18996
  80755c:	080ac400 	call	80ac40 <alt_io_redirect>
  /* 
   * Call the C++ constructors 
   */

  ALT_LOG_PRINT_BOOT("[alt_main.c] Calling C++ constructors.\r\n");
  _do_ctors ();
  807560:	080a54c0 	call	80a54c <_do_ctors>
   * redefined as _exit()). This is in the interest of reducing code footprint,
   * in that the atexit() overhead is removed when it's not needed.
   */

  ALT_LOG_PRINT_BOOT("[alt_main.c] Calling atexit.\r\n");
  atexit (_do_dtors);
  807564:	01002074 	movhi	r4,129
  807568:	21296c04 	addi	r4,r4,-23120
  80756c:	080aee40 	call	80aee4 <atexit>
  ALT_LOG_PRINT_BOOT("[alt_main.c] Calling main.\r\n");

#ifdef ALT_NO_EXIT
  main (alt_argc, alt_argv, alt_envp);
#else
  result = main (alt_argc, alt_argv, alt_envp);
  807570:	d1278017 	ldw	r4,-25088(gp)
  807574:	d1678117 	ldw	r5,-25084(gp)
  807578:	d1a78217 	ldw	r6,-25080(gp)
  80757c:	08002000 	call	800200 <main>
  807580:	e0bfff15 	stw	r2,-4(fp)
  close(STDOUT_FILENO);
  807584:	01000044 	movi	r4,1
  807588:	0806d500 	call	806d50 <close>
  exit (result);
  80758c:	e13fff17 	ldw	r4,-4(fp)
  807590:	080aef80 	call	80aef8 <exit>

00807594 <__malloc_lock>:
 * configuration is single threaded, so there is nothing to do here. Note that 
 * this requires that malloc is never called by an interrupt service routine.
 */

void __malloc_lock ( struct _reent *_r )
{
  807594:	defffe04 	addi	sp,sp,-8
  807598:	df000115 	stw	fp,4(sp)
  80759c:	df000104 	addi	fp,sp,4
  8075a0:	e13fff15 	stw	r4,-4(fp)
}
  8075a4:	e037883a 	mov	sp,fp
  8075a8:	df000017 	ldw	fp,0(sp)
  8075ac:	dec00104 	addi	sp,sp,4
  8075b0:	f800283a 	ret

008075b4 <__malloc_unlock>:
/*
 *
 */

void __malloc_unlock ( struct _reent *_r )
{
  8075b4:	defffe04 	addi	sp,sp,-8
  8075b8:	df000115 	stw	fp,4(sp)
  8075bc:	df000104 	addi	fp,sp,4
  8075c0:	e13fff15 	stw	r4,-4(fp)
}
  8075c4:	e037883a 	mov	sp,fp
  8075c8:	df000017 	ldw	fp,0(sp)
  8075cc:	dec00104 	addi	sp,sp,4
  8075d0:	f800283a 	ret

008075d4 <alt_file_locked>:
 * performed for devices. Filesystems are required to handle the ioctl() call
 * themselves, and report the error from the filesystems open() function. 
 */ 

static int alt_file_locked (alt_fd* fd)
{
  8075d4:	defffc04 	addi	sp,sp,-16
  8075d8:	df000315 	stw	fp,12(sp)
  8075dc:	df000304 	addi	fp,sp,12
  8075e0:	e13ffe15 	stw	r4,-8(fp)

  /*
   * Mark the file descriptor as belonging to a device.
   */

  fd->fd_flags |= ALT_FD_DEV;
  8075e4:	e0bffe17 	ldw	r2,-8(fp)
  8075e8:	10800217 	ldw	r2,8(r2)
  8075ec:	10d00034 	orhi	r3,r2,16384
  8075f0:	e0bffe17 	ldw	r2,-8(fp)
  8075f4:	10c00215 	stw	r3,8(r2)
  /*
   * Loop through all current file descriptors searching for one that's locked
   * for exclusive access. If a match is found, generate an error.
   */

  for (i = 0; i <= alt_max_fd; i++)
  8075f8:	e03ffd15 	stw	zero,-12(fp)
  8075fc:	00002006 	br	807680 <alt_file_locked+0xac>
  {
    if ((alt_fd_list[i].dev == fd->dev) &&
  807600:	e0bffd17 	ldw	r2,-12(fp)
  807604:	00c02074 	movhi	r3,129
  807608:	18f02e04 	addi	r3,r3,-16200
  80760c:	10800324 	muli	r2,r2,12
  807610:	10c5883a 	add	r2,r2,r3
  807614:	10c00017 	ldw	r3,0(r2)
  807618:	e0bffe17 	ldw	r2,-8(fp)
  80761c:	10800017 	ldw	r2,0(r2)
  807620:	1880141e 	bne	r3,r2,807674 <alt_file_locked+0xa0>
  807624:	e0bffd17 	ldw	r2,-12(fp)
  807628:	00c02074 	movhi	r3,129
  80762c:	18f02e04 	addi	r3,r3,-16200
  807630:	10800324 	muli	r2,r2,12
  807634:	10c5883a 	add	r2,r2,r3
  807638:	10800204 	addi	r2,r2,8
  80763c:	10800017 	ldw	r2,0(r2)
  807640:	1004403a 	cmpge	r2,r2,zero
  807644:	10000b1e 	bne	r2,zero,807674 <alt_file_locked+0xa0>
  807648:	e0bffd17 	ldw	r2,-12(fp)
  80764c:	10800324 	muli	r2,r2,12
  807650:	1007883a 	mov	r3,r2
  807654:	00802074 	movhi	r2,129
  807658:	10b02e04 	addi	r2,r2,-16200
  80765c:	1887883a 	add	r3,r3,r2
  807660:	e0bffe17 	ldw	r2,-8(fp)
  807664:	18800326 	beq	r3,r2,807674 <alt_file_locked+0xa0>
        (alt_fd_list[i].fd_flags & ALT_FD_EXCL) &&
        (&alt_fd_list[i] != fd))
    {
      return -EACCES;
  807668:	00bffcc4 	movi	r2,-13
  80766c:	e0bfff15 	stw	r2,-4(fp)
  807670:	00000a06 	br	80769c <alt_file_locked+0xc8>
  /*
   * Loop through all current file descriptors searching for one that's locked
   * for exclusive access. If a match is found, generate an error.
   */

  for (i = 0; i <= alt_max_fd; i++)
  807674:	e0bffd17 	ldw	r2,-12(fp)
  807678:	10800044 	addi	r2,r2,1
  80767c:	e0bffd15 	stw	r2,-12(fp)
  807680:	00802074 	movhi	r2,129
  807684:	10b52804 	addi	r2,r2,-11104
  807688:	10800017 	ldw	r2,0(r2)
  80768c:	1007883a 	mov	r3,r2
  807690:	e0bffd17 	ldw	r2,-12(fp)
  807694:	18bfda2e 	bgeu	r3,r2,807600 <alt_file_locked+0x2c>
    }
  }
  
  /* The device is not locked */
 
  return 0;
  807698:	e03fff15 	stw	zero,-4(fp)
  80769c:	e0bfff17 	ldw	r2,-4(fp)
}
  8076a0:	e037883a 	mov	sp,fp
  8076a4:	df000017 	ldw	fp,0(sp)
  8076a8:	dec00104 	addi	sp,sp,4
  8076ac:	f800283a 	ret

008076b0 <open>:
 *
 * ALT_OPEN is mapped onto the open() system call in alt_syscall.h
 */
 
int ALT_OPEN (const char* file, int flags, int mode)
{ 
  8076b0:	defff404 	addi	sp,sp,-48
  8076b4:	dfc00b15 	stw	ra,44(sp)
  8076b8:	df000a15 	stw	fp,40(sp)
  8076bc:	df000a04 	addi	fp,sp,40
  8076c0:	e13ffb15 	stw	r4,-20(fp)
  8076c4:	e17ffc15 	stw	r5,-16(fp)
  8076c8:	e1bffd15 	stw	r6,-12(fp)
  alt_dev* dev;
  alt_fd*  fd;
  int index  = -1;
  8076cc:	00bfffc4 	movi	r2,-1
  8076d0:	e0bff815 	stw	r2,-32(fp)
  int status = -ENODEV;
  8076d4:	00bffb44 	movi	r2,-19
  8076d8:	e0bff715 	stw	r2,-36(fp)
  int isafs = 0;
  8076dc:	e03ff615 	stw	zero,-40(fp)
  /* 
   * Check the device list, to see if a device with a matching name is 
   * registered.
   */
  
  if (!(dev = alt_find_dev (file, &alt_dev_list)))
  8076e0:	e13ffb17 	ldw	r4,-20(fp)
  8076e4:	01402074 	movhi	r5,129
  8076e8:	29752604 	addi	r5,r5,-11112
  8076ec:	080a6140 	call	80a614 <alt_find_dev>
  8076f0:	e0bffa15 	stw	r2,-24(fp)
  8076f4:	e0bffa17 	ldw	r2,-24(fp)
  8076f8:	1004c03a 	cmpne	r2,r2,zero
  8076fc:	1000051e 	bne	r2,zero,807714 <open+0x64>
  {
    /* No matching device, so try the filesystem list */

    dev   = alt_find_file (file);
  807700:	e13ffb17 	ldw	r4,-20(fp)
  807704:	080a6a80 	call	80a6a8 <alt_find_file>
  807708:	e0bffa15 	stw	r2,-24(fp)
    isafs = 1;
  80770c:	00800044 	movi	r2,1
  807710:	e0bff615 	stw	r2,-40(fp)

  /* 
   * If a matching device or filesystem is found, allocate a file descriptor. 
   */

  if (dev)
  807714:	e0bffa17 	ldw	r2,-24(fp)
  807718:	1005003a 	cmpeq	r2,r2,zero
  80771c:	1000301e 	bne	r2,zero,8077e0 <open+0x130>
  {
    if ((index = alt_get_fd (dev)) < 0)
  807720:	e13ffa17 	ldw	r4,-24(fp)
  807724:	080a7c80 	call	80a7c8 <alt_get_fd>
  807728:	e0bff815 	stw	r2,-32(fp)
  80772c:	e0bff817 	ldw	r2,-32(fp)
  807730:	1004403a 	cmpge	r2,r2,zero
  807734:	1000031e 	bne	r2,zero,807744 <open+0x94>
    {
      status = index;
  807738:	e0bff817 	ldw	r2,-32(fp)
  80773c:	e0bff715 	stw	r2,-36(fp)
  807740:	00002906 	br	8077e8 <open+0x138>
    }
    else
    {
      fd = &alt_fd_list[index];
  807744:	e0bff817 	ldw	r2,-32(fp)
  807748:	10800324 	muli	r2,r2,12
  80774c:	1007883a 	mov	r3,r2
  807750:	00802074 	movhi	r2,129
  807754:	10b02e04 	addi	r2,r2,-16200
  807758:	1885883a 	add	r2,r3,r2
  80775c:	e0bff915 	stw	r2,-28(fp)
      fd->fd_flags = (flags & ~ALT_FD_FLAGS_MASK);
  807760:	e0fffc17 	ldw	r3,-16(fp)
  807764:	00900034 	movhi	r2,16384
  807768:	10bfffc4 	addi	r2,r2,-1
  80776c:	1886703a 	and	r3,r3,r2
  807770:	e0bff917 	ldw	r2,-28(fp)
  807774:	10c00215 	stw	r3,8(r2)
      
      /* If this is a device, ensure it isn't already locked */

      if (isafs || ((status = alt_file_locked (fd)) >= 0))
  807778:	e0bff617 	ldw	r2,-40(fp)
  80777c:	1004c03a 	cmpne	r2,r2,zero
  807780:	1000061e 	bne	r2,zero,80779c <open+0xec>
  807784:	e13ff917 	ldw	r4,-28(fp)
  807788:	08075d40 	call	8075d4 <alt_file_locked>
  80778c:	e0bff715 	stw	r2,-36(fp)
  807790:	e0bff717 	ldw	r2,-36(fp)
  807794:	1004803a 	cmplt	r2,r2,zero
  807798:	1000131e 	bne	r2,zero,8077e8 <open+0x138>
        /* 
         * If the device or filesystem provides an open() callback function,
         * call it now to perform any device/filesystem specific operations.
         */
    
        status = (dev->open) ? dev->open(fd, file, flags, mode): 0;
  80779c:	e0bffa17 	ldw	r2,-24(fp)
  8077a0:	10800317 	ldw	r2,12(r2)
  8077a4:	1005003a 	cmpeq	r2,r2,zero
  8077a8:	1000091e 	bne	r2,zero,8077d0 <open+0x120>
  8077ac:	e0bffa17 	ldw	r2,-24(fp)
  8077b0:	10800317 	ldw	r2,12(r2)
  8077b4:	e13ff917 	ldw	r4,-28(fp)
  8077b8:	e17ffb17 	ldw	r5,-20(fp)
  8077bc:	e1bffc17 	ldw	r6,-16(fp)
  8077c0:	e1fffd17 	ldw	r7,-12(fp)
  8077c4:	103ee83a 	callr	r2
  8077c8:	e0bfff15 	stw	r2,-4(fp)
  8077cc:	00000106 	br	8077d4 <open+0x124>
  8077d0:	e03fff15 	stw	zero,-4(fp)
  8077d4:	e0bfff17 	ldw	r2,-4(fp)
  8077d8:	e0bff715 	stw	r2,-36(fp)
  8077dc:	00000206 	br	8077e8 <open+0x138>
      }
    }
  }
  else
  {
    status = -ENODEV;
  8077e0:	00bffb44 	movi	r2,-19
  8077e4:	e0bff715 	stw	r2,-36(fp)
  }

  /* Allocation failed, so clean up and return an error */ 

  if (status < 0)
  8077e8:	e0bff717 	ldw	r2,-36(fp)
  8077ec:	1004403a 	cmpge	r2,r2,zero
  8077f0:	1000091e 	bne	r2,zero,807818 <open+0x168>
  {
    alt_release_fd (index);  
  8077f4:	e13ff817 	ldw	r4,-32(fp)
  8077f8:	0807a180 	call	807a18 <alt_release_fd>
    ALT_ERRNO = -status;
  8077fc:	08078380 	call	807838 <alt_get_errno>
  807800:	e0fff717 	ldw	r3,-36(fp)
  807804:	00c7c83a 	sub	r3,zero,r3
  807808:	10c00015 	stw	r3,0(r2)
    return -1;
  80780c:	00bfffc4 	movi	r2,-1
  807810:	e0bffe15 	stw	r2,-8(fp)
  807814:	00000206 	br	807820 <open+0x170>
  }
  
  /* return the reference upon success */

  return index;
  807818:	e0bff817 	ldw	r2,-32(fp)
  80781c:	e0bffe15 	stw	r2,-8(fp)
  807820:	e0bffe17 	ldw	r2,-8(fp)
}
  807824:	e037883a 	mov	sp,fp
  807828:	dfc00117 	ldw	ra,4(sp)
  80782c:	df000017 	ldw	fp,0(sp)
  807830:	dec00204 	addi	sp,sp,8
  807834:	f800283a 	ret

00807838 <alt_get_errno>:
#undef errno

extern int errno;

static ALT_INLINE int* alt_get_errno(void)
{
  807838:	defffd04 	addi	sp,sp,-12
  80783c:	dfc00215 	stw	ra,8(sp)
  807840:	df000115 	stw	fp,4(sp)
  807844:	df000104 	addi	fp,sp,4
  return ((alt_errno) ? alt_errno() : &errno);
  807848:	00802074 	movhi	r2,129
  80784c:	10b52904 	addi	r2,r2,-11100
  807850:	10800017 	ldw	r2,0(r2)
  807854:	1005003a 	cmpeq	r2,r2,zero
  807858:	1000061e 	bne	r2,zero,807874 <alt_get_errno+0x3c>
  80785c:	00802074 	movhi	r2,129
  807860:	10b52904 	addi	r2,r2,-11100
  807864:	10800017 	ldw	r2,0(r2)
  807868:	103ee83a 	callr	r2
  80786c:	e0bfff15 	stw	r2,-4(fp)
  807870:	00000306 	br	807880 <alt_get_errno+0x48>
  807874:	00802074 	movhi	r2,129
  807878:	10bc9d04 	addi	r2,r2,-3468
  80787c:	e0bfff15 	stw	r2,-4(fp)
  807880:	e0bfff17 	ldw	r2,-4(fp)
}
  807884:	e037883a 	mov	sp,fp
  807888:	dfc00117 	ldw	ra,4(sp)
  80788c:	df000017 	ldw	fp,0(sp)
  807890:	dec00204 	addi	sp,sp,8
  807894:	f800283a 	ret

00807898 <read>:
}

#else /* !ALT_USE_DIRECT_DRIVERS */

int ALT_READ (int file, void *ptr, size_t len)
{
  807898:	defff704 	addi	sp,sp,-36
  80789c:	dfc00815 	stw	ra,32(sp)
  8078a0:	df000715 	stw	fp,28(sp)
  8078a4:	df000704 	addi	fp,sp,28
  8078a8:	e13ffb15 	stw	r4,-20(fp)
  8078ac:	e17ffc15 	stw	r5,-16(fp)
  8078b0:	e1bffd15 	stw	r6,-12(fp)
   * A common error case is that when the file descriptor was created, the call
   * to open() failed resulting in a negative file descriptor. This is trapped
   * below so that we don't try and process an invalid file descriptor.
   */

  fd = (file < 0) ? NULL : &alt_fd_list[file];
  8078b4:	e0bffb17 	ldw	r2,-20(fp)
  8078b8:	1004803a 	cmplt	r2,r2,zero
  8078bc:	1000081e 	bne	r2,zero,8078e0 <read+0x48>
  8078c0:	e0bffb17 	ldw	r2,-20(fp)
  8078c4:	10800324 	muli	r2,r2,12
  8078c8:	1007883a 	mov	r3,r2
  8078cc:	00802074 	movhi	r2,129
  8078d0:	10b02e04 	addi	r2,r2,-16200
  8078d4:	1887883a 	add	r3,r3,r2
  8078d8:	e0ffff15 	stw	r3,-4(fp)
  8078dc:	00000106 	br	8078e4 <read+0x4c>
  8078e0:	e03fff15 	stw	zero,-4(fp)
  8078e4:	e0bfff17 	ldw	r2,-4(fp)
  8078e8:	e0bffa15 	stw	r2,-24(fp)
  
  if (fd)
  8078ec:	e0bffa17 	ldw	r2,-24(fp)
  8078f0:	1005003a 	cmpeq	r2,r2,zero
  8078f4:	1000241e 	bne	r2,zero,807988 <read+0xf0>
     * If the file has not been opened with read access, or if the driver does
     * not provide an implementation of read(), generate an error. Otherwise
     * call the drivers read() function to process the request.
     */

    if (((fd->fd_flags & O_ACCMODE) != O_WRONLY) && 
  8078f8:	e0bffa17 	ldw	r2,-24(fp)
  8078fc:	10800217 	ldw	r2,8(r2)
  807900:	108000cc 	andi	r2,r2,3
  807904:	10800060 	cmpeqi	r2,r2,1
  807908:	10001a1e 	bne	r2,zero,807974 <read+0xdc>
  80790c:	e0bffa17 	ldw	r2,-24(fp)
  807910:	10800017 	ldw	r2,0(r2)
  807914:	10800517 	ldw	r2,20(r2)
  807918:	1005003a 	cmpeq	r2,r2,zero
  80791c:	1000151e 	bne	r2,zero,807974 <read+0xdc>
        (fd->dev->read))
      {
        if ((rval = fd->dev->read(fd, ptr, len)) < 0)
  807920:	e0bffa17 	ldw	r2,-24(fp)
  807924:	10800017 	ldw	r2,0(r2)
  807928:	10800517 	ldw	r2,20(r2)
  80792c:	e17ffc17 	ldw	r5,-16(fp)
  807930:	e1bffd17 	ldw	r6,-12(fp)
  807934:	e13ffa17 	ldw	r4,-24(fp)
  807938:	103ee83a 	callr	r2
  80793c:	e0bff915 	stw	r2,-28(fp)
  807940:	e0bff917 	ldw	r2,-28(fp)
  807944:	1004403a 	cmpge	r2,r2,zero
  807948:	1000071e 	bne	r2,zero,807968 <read+0xd0>
        {
          ALT_ERRNO = -rval;
  80794c:	08079b80 	call	8079b8 <alt_get_errno>
  807950:	e0fff917 	ldw	r3,-28(fp)
  807954:	00c7c83a 	sub	r3,zero,r3
  807958:	10c00015 	stw	r3,0(r2)
          return -1;
  80795c:	00bfffc4 	movi	r2,-1
  807960:	e0bffe15 	stw	r2,-8(fp)
  807964:	00000e06 	br	8079a0 <read+0x108>
        }
        return rval;
  807968:	e0bff917 	ldw	r2,-28(fp)
  80796c:	e0bffe15 	stw	r2,-8(fp)
  807970:	00000b06 	br	8079a0 <read+0x108>
      }
      else
      {
        ALT_ERRNO = EACCES;
  807974:	08079b80 	call	8079b8 <alt_get_errno>
  807978:	1007883a 	mov	r3,r2
  80797c:	00800344 	movi	r2,13
  807980:	18800015 	stw	r2,0(r3)
  807984:	00000406 	br	807998 <read+0x100>
      }
    }
  else
  {
    ALT_ERRNO = EBADFD;
  807988:	08079b80 	call	8079b8 <alt_get_errno>
  80798c:	1007883a 	mov	r3,r2
  807990:	00801444 	movi	r2,81
  807994:	18800015 	stw	r2,0(r3)
  }
  return -1;
  807998:	00bfffc4 	movi	r2,-1
  80799c:	e0bffe15 	stw	r2,-8(fp)
  8079a0:	e0bffe17 	ldw	r2,-8(fp)
}
  8079a4:	e037883a 	mov	sp,fp
  8079a8:	dfc00117 	ldw	ra,4(sp)
  8079ac:	df000017 	ldw	fp,0(sp)
  8079b0:	dec00204 	addi	sp,sp,8
  8079b4:	f800283a 	ret

008079b8 <alt_get_errno>:
#undef errno

extern int errno;

static ALT_INLINE int* alt_get_errno(void)
{
  8079b8:	defffd04 	addi	sp,sp,-12
  8079bc:	dfc00215 	stw	ra,8(sp)
  8079c0:	df000115 	stw	fp,4(sp)
  8079c4:	df000104 	addi	fp,sp,4
  return ((alt_errno) ? alt_errno() : &errno);
  8079c8:	00802074 	movhi	r2,129
  8079cc:	10b52904 	addi	r2,r2,-11100
  8079d0:	10800017 	ldw	r2,0(r2)
  8079d4:	1005003a 	cmpeq	r2,r2,zero
  8079d8:	1000061e 	bne	r2,zero,8079f4 <alt_get_errno+0x3c>
  8079dc:	00802074 	movhi	r2,129
  8079e0:	10b52904 	addi	r2,r2,-11100
  8079e4:	10800017 	ldw	r2,0(r2)
  8079e8:	103ee83a 	callr	r2
  8079ec:	e0bfff15 	stw	r2,-4(fp)
  8079f0:	00000306 	br	807a00 <alt_get_errno+0x48>
  8079f4:	00802074 	movhi	r2,129
  8079f8:	10bc9d04 	addi	r2,r2,-3468
  8079fc:	e0bfff15 	stw	r2,-4(fp)
  807a00:	e0bfff17 	ldw	r2,-4(fp)
}
  807a04:	e037883a 	mov	sp,fp
  807a08:	dfc00117 	ldw	ra,4(sp)
  807a0c:	df000017 	ldw	fp,0(sp)
  807a10:	dec00204 	addi	sp,sp,8
  807a14:	f800283a 	ret

00807a18 <alt_release_fd>:
 * File descriptors correcponding to standard in, standard out and standard 
 * error cannont be released backed to the pool. They are always reserved.
 */

void alt_release_fd (int fd)
{
  807a18:	defffe04 	addi	sp,sp,-8
  807a1c:	df000115 	stw	fp,4(sp)
  807a20:	df000104 	addi	fp,sp,4
  807a24:	e13fff15 	stw	r4,-4(fp)
  if (fd > 2)
  807a28:	e0bfff17 	ldw	r2,-4(fp)
  807a2c:	108000d0 	cmplti	r2,r2,3
  807a30:	10000d1e 	bne	r2,zero,807a68 <alt_release_fd+0x50>
  {
    alt_fd_list[fd].fd_flags = 0;
  807a34:	e0bfff17 	ldw	r2,-4(fp)
  807a38:	00c02074 	movhi	r3,129
  807a3c:	18f02e04 	addi	r3,r3,-16200
  807a40:	10800324 	muli	r2,r2,12
  807a44:	10c5883a 	add	r2,r2,r3
  807a48:	10800204 	addi	r2,r2,8
  807a4c:	10000015 	stw	zero,0(r2)
    alt_fd_list[fd].dev      = 0;
  807a50:	e0bfff17 	ldw	r2,-4(fp)
  807a54:	00c02074 	movhi	r3,129
  807a58:	18f02e04 	addi	r3,r3,-16200
  807a5c:	10800324 	muli	r2,r2,12
  807a60:	10c5883a 	add	r2,r2,r3
  807a64:	10000015 	stw	zero,0(r2)
  }
}
  807a68:	e037883a 	mov	sp,fp
  807a6c:	df000017 	ldw	fp,0(sp)
  807a70:	dec00104 	addi	sp,sp,4
  807a74:	f800283a 	ret

00807a78 <sbrk>:
#endif
 
caddr_t ALT_SBRK (int incr) __attribute__ ((no_instrument_function ));

caddr_t ALT_SBRK (int incr)
{ 
  807a78:	defff804 	addi	sp,sp,-32
  807a7c:	df000715 	stw	fp,28(sp)
  807a80:	df000704 	addi	fp,sp,28
  807a84:	e13ffe15 	stw	r4,-8(fp)
static ALT_INLINE alt_irq_context ALT_ALWAYS_INLINE 
       alt_irq_disable_all (void)
{
  alt_irq_context context;

  NIOS2_READ_STATUS (context);
  807a88:	0005303a 	rdctl	r2,status
  807a8c:	e0bffb15 	stw	r2,-20(fp)

  NIOS2_WRITE_STATUS (context & ~NIOS2_STATUS_PIE_MSK);
  807a90:	e0fffb17 	ldw	r3,-20(fp)
  807a94:	00bfff84 	movi	r2,-2
  807a98:	1884703a 	and	r2,r3,r2
  807a9c:	1001703a 	wrctl	status,r2
  
  return context;
  807aa0:	e0bffb17 	ldw	r2,-20(fp)
  alt_irq_context context;
  char *prev_heap_end; 

  context = alt_irq_disable_all();
  807aa4:	e0bffd15 	stw	r2,-12(fp)

  /* Always return data aligned on a word boundary */
  heap_end = (char *)(((unsigned int)heap_end + 3) & ~3);
  807aa8:	d0a00c17 	ldw	r2,-32720(gp)
  807aac:	10c000c4 	addi	r3,r2,3
  807ab0:	00bfff04 	movi	r2,-4
  807ab4:	1884703a 	and	r2,r3,r2
  807ab8:	d0a00c15 	stw	r2,-32720(gp)
  if (((heap_end + incr) - __alt_heap_start) > ALT_MAX_HEAP_BYTES) {
    alt_irq_enable_all(context);
    return (caddr_t)-1;
  }
#else
  if ((heap_end + incr) > __alt_heap_limit) {
  807abc:	d0e00c17 	ldw	r3,-32720(gp)
  807ac0:	e0bffe17 	ldw	r2,-8(fp)
  807ac4:	1887883a 	add	r3,r3,r2
  807ac8:	00804034 	movhi	r2,256
  807acc:	10800004 	addi	r2,r2,0
  807ad0:	10c0072e 	bgeu	r2,r3,807af0 <sbrk+0x78>
  807ad4:	e0bffd17 	ldw	r2,-12(fp)
  807ad8:	e0bffa15 	stw	r2,-24(fp)
  status &= ~NIOS2_STATUS_PIE_MSK;
  status |= (context & NIOS2_STATUS_PIE_MSK);
  
  NIOS2_WRITE_STATUS (status);
#else
  NIOS2_WRITE_STATUS (context);
  807adc:	e0bffa17 	ldw	r2,-24(fp)
  807ae0:	1001703a 	wrctl	status,r2
    alt_irq_enable_all(context);
    return (caddr_t)-1;
  807ae4:	00bfffc4 	movi	r2,-1
  807ae8:	e0bfff15 	stw	r2,-4(fp)
  807aec:	00000c06 	br	807b20 <sbrk+0xa8>
  }
#endif

  prev_heap_end = heap_end; 
  807af0:	d0a00c17 	ldw	r2,-32720(gp)
  807af4:	e0bffc15 	stw	r2,-16(fp)
  heap_end += incr; 
  807af8:	d0e00c17 	ldw	r3,-32720(gp)
  807afc:	e0bffe17 	ldw	r2,-8(fp)
  807b00:	1885883a 	add	r2,r3,r2
  807b04:	d0a00c15 	stw	r2,-32720(gp)
  807b08:	e0bffd17 	ldw	r2,-12(fp)
  807b0c:	e0bff915 	stw	r2,-28(fp)
  807b10:	e0bff917 	ldw	r2,-28(fp)
  807b14:	1001703a 	wrctl	status,r2

#endif

  alt_irq_enable_all(context);

  return (caddr_t) prev_heap_end; 
  807b18:	e0bffc17 	ldw	r2,-16(fp)
  807b1c:	e0bfff15 	stw	r2,-4(fp)
  807b20:	e0bfff17 	ldw	r2,-4(fp)
} 
  807b24:	e037883a 	mov	sp,fp
  807b28:	df000017 	ldw	fp,0(sp)
  807b2c:	dec00104 	addi	sp,sp,4
  807b30:	f800283a 	ret

00807b34 <alt_alarm_stop>:
 * alarms. Alternatively an alarm can unregister itself by returning zero when 
 * the alarm executes.
 */

void alt_alarm_stop (alt_alarm* alarm)
{
  807b34:	defffa04 	addi	sp,sp,-24
  807b38:	df000515 	stw	fp,20(sp)
  807b3c:	df000504 	addi	fp,sp,20
  807b40:	e13fff15 	stw	r4,-4(fp)
static ALT_INLINE alt_irq_context ALT_ALWAYS_INLINE 
       alt_irq_disable_all (void)
{
  alt_irq_context context;

  NIOS2_READ_STATUS (context);
  807b44:	0005303a 	rdctl	r2,status
  807b48:	e0bffd15 	stw	r2,-12(fp)

  NIOS2_WRITE_STATUS (context & ~NIOS2_STATUS_PIE_MSK);
  807b4c:	e0fffd17 	ldw	r3,-12(fp)
  807b50:	00bfff84 	movi	r2,-2
  807b54:	1884703a 	and	r2,r3,r2
  807b58:	1001703a 	wrctl	status,r2
  
  return context;
  807b5c:	e0bffd17 	ldw	r2,-12(fp)
  alt_irq_context irq_context;

  irq_context = alt_irq_disable_all();
  807b60:	e0bffe15 	stw	r2,-8(fp)
  alt_llist_remove (&alarm->llist);
  807b64:	e0bfff17 	ldw	r2,-4(fp)
  807b68:	e0bffc15 	stw	r2,-16(fp)
 * input argument is the element to remove.
 */
     
static ALT_INLINE void ALT_ALWAYS_INLINE alt_llist_remove(alt_llist* entry)
{
  entry->next->previous = entry->previous;
  807b6c:	e0bffc17 	ldw	r2,-16(fp)
  807b70:	10c00017 	ldw	r3,0(r2)
  807b74:	e0bffc17 	ldw	r2,-16(fp)
  807b78:	10800117 	ldw	r2,4(r2)
  807b7c:	18800115 	stw	r2,4(r3)
  entry->previous->next = entry->next;
  807b80:	e0bffc17 	ldw	r2,-16(fp)
  807b84:	10c00117 	ldw	r3,4(r2)
  807b88:	e0bffc17 	ldw	r2,-16(fp)
  807b8c:	10800017 	ldw	r2,0(r2)
  807b90:	18800015 	stw	r2,0(r3)
  /* 
   * Set the entry to point to itself, so that any further calls to
   * alt_llist_remove() are harmless.
   */

  entry->previous = entry;
  807b94:	e0fffc17 	ldw	r3,-16(fp)
  807b98:	e0bffc17 	ldw	r2,-16(fp)
  807b9c:	18800115 	stw	r2,4(r3)
  entry->next     = entry;
  807ba0:	e0fffc17 	ldw	r3,-16(fp)
  807ba4:	e0bffc17 	ldw	r2,-16(fp)
  807ba8:	18800015 	stw	r2,0(r3)
  807bac:	e0bffe17 	ldw	r2,-8(fp)
  807bb0:	e0bffb15 	stw	r2,-20(fp)
  status &= ~NIOS2_STATUS_PIE_MSK;
  status |= (context & NIOS2_STATUS_PIE_MSK);
  
  NIOS2_WRITE_STATUS (status);
#else
  NIOS2_WRITE_STATUS (context);
  807bb4:	e0bffb17 	ldw	r2,-20(fp)
  807bb8:	1001703a 	wrctl	status,r2
  alt_irq_enable_all (irq_context);
}
  807bbc:	e037883a 	mov	sp,fp
  807bc0:	df000017 	ldw	fp,0(sp)
  807bc4:	dec00104 	addi	sp,sp,4
  807bc8:	f800283a 	ret

00807bcc <alt_tick>:
 * 
 * alt_tick() is expected to run at interrupt level.
 */

void alt_tick (void)
{
  807bcc:	defffb04 	addi	sp,sp,-20
  807bd0:	dfc00415 	stw	ra,16(sp)
  807bd4:	df000315 	stw	fp,12(sp)
  807bd8:	df000304 	addi	fp,sp,12
  alt_alarm* next;
  alt_alarm* alarm = (alt_alarm*) alt_alarm_list.next;
  807bdc:	d0a00d17 	ldw	r2,-32716(gp)
  807be0:	e0bffe15 	stw	r2,-8(fp)

  alt_u32    next_callback;

  /* update the tick counter */

  _alt_nticks++;
  807be4:	d0a78417 	ldw	r2,-25072(gp)
  807be8:	10800044 	addi	r2,r2,1
  807bec:	d0a78415 	stw	r2,-25072(gp)

  /* process the registered callbacks */

  while (alarm != (alt_alarm*) &alt_alarm_list)
  807bf0:	00003106 	br	807cb8 <alt_tick+0xec>
  {
    next = (alt_alarm*) alarm->llist.next;
  807bf4:	e0bffe17 	ldw	r2,-8(fp)
  807bf8:	10800017 	ldw	r2,0(r2)
  807bfc:	e0bfff15 	stw	r2,-4(fp)
    /* 
     * Upon the tick-counter rolling over it is safe to clear the 
     * roll-over flag; once the flag is cleared this (or subsequnt)
     * tick events are enabled to generate an alarm event. 
     */
    if ((alarm->rollover) && (_alt_nticks == 0))
  807c00:	e0bffe17 	ldw	r2,-8(fp)
  807c04:	10800403 	ldbu	r2,16(r2)
  807c08:	10803fcc 	andi	r2,r2,255
  807c0c:	1005003a 	cmpeq	r2,r2,zero
  807c10:	1000051e 	bne	r2,zero,807c28 <alt_tick+0x5c>
  807c14:	d0a78417 	ldw	r2,-25072(gp)
  807c18:	1004c03a 	cmpne	r2,r2,zero
  807c1c:	1000021e 	bne	r2,zero,807c28 <alt_tick+0x5c>
    {
      alarm->rollover = 0;
  807c20:	e0bffe17 	ldw	r2,-8(fp)
  807c24:	10000405 	stb	zero,16(r2)
    }
    
    /* if the alarm period has expired, make the callback */    
    if ((alarm->time <= _alt_nticks) && (alarm->rollover == 0))
  807c28:	e0bffe17 	ldw	r2,-8(fp)
  807c2c:	10c00217 	ldw	r3,8(r2)
  807c30:	d0a78417 	ldw	r2,-25072(gp)
  807c34:	10c01e36 	bltu	r2,r3,807cb0 <alt_tick+0xe4>
  807c38:	e0bffe17 	ldw	r2,-8(fp)
  807c3c:	10800403 	ldbu	r2,16(r2)
  807c40:	10803fcc 	andi	r2,r2,255
  807c44:	1004c03a 	cmpne	r2,r2,zero
  807c48:	1000191e 	bne	r2,zero,807cb0 <alt_tick+0xe4>
    {
      next_callback = alarm->callback (alarm->context);
  807c4c:	e0bffe17 	ldw	r2,-8(fp)
  807c50:	10c00317 	ldw	r3,12(r2)
  807c54:	e0bffe17 	ldw	r2,-8(fp)
  807c58:	11000517 	ldw	r4,20(r2)
  807c5c:	183ee83a 	callr	r3
  807c60:	e0bffd15 	stw	r2,-12(fp)

      /* deactivate the alarm if the return value is zero */

      if (next_callback == 0)
  807c64:	e0bffd17 	ldw	r2,-12(fp)
  807c68:	1004c03a 	cmpne	r2,r2,zero
  807c6c:	1000031e 	bne	r2,zero,807c7c <alt_tick+0xb0>
      {
        alt_alarm_stop (alarm);
  807c70:	e13ffe17 	ldw	r4,-8(fp)
  807c74:	0807b340 	call	807b34 <alt_alarm_stop>
  807c78:	00000d06 	br	807cb0 <alt_tick+0xe4>
      }
      else
      {
        alarm->time += next_callback;
  807c7c:	e0bffe17 	ldw	r2,-8(fp)
  807c80:	10c00217 	ldw	r3,8(r2)
  807c84:	e0bffd17 	ldw	r2,-12(fp)
  807c88:	1887883a 	add	r3,r3,r2
  807c8c:	e0bffe17 	ldw	r2,-8(fp)
  807c90:	10c00215 	stw	r3,8(r2)
        /* 
         * If the desired alarm time causes a roll-over, set the rollover
         * flag. This will prevent the subsequent tick event from causing
         * an alarm too early.
         */
        if(alarm->time < _alt_nticks)
  807c94:	e0bffe17 	ldw	r2,-8(fp)
  807c98:	10c00217 	ldw	r3,8(r2)
  807c9c:	d0a78417 	ldw	r2,-25072(gp)
  807ca0:	1880032e 	bgeu	r3,r2,807cb0 <alt_tick+0xe4>
        {
          alarm->rollover = 1;
  807ca4:	e0fffe17 	ldw	r3,-8(fp)
  807ca8:	00800044 	movi	r2,1
  807cac:	18800405 	stb	r2,16(r3)
        }
      }
    }
    alarm = next;
  807cb0:	e0bfff17 	ldw	r2,-4(fp)
  807cb4:	e0bffe15 	stw	r2,-8(fp)

  _alt_nticks++;

  /* process the registered callbacks */

  while (alarm != (alt_alarm*) &alt_alarm_list)
  807cb8:	d0e00d04 	addi	r3,gp,-32716
  807cbc:	e0bffe17 	ldw	r2,-8(fp)
  807cc0:	10ffcc1e 	bne	r2,r3,807bf4 <alt_tick+0x28>
  /* 
   * Update the operating system specific timer facilities.
   */

  ALT_OS_TIME_TICK();
}
  807cc4:	e037883a 	mov	sp,fp
  807cc8:	dfc00117 	ldw	ra,4(sp)
  807ccc:	df000017 	ldw	fp,0(sp)
  807cd0:	dec00204 	addi	sp,sp,8
  807cd4:	f800283a 	ret

00807cd8 <write>:
}

#else /* !ALT_USE_DIRECT_DRIVERS */

int ALT_WRITE (int file, const void *ptr, size_t len)
{
  807cd8:	defff704 	addi	sp,sp,-36
  807cdc:	dfc00815 	stw	ra,32(sp)
  807ce0:	df000715 	stw	fp,28(sp)
  807ce4:	df000704 	addi	fp,sp,28
  807ce8:	e13ffb15 	stw	r4,-20(fp)
  807cec:	e17ffc15 	stw	r5,-16(fp)
  807cf0:	e1bffd15 	stw	r6,-12(fp)
   * A common error case is that when the file descriptor was created, the call
   * to open() failed resulting in a negative file descriptor. This is trapped
   * below so that we don't try and process an invalid file descriptor.
   */

  fd = (file < 0) ? NULL : &alt_fd_list[file];
  807cf4:	e0bffb17 	ldw	r2,-20(fp)
  807cf8:	1004803a 	cmplt	r2,r2,zero
  807cfc:	1000081e 	bne	r2,zero,807d20 <write+0x48>
  807d00:	e0bffb17 	ldw	r2,-20(fp)
  807d04:	10800324 	muli	r2,r2,12
  807d08:	1007883a 	mov	r3,r2
  807d0c:	00802074 	movhi	r2,129
  807d10:	10b02e04 	addi	r2,r2,-16200
  807d14:	1887883a 	add	r3,r3,r2
  807d18:	e0ffff15 	stw	r3,-4(fp)
  807d1c:	00000106 	br	807d24 <write+0x4c>
  807d20:	e03fff15 	stw	zero,-4(fp)
  807d24:	e0bfff17 	ldw	r2,-4(fp)
  807d28:	e0bffa15 	stw	r2,-24(fp)
  
  if (fd)
  807d2c:	e0bffa17 	ldw	r2,-24(fp)
  807d30:	1005003a 	cmpeq	r2,r2,zero
  807d34:	1000241e 	bne	r2,zero,807dc8 <write+0xf0>
     * If the file has not been opened with write access, or if the driver does
     * not provide an implementation of write(), generate an error. Otherwise
     * call the drivers write() function to process the request.
     */

    if (((fd->fd_flags & O_ACCMODE) != O_RDONLY) && fd->dev->write)
  807d38:	e0bffa17 	ldw	r2,-24(fp)
  807d3c:	10800217 	ldw	r2,8(r2)
  807d40:	108000cc 	andi	r2,r2,3
  807d44:	1005003a 	cmpeq	r2,r2,zero
  807d48:	10001a1e 	bne	r2,zero,807db4 <write+0xdc>
  807d4c:	e0bffa17 	ldw	r2,-24(fp)
  807d50:	10800017 	ldw	r2,0(r2)
  807d54:	10800617 	ldw	r2,24(r2)
  807d58:	1005003a 	cmpeq	r2,r2,zero
  807d5c:	1000151e 	bne	r2,zero,807db4 <write+0xdc>
    {
      
      /* ALT_LOG - see altera_hal/HAL/inc/sys/alt_log_printf.h */
      ALT_LOG_WRITE_FUNCTION(ptr,len);

      if ((rval = fd->dev->write(fd, ptr, len)) < 0)
  807d60:	e0bffa17 	ldw	r2,-24(fp)
  807d64:	10800017 	ldw	r2,0(r2)
  807d68:	10800617 	ldw	r2,24(r2)
  807d6c:	e17ffc17 	ldw	r5,-16(fp)
  807d70:	e1bffd17 	ldw	r6,-12(fp)
  807d74:	e13ffa17 	ldw	r4,-24(fp)
  807d78:	103ee83a 	callr	r2
  807d7c:	e0bff915 	stw	r2,-28(fp)
  807d80:	e0bff917 	ldw	r2,-28(fp)
  807d84:	1004403a 	cmpge	r2,r2,zero
  807d88:	1000071e 	bne	r2,zero,807da8 <write+0xd0>
      {
        ALT_ERRNO = -rval;
  807d8c:	0807df80 	call	807df8 <alt_get_errno>
  807d90:	e0fff917 	ldw	r3,-28(fp)
  807d94:	00c7c83a 	sub	r3,zero,r3
  807d98:	10c00015 	stw	r3,0(r2)
        return -1;
  807d9c:	00bfffc4 	movi	r2,-1
  807da0:	e0bffe15 	stw	r2,-8(fp)
  807da4:	00000e06 	br	807de0 <write+0x108>
      }
      return rval;
  807da8:	e0bff917 	ldw	r2,-28(fp)
  807dac:	e0bffe15 	stw	r2,-8(fp)
  807db0:	00000b06 	br	807de0 <write+0x108>
    }
    else
    {
      ALT_ERRNO = EACCES;
  807db4:	0807df80 	call	807df8 <alt_get_errno>
  807db8:	1007883a 	mov	r3,r2
  807dbc:	00800344 	movi	r2,13
  807dc0:	18800015 	stw	r2,0(r3)
  807dc4:	00000406 	br	807dd8 <write+0x100>
    }
  }
  else  
  {
    ALT_ERRNO = EBADFD;
  807dc8:	0807df80 	call	807df8 <alt_get_errno>
  807dcc:	1007883a 	mov	r3,r2
  807dd0:	00801444 	movi	r2,81
  807dd4:	18800015 	stw	r2,0(r3)
  }
  return -1;
  807dd8:	00bfffc4 	movi	r2,-1
  807ddc:	e0bffe15 	stw	r2,-8(fp)
  807de0:	e0bffe17 	ldw	r2,-8(fp)
}
  807de4:	e037883a 	mov	sp,fp
  807de8:	dfc00117 	ldw	ra,4(sp)
  807dec:	df000017 	ldw	fp,0(sp)
  807df0:	dec00204 	addi	sp,sp,8
  807df4:	f800283a 	ret

00807df8 <alt_get_errno>:
#undef errno

extern int errno;

static ALT_INLINE int* alt_get_errno(void)
{
  807df8:	defffd04 	addi	sp,sp,-12
  807dfc:	dfc00215 	stw	ra,8(sp)
  807e00:	df000115 	stw	fp,4(sp)
  807e04:	df000104 	addi	fp,sp,4
  return ((alt_errno) ? alt_errno() : &errno);
  807e08:	00802074 	movhi	r2,129
  807e0c:	10b52904 	addi	r2,r2,-11100
  807e10:	10800017 	ldw	r2,0(r2)
  807e14:	1005003a 	cmpeq	r2,r2,zero
  807e18:	1000061e 	bne	r2,zero,807e34 <alt_get_errno+0x3c>
  807e1c:	00802074 	movhi	r2,129
  807e20:	10b52904 	addi	r2,r2,-11100
  807e24:	10800017 	ldw	r2,0(r2)
  807e28:	103ee83a 	callr	r2
  807e2c:	e0bfff15 	stw	r2,-4(fp)
  807e30:	00000306 	br	807e40 <alt_get_errno+0x48>
  807e34:	00802074 	movhi	r2,129
  807e38:	10bc9d04 	addi	r2,r2,-3468
  807e3c:	e0bfff15 	stw	r2,-4(fp)
  807e40:	e0bfff17 	ldw	r2,-4(fp)
}
  807e44:	e037883a 	mov	sp,fp
  807e48:	dfc00117 	ldw	ra,4(sp)
  807e4c:	df000017 	ldw	fp,0(sp)
  807e50:	dec00204 	addi	sp,sp,8
  807e54:	f800283a 	ret

00807e58 <alt_irq_init>:
 * The "base" parameter is ignored and only
 * present for backwards-compatibility.
 */

void alt_irq_init ( const void* base )
{
  807e58:	defffd04 	addi	sp,sp,-12
  807e5c:	dfc00215 	stw	ra,8(sp)
  807e60:	df000115 	stw	fp,4(sp)
  807e64:	df000104 	addi	fp,sp,4
  807e68:	e13fff15 	stw	r4,-4(fp)
    ALTERA_NIOS2_QSYS_IRQ_INIT ( CPU, cpu);
  807e6c:	080ace80 	call	80ace8 <altera_nios2_qsys_irq_init>
 * alt_irq_cpu_enable_interrupts() enables the CPU to start taking interrupts.
 */
static ALT_INLINE void ALT_ALWAYS_INLINE 
       alt_irq_cpu_enable_interrupts ()
{
    NIOS2_WRITE_STATUS(NIOS2_STATUS_PIE_MSK
  807e70:	00800044 	movi	r2,1
  807e74:	1001703a 	wrctl	status,r2
    alt_irq_cpu_enable_interrupts();
}
  807e78:	e037883a 	mov	sp,fp
  807e7c:	dfc00117 	ldw	ra,4(sp)
  807e80:	df000017 	ldw	fp,0(sp)
  807e84:	dec00204 	addi	sp,sp,8
  807e88:	f800283a 	ret

00807e8c <alt_sys_init>:
 * Initialize the non-interrupt controller devices.
 * Called after alt_irq_init().
 */

void alt_sys_init( void )
{
  807e8c:	defffe04 	addi	sp,sp,-8
  807e90:	dfc00115 	stw	ra,4(sp)
  807e94:	df000015 	stw	fp,0(sp)
  807e98:	d839883a 	mov	fp,sp
    ALTERA_AVALON_TIMER_INIT ( TIMER_0, timer_0);
  807e9c:	01004074 	movhi	r4,257
  807ea0:	21040804 	addi	r4,r4,4128
  807ea4:	000b883a 	mov	r5,zero
  807ea8:	01800084 	movi	r6,2
  807eac:	01c0fa04 	movi	r7,1000
  807eb0:	08099b40 	call	8099b4 <alt_avalon_timer_sc_init>
    ALTERA_AVALON_TIMER_INIT ( TIMER_1, timer_1);
    ALTERA_AVALON_JTAG_UART_INIT ( JTAG_UART, jtag_uart);
  807eb4:	01002074 	movhi	r4,129
  807eb8:	21309804 	addi	r4,r4,-15776
  807ebc:	000b883a 	mov	r5,zero
  807ec0:	01800044 	movi	r6,1
  807ec4:	08080a00 	call	8080a0 <altera_avalon_jtag_uart_init>
  807ec8:	01002074 	movhi	r4,129
  807ecc:	21308e04 	addi	r4,r4,-15816
  807ed0:	0807f200 	call	807f20 <alt_dev_reg>
    ALTERA_AVALON_LCD_16207_INIT ( LCD, lcd);
  807ed4:	01002074 	movhi	r4,129
  807ed8:	2134b004 	addi	r4,r4,-11584
  807edc:	08097b00 	call	8097b0 <altera_avalon_lcd_16207_init>
  807ee0:	01002074 	movhi	r4,129
  807ee4:	2134a604 	addi	r4,r4,-11624
  807ee8:	0807f200 	call	807f20 <alt_dev_reg>
    ALTERA_AVALON_SYSID_QSYS_INIT ( SYSID, sysid);
    ALTERA_AVALON_UART_INIT ( UART, uart);
  807eec:	01002074 	movhi	r4,129
  807ef0:	2134f804 	addi	r4,r4,-11296
  807ef4:	000b883a 	mov	r5,zero
  807ef8:	000d883a 	mov	r6,zero
  807efc:	0809b3c0 	call	809b3c <altera_avalon_uart_init>
  807f00:	01002074 	movhi	r4,129
  807f04:	2134ee04 	addi	r4,r4,-11336
  807f08:	0807f200 	call	807f20 <alt_dev_reg>
}
  807f0c:	e037883a 	mov	sp,fp
  807f10:	dfc00117 	ldw	ra,4(sp)
  807f14:	df000017 	ldw	fp,0(sp)
  807f18:	dec00204 	addi	sp,sp,8
  807f1c:	f800283a 	ret

00807f20 <alt_dev_reg>:
 */

extern int alt_fs_reg  (alt_dev* dev); 

static ALT_INLINE int alt_dev_reg (alt_dev* dev)
{
  807f20:	defffd04 	addi	sp,sp,-12
  807f24:	dfc00215 	stw	ra,8(sp)
  807f28:	df000115 	stw	fp,4(sp)
  807f2c:	df000104 	addi	fp,sp,4
  807f30:	e13fff15 	stw	r4,-4(fp)
  extern alt_llist alt_dev_list;

  return alt_dev_llist_insert ((alt_dev_llist*) dev, &alt_dev_list);
  807f34:	e13fff17 	ldw	r4,-4(fp)
  807f38:	01402074 	movhi	r5,129
  807f3c:	29752604 	addi	r5,r5,-11112
  807f40:	080a4380 	call	80a438 <alt_dev_llist_insert>
}
  807f44:	e037883a 	mov	sp,fp
  807f48:	dfc00117 	ldw	ra,4(sp)
  807f4c:	df000017 	ldw	fp,0(sp)
  807f50:	dec00204 	addi	sp,sp,8
  807f54:	f800283a 	ret

00807f58 <altera_avalon_jtag_uart_read_fd>:
 *
 */

int 
altera_avalon_jtag_uart_read_fd(alt_fd* fd, char* buffer, int space)
{
  807f58:	defffa04 	addi	sp,sp,-24
  807f5c:	dfc00515 	stw	ra,20(sp)
  807f60:	df000415 	stw	fp,16(sp)
  807f64:	df000404 	addi	fp,sp,16
  807f68:	e13ffd15 	stw	r4,-12(fp)
  807f6c:	e17ffe15 	stw	r5,-8(fp)
  807f70:	e1bfff15 	stw	r6,-4(fp)
    altera_avalon_jtag_uart_dev* dev = (altera_avalon_jtag_uart_dev*) fd->dev; 
  807f74:	e0bffd17 	ldw	r2,-12(fp)
  807f78:	10800017 	ldw	r2,0(r2)
  807f7c:	e0bffc15 	stw	r2,-16(fp)

    return altera_avalon_jtag_uart_read(&dev->state, buffer, space,
  807f80:	e0bffc17 	ldw	r2,-16(fp)
  807f84:	11000a04 	addi	r4,r2,40
  807f88:	e0bffd17 	ldw	r2,-12(fp)
  807f8c:	11c00217 	ldw	r7,8(r2)
  807f90:	e17ffe17 	ldw	r5,-8(fp)
  807f94:	e1bfff17 	ldw	r6,-4(fp)
  807f98:	08085a00 	call	8085a0 <altera_avalon_jtag_uart_read>
      fd->fd_flags);
}
  807f9c:	e037883a 	mov	sp,fp
  807fa0:	dfc00117 	ldw	ra,4(sp)
  807fa4:	df000017 	ldw	fp,0(sp)
  807fa8:	dec00204 	addi	sp,sp,8
  807fac:	f800283a 	ret

00807fb0 <altera_avalon_jtag_uart_write_fd>:

int 
altera_avalon_jtag_uart_write_fd(alt_fd* fd, const char* buffer, int space)
{
  807fb0:	defffa04 	addi	sp,sp,-24
  807fb4:	dfc00515 	stw	ra,20(sp)
  807fb8:	df000415 	stw	fp,16(sp)
  807fbc:	df000404 	addi	fp,sp,16
  807fc0:	e13ffd15 	stw	r4,-12(fp)
  807fc4:	e17ffe15 	stw	r5,-8(fp)
  807fc8:	e1bfff15 	stw	r6,-4(fp)
    altera_avalon_jtag_uart_dev* dev = (altera_avalon_jtag_uart_dev*) fd->dev; 
  807fcc:	e0bffd17 	ldw	r2,-12(fp)
  807fd0:	10800017 	ldw	r2,0(r2)
  807fd4:	e0bffc15 	stw	r2,-16(fp)

    return altera_avalon_jtag_uart_write(&dev->state, buffer, space,
  807fd8:	e0bffc17 	ldw	r2,-16(fp)
  807fdc:	11000a04 	addi	r4,r2,40
  807fe0:	e0bffd17 	ldw	r2,-12(fp)
  807fe4:	11c00217 	ldw	r7,8(r2)
  807fe8:	e17ffe17 	ldw	r5,-8(fp)
  807fec:	e1bfff17 	ldw	r6,-4(fp)
  807ff0:	08087c40 	call	8087c4 <altera_avalon_jtag_uart_write>
      fd->fd_flags);
}
  807ff4:	e037883a 	mov	sp,fp
  807ff8:	dfc00117 	ldw	ra,4(sp)
  807ffc:	df000017 	ldw	fp,0(sp)
  808000:	dec00204 	addi	sp,sp,8
  808004:	f800283a 	ret

00808008 <altera_avalon_jtag_uart_close_fd>:

#ifndef ALTERA_AVALON_JTAG_UART_SMALL

int 
altera_avalon_jtag_uart_close_fd(alt_fd* fd)
{
  808008:	defffc04 	addi	sp,sp,-16
  80800c:	dfc00315 	stw	ra,12(sp)
  808010:	df000215 	stw	fp,8(sp)
  808014:	df000204 	addi	fp,sp,8
  808018:	e13fff15 	stw	r4,-4(fp)
    altera_avalon_jtag_uart_dev* dev = (altera_avalon_jtag_uart_dev*) fd->dev; 
  80801c:	e0bfff17 	ldw	r2,-4(fp)
  808020:	10800017 	ldw	r2,0(r2)
  808024:	e0bffe15 	stw	r2,-8(fp)

    return altera_avalon_jtag_uart_close(&dev->state, fd->fd_flags);
  808028:	e0bffe17 	ldw	r2,-8(fp)
  80802c:	11000a04 	addi	r4,r2,40
  808030:	e0bfff17 	ldw	r2,-4(fp)
  808034:	11400217 	ldw	r5,8(r2)
  808038:	08084380 	call	808438 <altera_avalon_jtag_uart_close>
}
  80803c:	e037883a 	mov	sp,fp
  808040:	dfc00117 	ldw	ra,4(sp)
  808044:	df000017 	ldw	fp,0(sp)
  808048:	dec00204 	addi	sp,sp,8
  80804c:	f800283a 	ret

00808050 <altera_avalon_jtag_uart_ioctl_fd>:

int 
altera_avalon_jtag_uart_ioctl_fd(alt_fd* fd, int req, void* arg)
{
  808050:	defffa04 	addi	sp,sp,-24
  808054:	dfc00515 	stw	ra,20(sp)
  808058:	df000415 	stw	fp,16(sp)
  80805c:	df000404 	addi	fp,sp,16
  808060:	e13ffd15 	stw	r4,-12(fp)
  808064:	e17ffe15 	stw	r5,-8(fp)
  808068:	e1bfff15 	stw	r6,-4(fp)
    altera_avalon_jtag_uart_dev* dev = (altera_avalon_jtag_uart_dev*) fd->dev;
  80806c:	e0bffd17 	ldw	r2,-12(fp)
  808070:	10800017 	ldw	r2,0(r2)
  808074:	e0bffc15 	stw	r2,-16(fp)

    return altera_avalon_jtag_uart_ioctl(&dev->state, req, arg);
  808078:	e0bffc17 	ldw	r2,-16(fp)
  80807c:	11000a04 	addi	r4,r2,40
  808080:	e17ffe17 	ldw	r5,-8(fp)
  808084:	e1bfff17 	ldw	r6,-4(fp)
  808088:	08084ac0 	call	8084ac <altera_avalon_jtag_uart_ioctl>
}
  80808c:	e037883a 	mov	sp,fp
  808090:	dfc00117 	ldw	ra,4(sp)
  808094:	df000017 	ldw	fp,0(sp)
  808098:	dec00204 	addi	sp,sp,8
  80809c:	f800283a 	ret

008080a0 <altera_avalon_jtag_uart_init>:
 * Return 1 on sucessful IRQ register and 0 on failure.
 */

void altera_avalon_jtag_uart_init(altera_avalon_jtag_uart_state* sp, 
                                  int irq_controller_id, int irq)
{
  8080a0:	defffa04 	addi	sp,sp,-24
  8080a4:	dfc00515 	stw	ra,20(sp)
  8080a8:	df000415 	stw	fp,16(sp)
  8080ac:	df000404 	addi	fp,sp,16
  8080b0:	e13ffd15 	stw	r4,-12(fp)
  8080b4:	e17ffe15 	stw	r5,-8(fp)
  8080b8:	e1bfff15 	stw	r6,-4(fp)
  ALT_FLAG_CREATE(&sp->events, 0);
  ALT_SEM_CREATE(&sp->read_lock, 1);
  ALT_SEM_CREATE(&sp->write_lock, 1);

  /* enable read interrupts at the device */
  sp->irq_enable = ALTERA_AVALON_JTAG_UART_CONTROL_RE_MSK;
  8080bc:	e0fffd17 	ldw	r3,-12(fp)
  8080c0:	00800044 	movi	r2,1
  8080c4:	18800815 	stw	r2,32(r3)

  IOWR_ALTERA_AVALON_JTAG_UART_CONTROL(sp->base, sp->irq_enable); 
  8080c8:	e0bffd17 	ldw	r2,-12(fp)
  8080cc:	10800017 	ldw	r2,0(r2)
  8080d0:	11000104 	addi	r4,r2,4
  8080d4:	e0bffd17 	ldw	r2,-12(fp)
  8080d8:	10800817 	ldw	r2,32(r2)
  8080dc:	1007883a 	mov	r3,r2
  8080e0:	2005883a 	mov	r2,r4
  8080e4:	10c00035 	stwio	r3,0(r2)
  
  /* register the interrupt handler */
#ifdef ALT_ENHANCED_INTERRUPT_API_PRESENT
  alt_ic_isr_register(irq_controller_id, irq, altera_avalon_jtag_uart_irq, 
  8080e8:	e13ffe17 	ldw	r4,-8(fp)
  8080ec:	e17fff17 	ldw	r5,-4(fp)
  8080f0:	d8000015 	stw	zero,0(sp)
  8080f4:	01802074 	movhi	r6,129
  8080f8:	31a05804 	addi	r6,r6,-32416
  8080fc:	e1fffd17 	ldw	r7,-12(fp)
  808100:	080a8b00 	call	80a8b0 <alt_ic_isr_register>
#else
  alt_irq_register(irq, sp, altera_avalon_jtag_uart_irq);
#endif  

  /* Register an alarm to go off every second to check for presence of host */
  sp->host_inactive = 0;
  808104:	e0bffd17 	ldw	r2,-12(fp)
  808108:	10000915 	stw	zero,36(r2)

  if (alt_alarm_start(&sp->alarm, alt_ticks_per_second(), 
  80810c:	e0bffd17 	ldw	r2,-12(fp)
  808110:	11000204 	addi	r4,r2,8
 * Obtain the system clock rate in ticks/s. 
 */

static ALT_INLINE alt_u32 ALT_ALWAYS_INLINE alt_ticks_per_second (void)
{
  return _alt_tick_rate;
  808114:	00802074 	movhi	r2,129
  808118:	10bca204 	addi	r2,r2,-3448
  80811c:	10800017 	ldw	r2,0(r2)
  808120:	100b883a 	mov	r5,r2
  808124:	01802074 	movhi	r6,129
  808128:	31a0e204 	addi	r6,r6,-31864
  80812c:	e1fffd17 	ldw	r7,-12(fp)
  808130:	0806bfc0 	call	806bfc <alt_alarm_start>
  808134:	1004403a 	cmpge	r2,r2,zero
  808138:	1000041e 	bne	r2,zero,80814c <altera_avalon_jtag_uart_init+0xac>
    &altera_avalon_jtag_uart_timeout, sp) < 0)
  {
    /* If we can't set the alarm then record "don't know if host present" 
     * and behave as though the host is present.
     */
    sp->timeout = INT_MAX;
  80813c:	e0fffd17 	ldw	r3,-12(fp)
  808140:	00a00034 	movhi	r2,32768
  808144:	10bfffc4 	addi	r2,r2,-1
  808148:	18800115 	stw	r2,4(r3)
  }

  /* ALT_LOG - see altera_hal/HAL/inc/sys/alt_log_printf.h */ 
  ALT_LOG_JTAG_UART_ALARM_REGISTER(sp, sp->base);
}
  80814c:	e037883a 	mov	sp,fp
  808150:	dfc00117 	ldw	ra,4(sp)
  808154:	df000017 	ldw	fp,0(sp)
  808158:	dec00204 	addi	sp,sp,8
  80815c:	f800283a 	ret

00808160 <altera_avalon_jtag_uart_irq>:
#ifdef ALT_ENHANCED_INTERRUPT_API_PRESENT
static void altera_avalon_jtag_uart_irq(void* context)
#else
static void altera_avalon_jtag_uart_irq(void* context, alt_u32 id)
#endif
{
  808160:	defff804 	addi	sp,sp,-32
  808164:	df000715 	stw	fp,28(sp)
  808168:	df000704 	addi	fp,sp,28
  80816c:	e13fff15 	stw	r4,-4(fp)
  altera_avalon_jtag_uart_state* sp = (altera_avalon_jtag_uart_state*) context;
  808170:	e0bfff17 	ldw	r2,-4(fp)
  808174:	e0bffe15 	stw	r2,-8(fp)
  unsigned int base = sp->base;
  808178:	e0bffe17 	ldw	r2,-8(fp)
  80817c:	10800017 	ldw	r2,0(r2)
  808180:	e0bffd15 	stw	r2,-12(fp)
  808184:	00000006 	br	808188 <altera_avalon_jtag_uart_irq+0x28>
  /* ALT_LOG - see altera_hal/HAL/inc/sys/alt_log_printf.h */ 
  ALT_LOG_JTAG_UART_ISR_FUNCTION(base, sp);

  for ( ; ; )
  {
    unsigned int control = IORD_ALTERA_AVALON_JTAG_UART_CONTROL(base);
  808188:	e0bffd17 	ldw	r2,-12(fp)
  80818c:	10800104 	addi	r2,r2,4
  808190:	10800037 	ldwio	r2,0(r2)
  808194:	e0bffc15 	stw	r2,-16(fp)

    /* Return once nothing more to do */
    if ((control & (ALTERA_AVALON_JTAG_UART_CONTROL_RI_MSK | ALTERA_AVALON_JTAG_UART_CONTROL_WI_MSK)) == 0)
  808198:	e0bffc17 	ldw	r2,-16(fp)
  80819c:	1080c00c 	andi	r2,r2,768
  8081a0:	1005003a 	cmpeq	r2,r2,zero
  8081a4:	1000741e 	bne	r2,zero,808378 <altera_avalon_jtag_uart_irq+0x218>
      break;

    if (control & ALTERA_AVALON_JTAG_UART_CONTROL_RI_MSK)
  8081a8:	e0bffc17 	ldw	r2,-16(fp)
  8081ac:	1080400c 	andi	r2,r2,256
  8081b0:	1005003a 	cmpeq	r2,r2,zero
  8081b4:	1000351e 	bne	r2,zero,80828c <altera_avalon_jtag_uart_irq+0x12c>
    {
      /* process a read irq.  Start by assuming that there is data in the
       * receive FIFO (otherwise why would we have been interrupted?)
       */
      unsigned int data = 1 << ALTERA_AVALON_JTAG_UART_DATA_RAVAIL_OFST;
  8081b8:	00800074 	movhi	r2,1
  8081bc:	e0bffb15 	stw	r2,-20(fp)
      for ( ; ; )
      {
        /* Check whether there is space in the buffer.  If not then we must not
         * read any characters from the buffer as they will be lost.
         */
        unsigned int next = (sp->rx_in + 1) % ALTERA_AVALON_JTAG_UART_BUF_LEN;
  8081c0:	e0bffe17 	ldw	r2,-8(fp)
  8081c4:	10800a17 	ldw	r2,40(r2)
  8081c8:	10800044 	addi	r2,r2,1
  8081cc:	1081ffcc 	andi	r2,r2,2047
  8081d0:	e0bffa15 	stw	r2,-24(fp)
        if (next == sp->rx_out)
  8081d4:	e0bffe17 	ldw	r2,-8(fp)
  8081d8:	10c00b17 	ldw	r3,44(r2)
  8081dc:	e0bffa17 	ldw	r2,-24(fp)
  8081e0:	18801626 	beq	r3,r2,80823c <altera_avalon_jtag_uart_irq+0xdc>
          break;

        /* Try to remove a character from the FIFO and find out whether there
         * are any more characters remaining.
         */
        data = IORD_ALTERA_AVALON_JTAG_UART_DATA(base);
  8081e4:	e0bffd17 	ldw	r2,-12(fp)
  8081e8:	10800037 	ldwio	r2,0(r2)
  8081ec:	e0bffb15 	stw	r2,-20(fp)
        
        if ((data & ALTERA_AVALON_JTAG_UART_DATA_RVALID_MSK) == 0)
  8081f0:	e0bffb17 	ldw	r2,-20(fp)
  8081f4:	10a0000c 	andi	r2,r2,32768
  8081f8:	1005003a 	cmpeq	r2,r2,zero
  8081fc:	10000f1e 	bne	r2,zero,80823c <altera_avalon_jtag_uart_irq+0xdc>
          break;

        sp->rx_buf[sp->rx_in] = (data & ALTERA_AVALON_JTAG_UART_DATA_DATA_MSK) >> ALTERA_AVALON_JTAG_UART_DATA_DATA_OFST;
  808200:	e0bffe17 	ldw	r2,-8(fp)
  808204:	10c00a17 	ldw	r3,40(r2)
  808208:	e0bffb17 	ldw	r2,-20(fp)
  80820c:	1009883a 	mov	r4,r2
  808210:	e0bffe17 	ldw	r2,-8(fp)
  808214:	1885883a 	add	r2,r3,r2
  808218:	10800e04 	addi	r2,r2,56
  80821c:	11000005 	stb	r4,0(r2)
        sp->rx_in = (sp->rx_in + 1) % ALTERA_AVALON_JTAG_UART_BUF_LEN;
  808220:	e0bffe17 	ldw	r2,-8(fp)
  808224:	10800a17 	ldw	r2,40(r2)
  808228:	10800044 	addi	r2,r2,1
  80822c:	10c1ffcc 	andi	r3,r2,2047
  808230:	e0bffe17 	ldw	r2,-8(fp)
  808234:	10c00a15 	stw	r3,40(r2)

        /* Post an event to notify jtag_uart_read that a character has been read */
        ALT_FLAG_POST (sp->events, ALT_JTAG_UART_READ_RDY, OS_FLAG_SET);
      }
  808238:	003fe106 	br	8081c0 <altera_avalon_jtag_uart_irq+0x60>

      if (data & ALTERA_AVALON_JTAG_UART_DATA_RAVAIL_MSK)
  80823c:	e0bffb17 	ldw	r2,-20(fp)
  808240:	10bfffec 	andhi	r2,r2,65535
  808244:	1005003a 	cmpeq	r2,r2,zero
  808248:	1000101e 	bne	r2,zero,80828c <altera_avalon_jtag_uart_irq+0x12c>
      {
        /* If there is still data available here then the buffer is full 
         * so turn off receive interrupts until some space becomes available.
         */
        sp->irq_enable &= ~ALTERA_AVALON_JTAG_UART_CONTROL_RE_MSK;
  80824c:	e0bffe17 	ldw	r2,-8(fp)
  808250:	10c00817 	ldw	r3,32(r2)
  808254:	00bfff84 	movi	r2,-2
  808258:	1886703a 	and	r3,r3,r2
  80825c:	e0bffe17 	ldw	r2,-8(fp)
  808260:	10c00815 	stw	r3,32(r2)
        IOWR_ALTERA_AVALON_JTAG_UART_CONTROL(base, sp->irq_enable);
  808264:	e0bffd17 	ldw	r2,-12(fp)
  808268:	11000104 	addi	r4,r2,4
  80826c:	e0bffe17 	ldw	r2,-8(fp)
  808270:	10800817 	ldw	r2,32(r2)
  808274:	1007883a 	mov	r3,r2
  808278:	2005883a 	mov	r2,r4
  80827c:	10c00035 	stwio	r3,0(r2)
        
        /* Dummy read to ensure IRQ is cleared prior to ISR completion */
        IORD_ALTERA_AVALON_JTAG_UART_CONTROL(base);
  808280:	e0bffd17 	ldw	r2,-12(fp)
  808284:	10800104 	addi	r2,r2,4
  808288:	10800037 	ldwio	r2,0(r2)
      }
    }

    if (control & ALTERA_AVALON_JTAG_UART_CONTROL_WI_MSK)
  80828c:	e0bffc17 	ldw	r2,-16(fp)
  808290:	1080800c 	andi	r2,r2,512
  808294:	1005003a 	cmpeq	r2,r2,zero
  808298:	103fbb1e 	bne	r2,zero,808188 <altera_avalon_jtag_uart_irq+0x28>
    {
      /* process a write irq */
      unsigned int space = (control & ALTERA_AVALON_JTAG_UART_CONTROL_WSPACE_MSK) >> ALTERA_AVALON_JTAG_UART_CONTROL_WSPACE_OFST;
  80829c:	e0bffc17 	ldw	r2,-16(fp)
  8082a0:	10bfffec 	andhi	r2,r2,65535
  8082a4:	1004d43a 	srli	r2,r2,16
  8082a8:	e0bff915 	stw	r2,-28(fp)

      while (space > 0 && sp->tx_out != sp->tx_in)
  8082ac:	00001506 	br	808304 <altera_avalon_jtag_uart_irq+0x1a4>
      {
        IOWR_ALTERA_AVALON_JTAG_UART_DATA(base, sp->tx_buf[sp->tx_out]);
  8082b0:	e13ffd17 	ldw	r4,-12(fp)
  8082b4:	e0bffe17 	ldw	r2,-8(fp)
  8082b8:	10c00d17 	ldw	r3,52(r2)
  8082bc:	e0bffe17 	ldw	r2,-8(fp)
  8082c0:	1885883a 	add	r2,r3,r2
  8082c4:	10820e04 	addi	r2,r2,2104
  8082c8:	10800003 	ldbu	r2,0(r2)
  8082cc:	10c03fcc 	andi	r3,r2,255
  8082d0:	18c0201c 	xori	r3,r3,128
  8082d4:	18ffe004 	addi	r3,r3,-128
  8082d8:	2005883a 	mov	r2,r4
  8082dc:	10c00035 	stwio	r3,0(r2)

        sp->tx_out = (sp->tx_out + 1) % ALTERA_AVALON_JTAG_UART_BUF_LEN;
  8082e0:	e0bffe17 	ldw	r2,-8(fp)
  8082e4:	10800d17 	ldw	r2,52(r2)
  8082e8:	10800044 	addi	r2,r2,1
  8082ec:	10c1ffcc 	andi	r3,r2,2047
  8082f0:	e0bffe17 	ldw	r2,-8(fp)
  8082f4:	10c00d15 	stw	r3,52(r2)

        /* Post an event to notify jtag_uart_write that a character has been written */
        ALT_FLAG_POST (sp->events, ALT_JTAG_UART_WRITE_RDY, OS_FLAG_SET);

        space--;
  8082f8:	e0bff917 	ldw	r2,-28(fp)
  8082fc:	10bfffc4 	addi	r2,r2,-1
  808300:	e0bff915 	stw	r2,-28(fp)
    if (control & ALTERA_AVALON_JTAG_UART_CONTROL_WI_MSK)
    {
      /* process a write irq */
      unsigned int space = (control & ALTERA_AVALON_JTAG_UART_CONTROL_WSPACE_MSK) >> ALTERA_AVALON_JTAG_UART_CONTROL_WSPACE_OFST;

      while (space > 0 && sp->tx_out != sp->tx_in)
  808304:	e0bff917 	ldw	r2,-28(fp)
  808308:	1005003a 	cmpeq	r2,r2,zero
  80830c:	1000051e 	bne	r2,zero,808324 <altera_avalon_jtag_uart_irq+0x1c4>
  808310:	e0bffe17 	ldw	r2,-8(fp)
  808314:	10c00d17 	ldw	r3,52(r2)
  808318:	e0bffe17 	ldw	r2,-8(fp)
  80831c:	10800c17 	ldw	r2,48(r2)
  808320:	18bfe31e 	bne	r3,r2,8082b0 <altera_avalon_jtag_uart_irq+0x150>
        ALT_FLAG_POST (sp->events, ALT_JTAG_UART_WRITE_RDY, OS_FLAG_SET);

        space--;
      }

      if (space > 0)
  808324:	e0bff917 	ldw	r2,-28(fp)
  808328:	1005003a 	cmpeq	r2,r2,zero
  80832c:	103f961e 	bne	r2,zero,808188 <altera_avalon_jtag_uart_irq+0x28>
      {
        /* If we don't have any more data available then turn off the TX interrupt */
        sp->irq_enable &= ~ALTERA_AVALON_JTAG_UART_CONTROL_WE_MSK;
  808330:	e0bffe17 	ldw	r2,-8(fp)
  808334:	10c00817 	ldw	r3,32(r2)
  808338:	00bfff44 	movi	r2,-3
  80833c:	1886703a 	and	r3,r3,r2
  808340:	e0bffe17 	ldw	r2,-8(fp)
  808344:	10c00815 	stw	r3,32(r2)
        IOWR_ALTERA_AVALON_JTAG_UART_CONTROL(sp->base, sp->irq_enable);
  808348:	e0bffe17 	ldw	r2,-8(fp)
  80834c:	10800017 	ldw	r2,0(r2)
  808350:	11000104 	addi	r4,r2,4
  808354:	e0bffe17 	ldw	r2,-8(fp)
  808358:	10800817 	ldw	r2,32(r2)
  80835c:	1007883a 	mov	r3,r2
  808360:	2005883a 	mov	r2,r4
  808364:	10c00035 	stwio	r3,0(r2)
        
        /* Dummy read to ensure IRQ is cleared prior to ISR completion */
        IORD_ALTERA_AVALON_JTAG_UART_CONTROL(base);
  808368:	e0bffd17 	ldw	r2,-12(fp)
  80836c:	10800104 	addi	r2,r2,4
  808370:	10800037 	ldwio	r2,0(r2)
      }
    }
  }
  808374:	003f8406 	br	808188 <altera_avalon_jtag_uart_irq+0x28>
}
  808378:	e037883a 	mov	sp,fp
  80837c:	df000017 	ldw	fp,0(sp)
  808380:	dec00104 	addi	sp,sp,4
  808384:	f800283a 	ret

00808388 <altera_avalon_jtag_uart_timeout>:
 * Timeout routine is called every second
 */

static alt_u32 
altera_avalon_jtag_uart_timeout(void* context) 
{
  808388:	defffc04 	addi	sp,sp,-16
  80838c:	df000315 	stw	fp,12(sp)
  808390:	df000304 	addi	fp,sp,12
  808394:	e13fff15 	stw	r4,-4(fp)
  altera_avalon_jtag_uart_state* sp = (altera_avalon_jtag_uart_state *) context;
  808398:	e0bfff17 	ldw	r2,-4(fp)
  80839c:	e0bffe15 	stw	r2,-8(fp)

  unsigned int control = IORD_ALTERA_AVALON_JTAG_UART_CONTROL(sp->base);
  8083a0:	e0bffe17 	ldw	r2,-8(fp)
  8083a4:	10800017 	ldw	r2,0(r2)
  8083a8:	10800104 	addi	r2,r2,4
  8083ac:	10800037 	ldwio	r2,0(r2)
  8083b0:	e0bffd15 	stw	r2,-12(fp)

  if (control & ALTERA_AVALON_JTAG_UART_CONTROL_AC_MSK)
  8083b4:	e0bffd17 	ldw	r2,-12(fp)
  8083b8:	1081000c 	andi	r2,r2,1024
  8083bc:	1005003a 	cmpeq	r2,r2,zero
  8083c0:	10000c1e 	bne	r2,zero,8083f4 <altera_avalon_jtag_uart_timeout+0x6c>
  {
    IOWR_ALTERA_AVALON_JTAG_UART_CONTROL(sp->base, sp->irq_enable | ALTERA_AVALON_JTAG_UART_CONTROL_AC_MSK);
  8083c4:	e0bffe17 	ldw	r2,-8(fp)
  8083c8:	10800017 	ldw	r2,0(r2)
  8083cc:	11000104 	addi	r4,r2,4
  8083d0:	e0bffe17 	ldw	r2,-8(fp)
  8083d4:	10800817 	ldw	r2,32(r2)
  8083d8:	10810014 	ori	r2,r2,1024
  8083dc:	1007883a 	mov	r3,r2
  8083e0:	2005883a 	mov	r2,r4
  8083e4:	10c00035 	stwio	r3,0(r2)
    sp->host_inactive = 0;
  8083e8:	e0bffe17 	ldw	r2,-8(fp)
  8083ec:	10000915 	stw	zero,36(r2)
  8083f0:	00000a06 	br	80841c <altera_avalon_jtag_uart_timeout+0x94>
  }
  else if (sp->host_inactive < INT_MAX - 2) {
  8083f4:	e0bffe17 	ldw	r2,-8(fp)
  8083f8:	10c00917 	ldw	r3,36(r2)
  8083fc:	00a00034 	movhi	r2,32768
  808400:	10bfff04 	addi	r2,r2,-4
  808404:	10c00536 	bltu	r2,r3,80841c <altera_avalon_jtag_uart_timeout+0x94>
    sp->host_inactive++;
  808408:	e0bffe17 	ldw	r2,-8(fp)
  80840c:	10800917 	ldw	r2,36(r2)
  808410:	10c00044 	addi	r3,r2,1
  808414:	e0bffe17 	ldw	r2,-8(fp)
  808418:	10c00915 	stw	r3,36(r2)
  80841c:	00802074 	movhi	r2,129
  808420:	10bca204 	addi	r2,r2,-3448
  808424:	10800017 	ldw	r2,0(r2)
      ALT_FLAG_POST (sp->events, ALT_JTAG_UART_TIMEOUT, OS_FLAG_SET);
    }
  }

  return alt_ticks_per_second();
}
  808428:	e037883a 	mov	sp,fp
  80842c:	df000017 	ldw	fp,0(sp)
  808430:	dec00104 	addi	sp,sp,4
  808434:	f800283a 	ret

00808438 <altera_avalon_jtag_uart_close>:
 * The close routine is not implemented for the small driver; instead it will
 * map to null. This is because the small driver simply waits while characters
 * are transmitted; there is no interrupt-serviced buffer to empty 
 */
int altera_avalon_jtag_uart_close(altera_avalon_jtag_uart_state* sp, int flags)
{
  808438:	defffc04 	addi	sp,sp,-16
  80843c:	df000315 	stw	fp,12(sp)
  808440:	df000304 	addi	fp,sp,12
  808444:	e13ffd15 	stw	r4,-12(fp)
  808448:	e17ffe15 	stw	r5,-8(fp)
  /* 
   * Wait for all transmit data to be emptied by the JTAG UART ISR, or
   * for a host-inactivity timeout, in which case transmit data will be lost
   */
  while ( (sp->tx_out != sp->tx_in) && (sp->host_inactive < sp->timeout) ) {
  80844c:	00000706 	br	80846c <altera_avalon_jtag_uart_close+0x34>
    if (flags & O_NONBLOCK) {
  808450:	e0bffe17 	ldw	r2,-8(fp)
  808454:	1090000c 	andi	r2,r2,16384
  808458:	1005003a 	cmpeq	r2,r2,zero
  80845c:	1000031e 	bne	r2,zero,80846c <altera_avalon_jtag_uart_close+0x34>
      return -EWOULDBLOCK; 
  808460:	00bffd44 	movi	r2,-11
  808464:	e0bfff15 	stw	r2,-4(fp)
  808468:	00000b06 	br	808498 <altera_avalon_jtag_uart_close+0x60>
{
  /* 
   * Wait for all transmit data to be emptied by the JTAG UART ISR, or
   * for a host-inactivity timeout, in which case transmit data will be lost
   */
  while ( (sp->tx_out != sp->tx_in) && (sp->host_inactive < sp->timeout) ) {
  80846c:	e0bffd17 	ldw	r2,-12(fp)
  808470:	10c00d17 	ldw	r3,52(r2)
  808474:	e0bffd17 	ldw	r2,-12(fp)
  808478:	10800c17 	ldw	r2,48(r2)
  80847c:	18800526 	beq	r3,r2,808494 <altera_avalon_jtag_uart_close+0x5c>
  808480:	e0bffd17 	ldw	r2,-12(fp)
  808484:	10c00917 	ldw	r3,36(r2)
  808488:	e0bffd17 	ldw	r2,-12(fp)
  80848c:	10800117 	ldw	r2,4(r2)
  808490:	18bfef36 	bltu	r3,r2,808450 <altera_avalon_jtag_uart_close+0x18>
    if (flags & O_NONBLOCK) {
      return -EWOULDBLOCK; 
    }
  }

  return 0;
  808494:	e03fff15 	stw	zero,-4(fp)
  808498:	e0bfff17 	ldw	r2,-4(fp)
}
  80849c:	e037883a 	mov	sp,fp
  8084a0:	df000017 	ldw	fp,0(sp)
  8084a4:	dec00104 	addi	sp,sp,4
  8084a8:	f800283a 	ret

008084ac <altera_avalon_jtag_uart_ioctl>:
/* ----------------------------------------------------------- */

int 
altera_avalon_jtag_uart_ioctl(altera_avalon_jtag_uart_state* sp, int req,
  void* arg)
{
  8084ac:	defff804 	addi	sp,sp,-32
  8084b0:	df000715 	stw	fp,28(sp)
  8084b4:	df000704 	addi	fp,sp,28
  8084b8:	e13ffb15 	stw	r4,-20(fp)
  8084bc:	e17ffc15 	stw	r5,-16(fp)
  8084c0:	e1bffd15 	stw	r6,-12(fp)
  int rc = -ENOTTY;
  8084c4:	00bff9c4 	movi	r2,-25
  8084c8:	e0bffa15 	stw	r2,-24(fp)

  switch (req)
  8084cc:	e0bffc17 	ldw	r2,-16(fp)
  8084d0:	e0bfff15 	stw	r2,-4(fp)
  8084d4:	e0ffff17 	ldw	r3,-4(fp)
  8084d8:	189a8060 	cmpeqi	r2,r3,27137
  8084dc:	1000041e 	bne	r2,zero,8084f0 <altera_avalon_jtag_uart_ioctl+0x44>
  8084e0:	e0ffff17 	ldw	r3,-4(fp)
  8084e4:	189a80a0 	cmpeqi	r2,r3,27138
  8084e8:	10001b1e 	bne	r2,zero,808558 <altera_avalon_jtag_uart_ioctl+0xac>
  8084ec:	00002706 	br	80858c <altera_avalon_jtag_uart_ioctl+0xe0>
  {
  case TIOCSTIMEOUT:
    /* Set the time to wait until assuming host is not connected */
    if (sp->timeout != INT_MAX)
  8084f0:	e0bffb17 	ldw	r2,-20(fp)
  8084f4:	10c00117 	ldw	r3,4(r2)
  8084f8:	00a00034 	movhi	r2,32768
  8084fc:	10bfffc4 	addi	r2,r2,-1
  808500:	18802226 	beq	r3,r2,80858c <altera_avalon_jtag_uart_ioctl+0xe0>
    {
      int timeout = *((int *)arg);
  808504:	e0bffd17 	ldw	r2,-12(fp)
  808508:	10800017 	ldw	r2,0(r2)
  80850c:	e0bff915 	stw	r2,-28(fp)
      sp->timeout = (timeout >= 2 && timeout < INT_MAX) ? timeout : INT_MAX - 1;
  808510:	e0bff917 	ldw	r2,-28(fp)
  808514:	10800090 	cmplti	r2,r2,2
  808518:	1000071e 	bne	r2,zero,808538 <altera_avalon_jtag_uart_ioctl+0x8c>
  80851c:	e0fff917 	ldw	r3,-28(fp)
  808520:	00a00034 	movhi	r2,32768
  808524:	10bfffc4 	addi	r2,r2,-1
  808528:	18800326 	beq	r3,r2,808538 <altera_avalon_jtag_uart_ioctl+0x8c>
  80852c:	e0bff917 	ldw	r2,-28(fp)
  808530:	e0bffe15 	stw	r2,-8(fp)
  808534:	00000306 	br	808544 <altera_avalon_jtag_uart_ioctl+0x98>
  808538:	00e00034 	movhi	r3,32768
  80853c:	18ffff84 	addi	r3,r3,-2
  808540:	e0fffe15 	stw	r3,-8(fp)
  808544:	e0bffb17 	ldw	r2,-20(fp)
  808548:	e0fffe17 	ldw	r3,-8(fp)
  80854c:	10c00115 	stw	r3,4(r2)
      rc = 0;
  808550:	e03ffa15 	stw	zero,-24(fp)
    }
    break;
  808554:	00000d06 	br	80858c <altera_avalon_jtag_uart_ioctl+0xe0>

  case TIOCGCONNECTED:
    /* Find out whether host is connected */
    if (sp->timeout != INT_MAX)
  808558:	e0bffb17 	ldw	r2,-20(fp)
  80855c:	10c00117 	ldw	r3,4(r2)
  808560:	00a00034 	movhi	r2,32768
  808564:	10bfffc4 	addi	r2,r2,-1
  808568:	18800826 	beq	r3,r2,80858c <altera_avalon_jtag_uart_ioctl+0xe0>
    {
      *((int *)arg) = (sp->host_inactive < sp->timeout) ? 1 : 0;
  80856c:	e13ffd17 	ldw	r4,-12(fp)
  808570:	e0bffb17 	ldw	r2,-20(fp)
  808574:	10c00917 	ldw	r3,36(r2)
  808578:	e0bffb17 	ldw	r2,-20(fp)
  80857c:	10800117 	ldw	r2,4(r2)
  808580:	1885803a 	cmpltu	r2,r3,r2
  808584:	20800015 	stw	r2,0(r4)
      rc = 0;
  808588:	e03ffa15 	stw	zero,-24(fp)

  default:
    break;
  }

  return rc;
  80858c:	e0bffa17 	ldw	r2,-24(fp)
}
  808590:	e037883a 	mov	sp,fp
  808594:	df000017 	ldw	fp,0(sp)
  808598:	dec00104 	addi	sp,sp,4
  80859c:	f800283a 	ret

008085a0 <altera_avalon_jtag_uart_read>:
/* ----------------------------------------------------------- */

int 
altera_avalon_jtag_uart_read(altera_avalon_jtag_uart_state* sp, 
  char * buffer, int space, int flags)
{
  8085a0:	defff204 	addi	sp,sp,-56
  8085a4:	dfc00d15 	stw	ra,52(sp)
  8085a8:	df000c15 	stw	fp,48(sp)
  8085ac:	df000c04 	addi	fp,sp,48
  8085b0:	e13ffb15 	stw	r4,-20(fp)
  8085b4:	e17ffc15 	stw	r5,-16(fp)
  8085b8:	e1bffd15 	stw	r6,-12(fp)
  8085bc:	e1fffe15 	stw	r7,-8(fp)
  char * ptr = buffer;
  8085c0:	e0bffc17 	ldw	r2,-16(fp)
  8085c4:	e0bffa15 	stw	r2,-24(fp)
   * When running in a multi threaded environment, obtain the "read_lock"
   * semaphore. This ensures that reading from the device is thread-safe.
   */
  ALT_SEM_PEND (sp->read_lock, 0);

  while (space > 0)
  8085c8:	00004806 	br	8086ec <altera_avalon_jtag_uart_read+0x14c>
    unsigned int in, out;

    /* Read as much data as possible */
    do
    {
      in  = sp->rx_in;
  8085cc:	e0bffb17 	ldw	r2,-20(fp)
  8085d0:	10800a17 	ldw	r2,40(r2)
  8085d4:	e0bff715 	stw	r2,-36(fp)
      out = sp->rx_out;
  8085d8:	e0bffb17 	ldw	r2,-20(fp)
  8085dc:	10800b17 	ldw	r2,44(r2)
  8085e0:	e0bff615 	stw	r2,-40(fp)

      if (in >= out)
  8085e4:	e0fff717 	ldw	r3,-36(fp)
  8085e8:	e0bff617 	ldw	r2,-40(fp)
  8085ec:	18800536 	bltu	r3,r2,808604 <altera_avalon_jtag_uart_read+0x64>
        n = in - out;
  8085f0:	e0bff717 	ldw	r2,-36(fp)
  8085f4:	e0fff617 	ldw	r3,-40(fp)
  8085f8:	10c5c83a 	sub	r2,r2,r3
  8085fc:	e0bff815 	stw	r2,-32(fp)
  808600:	00000406 	br	808614 <altera_avalon_jtag_uart_read+0x74>
      else
        n = ALTERA_AVALON_JTAG_UART_BUF_LEN - out;
  808604:	00820004 	movi	r2,2048
  808608:	e0fff617 	ldw	r3,-40(fp)
  80860c:	10c5c83a 	sub	r2,r2,r3
  808610:	e0bff815 	stw	r2,-32(fp)

      if (n == 0)
  808614:	e0bff817 	ldw	r2,-32(fp)
  808618:	1005003a 	cmpeq	r2,r2,zero
  80861c:	10001f1e 	bne	r2,zero,80869c <altera_avalon_jtag_uart_read+0xfc>
        break; /* No more data available */

      if (n > space)
  808620:	e0fffd17 	ldw	r3,-12(fp)
  808624:	e0bff817 	ldw	r2,-32(fp)
  808628:	1880022e 	bgeu	r3,r2,808634 <altera_avalon_jtag_uart_read+0x94>
        n = space;
  80862c:	e0bffd17 	ldw	r2,-12(fp)
  808630:	e0bff815 	stw	r2,-32(fp)

      memcpy(ptr, sp->rx_buf + out, n);
  808634:	e0bffb17 	ldw	r2,-20(fp)
  808638:	10c00e04 	addi	r3,r2,56
  80863c:	e0bff617 	ldw	r2,-40(fp)
  808640:	1887883a 	add	r3,r3,r2
  808644:	e0bffa17 	ldw	r2,-24(fp)
  808648:	1009883a 	mov	r4,r2
  80864c:	180b883a 	mov	r5,r3
  808650:	e1bff817 	ldw	r6,-32(fp)
  808654:	08050d40 	call	8050d4 <memcpy>
      ptr   += n;
  808658:	e0fff817 	ldw	r3,-32(fp)
  80865c:	e0bffa17 	ldw	r2,-24(fp)
  808660:	10c5883a 	add	r2,r2,r3
  808664:	e0bffa15 	stw	r2,-24(fp)
      space -= n;
  808668:	e0fffd17 	ldw	r3,-12(fp)
  80866c:	e0bff817 	ldw	r2,-32(fp)
  808670:	1885c83a 	sub	r2,r3,r2
  808674:	e0bffd15 	stw	r2,-12(fp)

      sp->rx_out = (out + n) % ALTERA_AVALON_JTAG_UART_BUF_LEN;
  808678:	e0fff617 	ldw	r3,-40(fp)
  80867c:	e0bff817 	ldw	r2,-32(fp)
  808680:	1885883a 	add	r2,r3,r2
  808684:	10c1ffcc 	andi	r3,r2,2047
  808688:	e0bffb17 	ldw	r2,-20(fp)
  80868c:	10c00b15 	stw	r3,44(r2)
    }
    while (space > 0);
  808690:	e0bffd17 	ldw	r2,-12(fp)
  808694:	10800048 	cmpgei	r2,r2,1
  808698:	103fcc1e 	bne	r2,zero,8085cc <altera_avalon_jtag_uart_read+0x2c>

    /* If we read any data then return it */
    if (ptr != buffer)
  80869c:	e0fffa17 	ldw	r3,-24(fp)
  8086a0:	e0bffc17 	ldw	r2,-16(fp)
  8086a4:	1880141e 	bne	r3,r2,8086f8 <altera_avalon_jtag_uart_read+0x158>
      break;

    /* If in non-blocking mode then return error */
    if (flags & O_NONBLOCK)
  8086a8:	e0bffe17 	ldw	r2,-8(fp)
  8086ac:	1090000c 	andi	r2,r2,16384
  8086b0:	1004c03a 	cmpne	r2,r2,zero
  8086b4:	1000101e 	bne	r2,zero,8086f8 <altera_avalon_jtag_uart_read+0x158>
      while (in == sp->rx_in && sp->host_inactive < sp->timeout)
        ;
    }
#else
    /* No OS: Always spin */
    while (in == sp->rx_in && sp->host_inactive < sp->timeout)
  8086b8:	e0bffb17 	ldw	r2,-20(fp)
  8086bc:	10c00a17 	ldw	r3,40(r2)
  8086c0:	e0bff717 	ldw	r2,-36(fp)
  8086c4:	1880051e 	bne	r3,r2,8086dc <altera_avalon_jtag_uart_read+0x13c>
  8086c8:	e0bffb17 	ldw	r2,-20(fp)
  8086cc:	10c00917 	ldw	r3,36(r2)
  8086d0:	e0bffb17 	ldw	r2,-20(fp)
  8086d4:	10800117 	ldw	r2,4(r2)
  8086d8:	18bff736 	bltu	r3,r2,8086b8 <altera_avalon_jtag_uart_read+0x118>
      ;
#endif /* __ucosii__ */

    if (in == sp->rx_in)
  8086dc:	e0bffb17 	ldw	r2,-20(fp)
  8086e0:	10c00a17 	ldw	r3,40(r2)
  8086e4:	e0bff717 	ldw	r2,-36(fp)
  8086e8:	18800326 	beq	r3,r2,8086f8 <altera_avalon_jtag_uart_read+0x158>
   * When running in a multi threaded environment, obtain the "read_lock"
   * semaphore. This ensures that reading from the device is thread-safe.
   */
  ALT_SEM_PEND (sp->read_lock, 0);

  while (space > 0)
  8086ec:	e0bffd17 	ldw	r2,-12(fp)
  8086f0:	10800048 	cmpgei	r2,r2,1
  8086f4:	103fb51e 	bne	r2,zero,8085cc <altera_avalon_jtag_uart_read+0x2c>
   * semaphore so that other threads can access the buffer.
   */

  ALT_SEM_POST (sp->read_lock);

  if (ptr != buffer)
  8086f8:	e0fffa17 	ldw	r3,-24(fp)
  8086fc:	e0bffc17 	ldw	r2,-16(fp)
  808700:	18801926 	beq	r3,r2,808768 <altera_avalon_jtag_uart_read+0x1c8>
static ALT_INLINE alt_irq_context ALT_ALWAYS_INLINE 
       alt_irq_disable_all (void)
{
  alt_irq_context context;

  NIOS2_READ_STATUS (context);
  808704:	0005303a 	rdctl	r2,status
  808708:	e0bff515 	stw	r2,-44(fp)

  NIOS2_WRITE_STATUS (context & ~NIOS2_STATUS_PIE_MSK);
  80870c:	e0fff517 	ldw	r3,-44(fp)
  808710:	00bfff84 	movi	r2,-2
  808714:	1884703a 	and	r2,r3,r2
  808718:	1001703a 	wrctl	status,r2
  
  return context;
  80871c:	e0bff517 	ldw	r2,-44(fp)
  {
    /* If we read any data then there is space in the buffer so enable interrupts */
    context = alt_irq_disable_all();
  808720:	e0bff915 	stw	r2,-28(fp)
    sp->irq_enable |= ALTERA_AVALON_JTAG_UART_CONTROL_RE_MSK;
  808724:	e0bffb17 	ldw	r2,-20(fp)
  808728:	10800817 	ldw	r2,32(r2)
  80872c:	10c00054 	ori	r3,r2,1
  808730:	e0bffb17 	ldw	r2,-20(fp)
  808734:	10c00815 	stw	r3,32(r2)
    IOWR_ALTERA_AVALON_JTAG_UART_CONTROL(sp->base, sp->irq_enable);
  808738:	e0bffb17 	ldw	r2,-20(fp)
  80873c:	10800017 	ldw	r2,0(r2)
  808740:	11000104 	addi	r4,r2,4
  808744:	e0bffb17 	ldw	r2,-20(fp)
  808748:	10800817 	ldw	r2,32(r2)
  80874c:	1007883a 	mov	r3,r2
  808750:	2005883a 	mov	r2,r4
  808754:	10c00035 	stwio	r3,0(r2)
  808758:	e0bff917 	ldw	r2,-28(fp)
  80875c:	e0bff415 	stw	r2,-48(fp)
  status &= ~NIOS2_STATUS_PIE_MSK;
  status |= (context & NIOS2_STATUS_PIE_MSK);
  
  NIOS2_WRITE_STATUS (status);
#else
  NIOS2_WRITE_STATUS (context);
  808760:	e0bff417 	ldw	r2,-48(fp)
  808764:	1001703a 	wrctl	status,r2
    alt_irq_enable_all(context);
  }

  if (ptr != buffer)
  808768:	e0fffa17 	ldw	r3,-24(fp)
  80876c:	e0bffc17 	ldw	r2,-16(fp)
  808770:	18800526 	beq	r3,r2,808788 <altera_avalon_jtag_uart_read+0x1e8>
    return ptr - buffer;
  808774:	e0fffa17 	ldw	r3,-24(fp)
  808778:	e0bffc17 	ldw	r2,-16(fp)
  80877c:	1887c83a 	sub	r3,r3,r2
  808780:	e0ffff15 	stw	r3,-4(fp)
  808784:	00000906 	br	8087ac <altera_avalon_jtag_uart_read+0x20c>
  else if (flags & O_NONBLOCK)
  808788:	e0bffe17 	ldw	r2,-8(fp)
  80878c:	1090000c 	andi	r2,r2,16384
  808790:	1005003a 	cmpeq	r2,r2,zero
  808794:	1000031e 	bne	r2,zero,8087a4 <altera_avalon_jtag_uart_read+0x204>
    return -EWOULDBLOCK;
  808798:	00bffd44 	movi	r2,-11
  80879c:	e0bfff15 	stw	r2,-4(fp)
  8087a0:	00000206 	br	8087ac <altera_avalon_jtag_uart_read+0x20c>
  else
    return -EIO;
  8087a4:	00bffec4 	movi	r2,-5
  8087a8:	e0bfff15 	stw	r2,-4(fp)
  8087ac:	e0bfff17 	ldw	r2,-4(fp)
}
  8087b0:	e037883a 	mov	sp,fp
  8087b4:	dfc00117 	ldw	ra,4(sp)
  8087b8:	df000017 	ldw	fp,0(sp)
  8087bc:	dec00204 	addi	sp,sp,8
  8087c0:	f800283a 	ret

008087c4 <altera_avalon_jtag_uart_write>:
/* ----------------------------------------------------------- */

int 
altera_avalon_jtag_uart_write(altera_avalon_jtag_uart_state* sp, 
  const char * ptr, int count, int flags)
{
  8087c4:	defff204 	addi	sp,sp,-56
  8087c8:	dfc00d15 	stw	ra,52(sp)
  8087cc:	df000c15 	stw	fp,48(sp)
  8087d0:	df000c04 	addi	fp,sp,48
  8087d4:	e13ffb15 	stw	r4,-20(fp)
  8087d8:	e17ffc15 	stw	r5,-16(fp)
  8087dc:	e1bffd15 	stw	r6,-12(fp)
  8087e0:	e1fffe15 	stw	r7,-8(fp)
  /* Remove warning at optimisation level 03 by seting out to 0 */
  unsigned int in, out=0;
  8087e4:	e03ff915 	stw	zero,-28(fp)
  unsigned int n;
  alt_irq_context context;

  const char * start = ptr;
  8087e8:	e0bffc17 	ldw	r2,-16(fp)
  8087ec:	e0bff615 	stw	r2,-40(fp)
  ALT_SEM_PEND (sp->write_lock, 0);

  do
  {
    /* Copy as much as we can into the transmit buffer */
    while (count > 0)
  8087f0:	00003a06 	br	8088dc <altera_avalon_jtag_uart_write+0x118>
    {
      /* We need a stable value of the out pointer to calculate the space available */
      in  = sp->tx_in;
  8087f4:	e0bffb17 	ldw	r2,-20(fp)
  8087f8:	10800c17 	ldw	r2,48(r2)
  8087fc:	e0bffa15 	stw	r2,-24(fp)
      out = sp->tx_out;
  808800:	e0bffb17 	ldw	r2,-20(fp)
  808804:	10800d17 	ldw	r2,52(r2)
  808808:	e0bff915 	stw	r2,-28(fp)

      if (in < out)
  80880c:	e0fffa17 	ldw	r3,-24(fp)
  808810:	e0bff917 	ldw	r2,-28(fp)
  808814:	1880062e 	bgeu	r3,r2,808830 <altera_avalon_jtag_uart_write+0x6c>
        n = out - 1 - in;
  808818:	e0fff917 	ldw	r3,-28(fp)
  80881c:	e0bffa17 	ldw	r2,-24(fp)
  808820:	1885c83a 	sub	r2,r3,r2
  808824:	10bfffc4 	addi	r2,r2,-1
  808828:	e0bff815 	stw	r2,-32(fp)
  80882c:	00000c06 	br	808860 <altera_avalon_jtag_uart_write+0x9c>
      else if (out > 0)
  808830:	e0bff917 	ldw	r2,-28(fp)
  808834:	1005003a 	cmpeq	r2,r2,zero
  808838:	1000051e 	bne	r2,zero,808850 <altera_avalon_jtag_uart_write+0x8c>
        n = ALTERA_AVALON_JTAG_UART_BUF_LEN - in;
  80883c:	00820004 	movi	r2,2048
  808840:	e0fffa17 	ldw	r3,-24(fp)
  808844:	10c5c83a 	sub	r2,r2,r3
  808848:	e0bff815 	stw	r2,-32(fp)
  80884c:	00000406 	br	808860 <altera_avalon_jtag_uart_write+0x9c>
      else
        n = ALTERA_AVALON_JTAG_UART_BUF_LEN - 1 - in;
  808850:	0081ffc4 	movi	r2,2047
  808854:	e0fffa17 	ldw	r3,-24(fp)
  808858:	10c5c83a 	sub	r2,r2,r3
  80885c:	e0bff815 	stw	r2,-32(fp)

      if (n == 0)
  808860:	e0bff817 	ldw	r2,-32(fp)
  808864:	1005003a 	cmpeq	r2,r2,zero
  808868:	10001f1e 	bne	r2,zero,8088e8 <altera_avalon_jtag_uart_write+0x124>
        break;

      if (n > count)
  80886c:	e0fffd17 	ldw	r3,-12(fp)
  808870:	e0bff817 	ldw	r2,-32(fp)
  808874:	1880022e 	bgeu	r3,r2,808880 <altera_avalon_jtag_uart_write+0xbc>
        n = count;
  808878:	e0bffd17 	ldw	r2,-12(fp)
  80887c:	e0bff815 	stw	r2,-32(fp)

      memcpy(sp->tx_buf + in, ptr, n);
  808880:	e0bffb17 	ldw	r2,-20(fp)
  808884:	10c20e04 	addi	r3,r2,2104
  808888:	e0bffa17 	ldw	r2,-24(fp)
  80888c:	1885883a 	add	r2,r3,r2
  808890:	e0fffc17 	ldw	r3,-16(fp)
  808894:	1009883a 	mov	r4,r2
  808898:	180b883a 	mov	r5,r3
  80889c:	e1bff817 	ldw	r6,-32(fp)
  8088a0:	08050d40 	call	8050d4 <memcpy>
      ptr   += n;
  8088a4:	e0fff817 	ldw	r3,-32(fp)
  8088a8:	e0bffc17 	ldw	r2,-16(fp)
  8088ac:	10c5883a 	add	r2,r2,r3
  8088b0:	e0bffc15 	stw	r2,-16(fp)
      count -= n;
  8088b4:	e0fffd17 	ldw	r3,-12(fp)
  8088b8:	e0bff817 	ldw	r2,-32(fp)
  8088bc:	1885c83a 	sub	r2,r3,r2
  8088c0:	e0bffd15 	stw	r2,-12(fp)

      sp->tx_in = (in + n) % ALTERA_AVALON_JTAG_UART_BUF_LEN;
  8088c4:	e0fffa17 	ldw	r3,-24(fp)
  8088c8:	e0bff817 	ldw	r2,-32(fp)
  8088cc:	1885883a 	add	r2,r3,r2
  8088d0:	10c1ffcc 	andi	r3,r2,2047
  8088d4:	e0bffb17 	ldw	r2,-20(fp)
  8088d8:	10c00c15 	stw	r3,48(r2)
  ALT_SEM_PEND (sp->write_lock, 0);

  do
  {
    /* Copy as much as we can into the transmit buffer */
    while (count > 0)
  8088dc:	e0bffd17 	ldw	r2,-12(fp)
  8088e0:	10800048 	cmpgei	r2,r2,1
  8088e4:	103fc31e 	bne	r2,zero,8087f4 <altera_avalon_jtag_uart_write+0x30>
static ALT_INLINE alt_irq_context ALT_ALWAYS_INLINE 
       alt_irq_disable_all (void)
{
  alt_irq_context context;

  NIOS2_READ_STATUS (context);
  8088e8:	0005303a 	rdctl	r2,status
  8088ec:	e0bff515 	stw	r2,-44(fp)

  NIOS2_WRITE_STATUS (context & ~NIOS2_STATUS_PIE_MSK);
  8088f0:	e0fff517 	ldw	r3,-44(fp)
  8088f4:	00bfff84 	movi	r2,-2
  8088f8:	1884703a 	and	r2,r3,r2
  8088fc:	1001703a 	wrctl	status,r2
  
  return context;
  808900:	e0bff517 	ldw	r2,-44(fp)
     * to enable interrupts if there is no space left in the FIFO
     *
     * For now kick the interrupt routine every time to make it transmit 
     * the data 
     */
    context = alt_irq_disable_all();
  808904:	e0bff715 	stw	r2,-36(fp)
    sp->irq_enable |= ALTERA_AVALON_JTAG_UART_CONTROL_WE_MSK;
  808908:	e0bffb17 	ldw	r2,-20(fp)
  80890c:	10800817 	ldw	r2,32(r2)
  808910:	10c00094 	ori	r3,r2,2
  808914:	e0bffb17 	ldw	r2,-20(fp)
  808918:	10c00815 	stw	r3,32(r2)
    IOWR_ALTERA_AVALON_JTAG_UART_CONTROL(sp->base, sp->irq_enable);
  80891c:	e0bffb17 	ldw	r2,-20(fp)
  808920:	10800017 	ldw	r2,0(r2)
  808924:	11000104 	addi	r4,r2,4
  808928:	e0bffb17 	ldw	r2,-20(fp)
  80892c:	10800817 	ldw	r2,32(r2)
  808930:	1007883a 	mov	r3,r2
  808934:	2005883a 	mov	r2,r4
  808938:	10c00035 	stwio	r3,0(r2)
  80893c:	e0bff717 	ldw	r2,-36(fp)
  808940:	e0bff415 	stw	r2,-48(fp)
  status &= ~NIOS2_STATUS_PIE_MSK;
  status |= (context & NIOS2_STATUS_PIE_MSK);
  
  NIOS2_WRITE_STATUS (status);
#else
  NIOS2_WRITE_STATUS (context);
  808944:	e0bff417 	ldw	r2,-48(fp)
  808948:	1001703a 	wrctl	status,r2
    /* 
     * If there is any data left then either return now or block until 
     * some has been sent 
     */
    /* consider: test whether there is anything there while doing this and delay for at most 2s. */
    if (count > 0)
  80894c:	e0bffd17 	ldw	r2,-12(fp)
  808950:	10800050 	cmplti	r2,r2,1
  808954:	1000111e 	bne	r2,zero,80899c <altera_avalon_jtag_uart_write+0x1d8>
    {
      if (flags & O_NONBLOCK)
  808958:	e0bffe17 	ldw	r2,-8(fp)
  80895c:	1090000c 	andi	r2,r2,16384
  808960:	1004c03a 	cmpne	r2,r2,zero
  808964:	1000101e 	bne	r2,zero,8089a8 <altera_avalon_jtag_uart_write+0x1e4>
      /*
       * No OS present: Always wait for data to be removed from buffer.  Once
       * the interrupt routine has removed some data then we will be able to
       * insert some more.
       */
      while (out == sp->tx_out && sp->host_inactive < sp->timeout)
  808968:	e0bffb17 	ldw	r2,-20(fp)
  80896c:	10c00d17 	ldw	r3,52(r2)
  808970:	e0bff917 	ldw	r2,-28(fp)
  808974:	1880051e 	bne	r3,r2,80898c <altera_avalon_jtag_uart_write+0x1c8>
  808978:	e0bffb17 	ldw	r2,-20(fp)
  80897c:	10c00917 	ldw	r3,36(r2)
  808980:	e0bffb17 	ldw	r2,-20(fp)
  808984:	10800117 	ldw	r2,4(r2)
  808988:	18bff736 	bltu	r3,r2,808968 <altera_avalon_jtag_uart_write+0x1a4>
        ;
#endif /* __ucosii__ */

      if (out == sp->tx_out)
  80898c:	e0bffb17 	ldw	r2,-20(fp)
  808990:	10c00d17 	ldw	r3,52(r2)
  808994:	e0bff917 	ldw	r2,-28(fp)
  808998:	18800326 	beq	r3,r2,8089a8 <altera_avalon_jtag_uart_write+0x1e4>
         break;
    }
  }
  while (count > 0);
  80899c:	e0bffd17 	ldw	r2,-12(fp)
  8089a0:	10800048 	cmpgei	r2,r2,1
  8089a4:	103fcd1e 	bne	r2,zero,8088dc <altera_avalon_jtag_uart_write+0x118>
   * Now that access to the circular buffer is complete, release the write
   * semaphore so that other threads can access the buffer.
   */
  ALT_SEM_POST (sp->write_lock);

  if (ptr != start)
  8089a8:	e0fffc17 	ldw	r3,-16(fp)
  8089ac:	e0bff617 	ldw	r2,-40(fp)
  8089b0:	18800526 	beq	r3,r2,8089c8 <altera_avalon_jtag_uart_write+0x204>
    return ptr - start;
  8089b4:	e0fffc17 	ldw	r3,-16(fp)
  8089b8:	e0bff617 	ldw	r2,-40(fp)
  8089bc:	1887c83a 	sub	r3,r3,r2
  8089c0:	e0ffff15 	stw	r3,-4(fp)
  8089c4:	00000906 	br	8089ec <altera_avalon_jtag_uart_write+0x228>
  else if (flags & O_NONBLOCK)
  8089c8:	e0bffe17 	ldw	r2,-8(fp)
  8089cc:	1090000c 	andi	r2,r2,16384
  8089d0:	1005003a 	cmpeq	r2,r2,zero
  8089d4:	1000031e 	bne	r2,zero,8089e4 <altera_avalon_jtag_uart_write+0x220>
    return -EWOULDBLOCK;
  8089d8:	00bffd44 	movi	r2,-11
  8089dc:	e0bfff15 	stw	r2,-4(fp)
  8089e0:	00000206 	br	8089ec <altera_avalon_jtag_uart_write+0x228>
    sp->tx_out = sp->tx_in = 0;
    return ptr - start + count;
  }
#endif
  else
    return -EIO; /* Host not connected */
  8089e4:	00bffec4 	movi	r2,-5
  8089e8:	e0bfff15 	stw	r2,-4(fp)
  8089ec:	e0bfff17 	ldw	r2,-4(fp)
}
  8089f0:	e037883a 	mov	sp,fp
  8089f4:	dfc00117 	ldw	ra,4(sp)
  8089f8:	df000017 	ldw	fp,0(sp)
  8089fc:	dec00204 	addi	sp,sp,8
  808a00:	f800283a 	ret

00808a04 <lcd_write_command>:

/* --------------------------------------------------------------------- */

static void lcd_write_command(altera_avalon_lcd_16207_state* sp, 
  unsigned char command)
{
  808a04:	defffa04 	addi	sp,sp,-24
  808a08:	dfc00515 	stw	ra,20(sp)
  808a0c:	df000415 	stw	fp,16(sp)
  808a10:	df000404 	addi	fp,sp,16
  808a14:	e13ffe15 	stw	r4,-8(fp)
  808a18:	e17fff05 	stb	r5,-4(fp)
  unsigned int base = sp->base;
  808a1c:	e0bffe17 	ldw	r2,-8(fp)
  808a20:	10800017 	ldw	r2,0(r2)
  808a24:	e0bffd15 	stw	r2,-12(fp)
  /* We impose a timeout on the driver in case the LCD panel isn't connected.
   * The first time we call this function the timeout is approx 25ms 
   * (assuming 5 cycles per loop and a 200MHz clock).  Obviously systems
   * with slower clocks, or debug builds, or slower memory will take longer.
   */
  int i = 1000000;
  808a28:	008003f4 	movhi	r2,15
  808a2c:	10909004 	addi	r2,r2,16960
  808a30:	e0bffc15 	stw	r2,-16(fp)

  /* Don't bother if the LCD panel didn't work before */
  if (sp->broken)
  808a34:	e0bffe17 	ldw	r2,-8(fp)
  808a38:	10800803 	ldbu	r2,32(r2)
  808a3c:	10803fcc 	andi	r2,r2,255
  808a40:	1080201c 	xori	r2,r2,128
  808a44:	10bfe004 	addi	r2,r2,-128
  808a48:	1004c03a 	cmpne	r2,r2,zero
  808a4c:	1000161e 	bne	r2,zero,808aa8 <lcd_write_command+0xa4>
    return;

  /* Wait until LCD isn't busy. */
  while (IORD_ALTERA_AVALON_LCD_16207_STATUS(base) & ALTERA_AVALON_LCD_16207_STATUS_BUSY_MSK)
  808a50:	00000a06 	br	808a7c <lcd_write_command+0x78>
    if (--i == 0)
  808a54:	e0bffc17 	ldw	r2,-16(fp)
  808a58:	10bfffc4 	addi	r2,r2,-1
  808a5c:	e0bffc15 	stw	r2,-16(fp)
  808a60:	e0bffc17 	ldw	r2,-16(fp)
  808a64:	1004c03a 	cmpne	r2,r2,zero
  808a68:	1000041e 	bne	r2,zero,808a7c <lcd_write_command+0x78>
    {
      sp->broken = 1;
  808a6c:	e0fffe17 	ldw	r3,-8(fp)
  808a70:	00800044 	movi	r2,1
  808a74:	18800805 	stb	r2,32(r3)
      return;
  808a78:	00000b06 	br	808aa8 <lcd_write_command+0xa4>
  /* Don't bother if the LCD panel didn't work before */
  if (sp->broken)
    return;

  /* Wait until LCD isn't busy. */
  while (IORD_ALTERA_AVALON_LCD_16207_STATUS(base) & ALTERA_AVALON_LCD_16207_STATUS_BUSY_MSK)
  808a7c:	e0bffd17 	ldw	r2,-12(fp)
  808a80:	10800104 	addi	r2,r2,4
  808a84:	10800037 	ldwio	r2,0(r2)
  808a88:	1080200c 	andi	r2,r2,128
  808a8c:	1004c03a 	cmpne	r2,r2,zero
  808a90:	103ff01e 	bne	r2,zero,808a54 <lcd_write_command+0x50>
    }

  /* Despite what it says in the datasheet, the LCD isn't ready to accept
   * a write immediately after it returns BUSY=0.  Wait for 100us more.
   */
  usleep(100);
  808a94:	01001904 	movi	r4,100
  808a98:	080acb80 	call	80acb8 <usleep>

  IOWR_ALTERA_AVALON_LCD_16207_COMMAND(base, command);
  808a9c:	e0bffd17 	ldw	r2,-12(fp)
  808aa0:	e0ffff03 	ldbu	r3,-4(fp)
  808aa4:	10c00035 	stwio	r3,0(r2)
}
  808aa8:	e037883a 	mov	sp,fp
  808aac:	dfc00117 	ldw	ra,4(sp)
  808ab0:	df000017 	ldw	fp,0(sp)
  808ab4:	dec00204 	addi	sp,sp,8
  808ab8:	f800283a 	ret

00808abc <lcd_write_data>:

/* --------------------------------------------------------------------- */

static void lcd_write_data(altera_avalon_lcd_16207_state* sp, 
  unsigned char data)
{
  808abc:	defffa04 	addi	sp,sp,-24
  808ac0:	dfc00515 	stw	ra,20(sp)
  808ac4:	df000415 	stw	fp,16(sp)
  808ac8:	df000404 	addi	fp,sp,16
  808acc:	e13ffe15 	stw	r4,-8(fp)
  808ad0:	e17fff05 	stb	r5,-4(fp)
  unsigned int base = sp->base;
  808ad4:	e0bffe17 	ldw	r2,-8(fp)
  808ad8:	10800017 	ldw	r2,0(r2)
  808adc:	e0bffd15 	stw	r2,-12(fp)
  /* We impose a timeout on the driver in case the LCD panel isn't connected.
   * The first time we call this function the timeout is approx 25ms 
   * (assuming 5 cycles per loop and a 200MHz clock).  Obviously systems
   * with slower clocks, or debug builds, or slower memory will take longer.
   */
  int i = 1000000;
  808ae0:	008003f4 	movhi	r2,15
  808ae4:	10909004 	addi	r2,r2,16960
  808ae8:	e0bffc15 	stw	r2,-16(fp)

  /* Don't bother if the LCD panel didn't work before */
  if (sp->broken)
  808aec:	e0bffe17 	ldw	r2,-8(fp)
  808af0:	10800803 	ldbu	r2,32(r2)
  808af4:	10803fcc 	andi	r2,r2,255
  808af8:	1080201c 	xori	r2,r2,128
  808afc:	10bfe004 	addi	r2,r2,-128
  808b00:	1004c03a 	cmpne	r2,r2,zero
  808b04:	10001d1e 	bne	r2,zero,808b7c <lcd_write_data+0xc0>
    return;

  /* Wait until LCD isn't busy. */
  while (IORD_ALTERA_AVALON_LCD_16207_STATUS(base) & ALTERA_AVALON_LCD_16207_STATUS_BUSY_MSK)
  808b08:	00000a06 	br	808b34 <lcd_write_data+0x78>
    if (--i == 0)
  808b0c:	e0bffc17 	ldw	r2,-16(fp)
  808b10:	10bfffc4 	addi	r2,r2,-1
  808b14:	e0bffc15 	stw	r2,-16(fp)
  808b18:	e0bffc17 	ldw	r2,-16(fp)
  808b1c:	1004c03a 	cmpne	r2,r2,zero
  808b20:	1000041e 	bne	r2,zero,808b34 <lcd_write_data+0x78>
    {
      sp->broken = 1;
  808b24:	e0fffe17 	ldw	r3,-8(fp)
  808b28:	00800044 	movi	r2,1
  808b2c:	18800805 	stb	r2,32(r3)
      return;
  808b30:	00001206 	br	808b7c <lcd_write_data+0xc0>
  /* Don't bother if the LCD panel didn't work before */
  if (sp->broken)
    return;

  /* Wait until LCD isn't busy. */
  while (IORD_ALTERA_AVALON_LCD_16207_STATUS(base) & ALTERA_AVALON_LCD_16207_STATUS_BUSY_MSK)
  808b34:	e0bffd17 	ldw	r2,-12(fp)
  808b38:	10800104 	addi	r2,r2,4
  808b3c:	10800037 	ldwio	r2,0(r2)
  808b40:	1080200c 	andi	r2,r2,128
  808b44:	1004c03a 	cmpne	r2,r2,zero
  808b48:	103ff01e 	bne	r2,zero,808b0c <lcd_write_data+0x50>
    }

  /* Despite what it says in the datasheet, the LCD isn't ready to accept
   * a write immediately after it returns BUSY=0.  Wait for 100us more.
   */
  usleep(100);
  808b4c:	01001904 	movi	r4,100
  808b50:	080acb80 	call	80acb8 <usleep>

  IOWR_ALTERA_AVALON_LCD_16207_DATA(base, data);
  808b54:	e0bffd17 	ldw	r2,-12(fp)
  808b58:	10800204 	addi	r2,r2,8
  808b5c:	e0ffff03 	ldbu	r3,-4(fp)
  808b60:	10c00035 	stwio	r3,0(r2)

  sp->address++;
  808b64:	e0bffe17 	ldw	r2,-8(fp)
  808b68:	108008c3 	ldbu	r2,35(r2)
  808b6c:	10800044 	addi	r2,r2,1
  808b70:	1007883a 	mov	r3,r2
  808b74:	e0bffe17 	ldw	r2,-8(fp)
  808b78:	10c008c5 	stb	r3,35(r2)
}
  808b7c:	e037883a 	mov	sp,fp
  808b80:	dfc00117 	ldw	ra,4(sp)
  808b84:	df000017 	ldw	fp,0(sp)
  808b88:	dec00204 	addi	sp,sp,8
  808b8c:	f800283a 	ret

00808b90 <lcd_clear_screen>:

/* --------------------------------------------------------------------- */

static void lcd_clear_screen(altera_avalon_lcd_16207_state* sp)
{
  808b90:	defffc04 	addi	sp,sp,-16
  808b94:	dfc00315 	stw	ra,12(sp)
  808b98:	df000215 	stw	fp,8(sp)
  808b9c:	df000204 	addi	fp,sp,8
  808ba0:	e13fff15 	stw	r4,-4(fp)
  int y;

  lcd_write_command(sp, LCD_CMD_CLEAR);
  808ba4:	e13fff17 	ldw	r4,-4(fp)
  808ba8:	01400044 	movi	r5,1
  808bac:	0808a040 	call	808a04 <lcd_write_command>

  sp->x = 0;
  808bb0:	e0bfff17 	ldw	r2,-4(fp)
  808bb4:	10000845 	stb	zero,33(r2)
  sp->y = 0;
  808bb8:	e0bfff17 	ldw	r2,-4(fp)
  808bbc:	10000885 	stb	zero,34(r2)
  sp->address = 0;
  808bc0:	e0bfff17 	ldw	r2,-4(fp)
  808bc4:	100008c5 	stb	zero,35(r2)

  for (y = 0 ; y < ALT_LCD_HEIGHT ; y++)
  808bc8:	e03ffe15 	stw	zero,-8(fp)
  808bcc:	00001906 	br	808c34 <lcd_clear_screen+0xa4>
  {
    memset(sp->line[y].data, ' ', sizeof(sp->line[0].data));
  808bd0:	e0bffe17 	ldw	r2,-8(fp)
  808bd4:	10801924 	muli	r2,r2,100
  808bd8:	10c01004 	addi	r3,r2,64
  808bdc:	e0bfff17 	ldw	r2,-4(fp)
  808be0:	1889883a 	add	r4,r3,r2
  808be4:	01400804 	movi	r5,32
  808be8:	01801444 	movi	r6,81
  808bec:	08066380 	call	806638 <memset>
    memset(sp->line[y].visible, ' ', sizeof(sp->line[0].visible));
  808bf0:	e0bffe17 	ldw	r2,-8(fp)
  808bf4:	10801924 	muli	r2,r2,100
  808bf8:	10c00c04 	addi	r3,r2,48
  808bfc:	e0bfff17 	ldw	r2,-4(fp)
  808c00:	1889883a 	add	r4,r3,r2
  808c04:	01400804 	movi	r5,32
  808c08:	01800404 	movi	r6,16
  808c0c:	08066380 	call	806638 <memset>
    sp->line[y].width = 0;
  808c10:	e0bffe17 	ldw	r2,-8(fp)
  808c14:	e0ffff17 	ldw	r3,-4(fp)
  808c18:	10801924 	muli	r2,r2,100
  808c1c:	10c5883a 	add	r2,r2,r3
  808c20:	10802404 	addi	r2,r2,144
  808c24:	10000045 	stb	zero,1(r2)

  sp->x = 0;
  sp->y = 0;
  sp->address = 0;

  for (y = 0 ; y < ALT_LCD_HEIGHT ; y++)
  808c28:	e0bffe17 	ldw	r2,-8(fp)
  808c2c:	10800044 	addi	r2,r2,1
  808c30:	e0bffe15 	stw	r2,-8(fp)
  808c34:	e0bffe17 	ldw	r2,-8(fp)
  808c38:	10800090 	cmplti	r2,r2,2
  808c3c:	103fe41e 	bne	r2,zero,808bd0 <lcd_clear_screen+0x40>
  {
    memset(sp->line[y].data, ' ', sizeof(sp->line[0].data));
    memset(sp->line[y].visible, ' ', sizeof(sp->line[0].visible));
    sp->line[y].width = 0;
  }
}
  808c40:	e037883a 	mov	sp,fp
  808c44:	dfc00117 	ldw	ra,4(sp)
  808c48:	df000017 	ldw	fp,0(sp)
  808c4c:	dec00204 	addi	sp,sp,8
  808c50:	f800283a 	ret

00808c54 <lcd_repaint_screen>:

/* --------------------------------------------------------------------- */

static void lcd_repaint_screen(altera_avalon_lcd_16207_state* sp)
{
  808c54:	defff604 	addi	sp,sp,-40
  808c58:	dfc00915 	stw	ra,36(sp)
  808c5c:	df000815 	stw	fp,32(sp)
  808c60:	dc000715 	stw	r16,28(sp)
  808c64:	df000704 	addi	fp,sp,28
  808c68:	e13fff15 	stw	r4,-4(fp)
  /* scrollpos controls how much the lines have scrolled round.  The speed
   * each line scrolls at is controlled by its speed variable - while
   * scrolline lines will wrap at the position set by width
   */

  int scrollpos = sp->scrollpos;
  808c6c:	e0bfff17 	ldw	r2,-4(fp)
  808c70:	10800943 	ldbu	r2,37(r2)
  808c74:	10803fcc 	andi	r2,r2,255
  808c78:	1080201c 	xori	r2,r2,128
  808c7c:	10bfe004 	addi	r2,r2,-128
  808c80:	e0bffc15 	stw	r2,-16(fp)

  for (y = 0 ; y < ALT_LCD_HEIGHT ; y++)
  808c84:	e03ffe15 	stw	zero,-8(fp)
  808c88:	00006406 	br	808e1c <lcd_repaint_screen+0x1c8>
  {
    int width  = sp->line[y].width;
  808c8c:	e0bffe17 	ldw	r2,-8(fp)
  808c90:	e0ffff17 	ldw	r3,-4(fp)
  808c94:	10801924 	muli	r2,r2,100
  808c98:	10c5883a 	add	r2,r2,r3
  808c9c:	10802404 	addi	r2,r2,144
  808ca0:	10800043 	ldbu	r2,1(r2)
  808ca4:	10803fcc 	andi	r2,r2,255
  808ca8:	1080201c 	xori	r2,r2,128
  808cac:	10bfe004 	addi	r2,r2,-128
  808cb0:	e0bffb15 	stw	r2,-20(fp)
    int offset = (scrollpos * sp->line[y].speed) >> 8;
  808cb4:	e0bffe17 	ldw	r2,-8(fp)
  808cb8:	e0ffff17 	ldw	r3,-4(fp)
  808cbc:	10801924 	muli	r2,r2,100
  808cc0:	10c5883a 	add	r2,r2,r3
  808cc4:	10802404 	addi	r2,r2,144
  808cc8:	10800083 	ldbu	r2,2(r2)
  808ccc:	10c03fcc 	andi	r3,r2,255
  808cd0:	e0bffc17 	ldw	r2,-16(fp)
  808cd4:	1885383a 	mul	r2,r3,r2
  808cd8:	1005d23a 	srai	r2,r2,8
  808cdc:	e0bffa15 	stw	r2,-24(fp)
    if (offset >= width)
  808ce0:	e0fffa17 	ldw	r3,-24(fp)
  808ce4:	e0bffb17 	ldw	r2,-20(fp)
  808ce8:	18800116 	blt	r3,r2,808cf0 <lcd_repaint_screen+0x9c>
      offset = 0;
  808cec:	e03ffa15 	stw	zero,-24(fp)

    for (x = 0 ; x < ALT_LCD_WIDTH ; x++)
  808cf0:	e03ffd15 	stw	zero,-12(fp)
  808cf4:	00004306 	br	808e04 <lcd_repaint_screen+0x1b0>
    {
      char c = sp->line[y].data[(x + offset) % width];
  808cf8:	e43ffe17 	ldw	r16,-8(fp)
  808cfc:	e0fffd17 	ldw	r3,-12(fp)
  808d00:	e0bffa17 	ldw	r2,-24(fp)
  808d04:	1889883a 	add	r4,r3,r2
  808d08:	e17ffb17 	ldw	r5,-20(fp)
  808d0c:	080b3680 	call	80b368 <__modsi3>
  808d10:	1009883a 	mov	r4,r2
  808d14:	e0ffff17 	ldw	r3,-4(fp)
  808d18:	80801924 	muli	r2,r16,100
  808d1c:	10c5883a 	add	r2,r2,r3
  808d20:	1105883a 	add	r2,r2,r4
  808d24:	10801004 	addi	r2,r2,64
  808d28:	10800003 	ldbu	r2,0(r2)
  808d2c:	e0bff945 	stb	r2,-27(fp)

      /* Writing data takes 40us, so don't do it unless required */
      if (sp->line[y].visible[x] != c)
  808d30:	e0bffe17 	ldw	r2,-8(fp)
  808d34:	e13ffd17 	ldw	r4,-12(fp)
  808d38:	e0ffff17 	ldw	r3,-4(fp)
  808d3c:	10801924 	muli	r2,r2,100
  808d40:	10c5883a 	add	r2,r2,r3
  808d44:	1105883a 	add	r2,r2,r4
  808d48:	10800c04 	addi	r2,r2,48
  808d4c:	10800003 	ldbu	r2,0(r2)
  808d50:	10c03fcc 	andi	r3,r2,255
  808d54:	18c0201c 	xori	r3,r3,128
  808d58:	18ffe004 	addi	r3,r3,-128
  808d5c:	e0bff947 	ldb	r2,-27(fp)
  808d60:	18802526 	beq	r3,r2,808df8 <lcd_repaint_screen+0x1a4>
      {
        unsigned char address = x + colstart[y];
  808d64:	e0fffe17 	ldw	r3,-8(fp)
  808d68:	d0a00f04 	addi	r2,gp,-32708
  808d6c:	1885883a 	add	r2,r3,r2
  808d70:	10800003 	ldbu	r2,0(r2)
  808d74:	1007883a 	mov	r3,r2
  808d78:	e0bffd17 	ldw	r2,-12(fp)
  808d7c:	1885883a 	add	r2,r3,r2
  808d80:	e0bff905 	stb	r2,-28(fp)

        if (address != sp->address)
  808d84:	e0fff903 	ldbu	r3,-28(fp)
  808d88:	e0bfff17 	ldw	r2,-4(fp)
  808d8c:	108008c3 	ldbu	r2,35(r2)
  808d90:	10803fcc 	andi	r2,r2,255
  808d94:	1080201c 	xori	r2,r2,128
  808d98:	10bfe004 	addi	r2,r2,-128
  808d9c:	18800926 	beq	r3,r2,808dc4 <lcd_repaint_screen+0x170>
        {
          lcd_write_command(sp, LCD_CMD_WRITE_DATA | address);
  808da0:	e0fff903 	ldbu	r3,-28(fp)
  808da4:	00bfe004 	movi	r2,-128
  808da8:	1884b03a 	or	r2,r3,r2
  808dac:	11403fcc 	andi	r5,r2,255
  808db0:	e13fff17 	ldw	r4,-4(fp)
  808db4:	0808a040 	call	808a04 <lcd_write_command>
          sp->address = address;
  808db8:	e0fff903 	ldbu	r3,-28(fp)
  808dbc:	e0bfff17 	ldw	r2,-4(fp)
  808dc0:	10c008c5 	stb	r3,35(r2)
        }

        lcd_write_data(sp, c);
  808dc4:	e0bff943 	ldbu	r2,-27(fp)
  808dc8:	11403fcc 	andi	r5,r2,255
  808dcc:	e13fff17 	ldw	r4,-4(fp)
  808dd0:	0808abc0 	call	808abc <lcd_write_data>
        sp->line[y].visible[x] = c;
  808dd4:	e0bffe17 	ldw	r2,-8(fp)
  808dd8:	e13ffd17 	ldw	r4,-12(fp)
  808ddc:	e0ffff17 	ldw	r3,-4(fp)
  808de0:	10801924 	muli	r2,r2,100
  808de4:	10c5883a 	add	r2,r2,r3
  808de8:	1105883a 	add	r2,r2,r4
  808dec:	10c00c04 	addi	r3,r2,48
  808df0:	e0bff943 	ldbu	r2,-27(fp)
  808df4:	18800005 	stb	r2,0(r3)
    int width  = sp->line[y].width;
    int offset = (scrollpos * sp->line[y].speed) >> 8;
    if (offset >= width)
      offset = 0;

    for (x = 0 ; x < ALT_LCD_WIDTH ; x++)
  808df8:	e0bffd17 	ldw	r2,-12(fp)
  808dfc:	10800044 	addi	r2,r2,1
  808e00:	e0bffd15 	stw	r2,-12(fp)
  808e04:	e0bffd17 	ldw	r2,-12(fp)
  808e08:	10800410 	cmplti	r2,r2,16
  808e0c:	103fba1e 	bne	r2,zero,808cf8 <lcd_repaint_screen+0xa4>
   * scrolline lines will wrap at the position set by width
   */

  int scrollpos = sp->scrollpos;

  for (y = 0 ; y < ALT_LCD_HEIGHT ; y++)
  808e10:	e0bffe17 	ldw	r2,-8(fp)
  808e14:	10800044 	addi	r2,r2,1
  808e18:	e0bffe15 	stw	r2,-8(fp)
  808e1c:	e0bffe17 	ldw	r2,-8(fp)
  808e20:	10800090 	cmplti	r2,r2,2
  808e24:	103f991e 	bne	r2,zero,808c8c <lcd_repaint_screen+0x38>
        lcd_write_data(sp, c);
        sp->line[y].visible[x] = c;
      }
    }
  }
}
  808e28:	e037883a 	mov	sp,fp
  808e2c:	dfc00217 	ldw	ra,8(sp)
  808e30:	df000117 	ldw	fp,4(sp)
  808e34:	dc000017 	ldw	r16,0(sp)
  808e38:	dec00304 	addi	sp,sp,12
  808e3c:	f800283a 	ret

00808e40 <lcd_scroll_up>:

/* --------------------------------------------------------------------- */

static void lcd_scroll_up(altera_avalon_lcd_16207_state* sp)
{
  808e40:	defffc04 	addi	sp,sp,-16
  808e44:	dfc00315 	stw	ra,12(sp)
  808e48:	df000215 	stw	fp,8(sp)
  808e4c:	df000204 	addi	fp,sp,8
  808e50:	e13fff15 	stw	r4,-4(fp)
  int y;

  for (y = 0 ; y < ALT_LCD_HEIGHT ; y++)
  808e54:	e03ffe15 	stw	zero,-8(fp)
  808e58:	00001d06 	br	808ed0 <lcd_scroll_up+0x90>
  {
    if (y < ALT_LCD_HEIGHT-1)
  808e5c:	e0bffe17 	ldw	r2,-8(fp)
  808e60:	10800048 	cmpgei	r2,r2,1
  808e64:	10000f1e 	bne	r2,zero,808ea4 <lcd_scroll_up+0x64>
      memcpy(sp->line[y].data, sp->line[y+1].data, ALT_LCD_VIRTUAL_WIDTH);
  808e68:	e0bffe17 	ldw	r2,-8(fp)
  808e6c:	10801924 	muli	r2,r2,100
  808e70:	10c01004 	addi	r3,r2,64
  808e74:	e0bfff17 	ldw	r2,-4(fp)
  808e78:	1889883a 	add	r4,r3,r2
  808e7c:	e0bffe17 	ldw	r2,-8(fp)
  808e80:	10800044 	addi	r2,r2,1
  808e84:	10801924 	muli	r2,r2,100
  808e88:	10c01004 	addi	r3,r2,64
  808e8c:	e0bfff17 	ldw	r2,-4(fp)
  808e90:	1885883a 	add	r2,r3,r2
  808e94:	100b883a 	mov	r5,r2
  808e98:	01801404 	movi	r6,80
  808e9c:	08050d40 	call	8050d4 <memcpy>
  808ea0:	00000806 	br	808ec4 <lcd_scroll_up+0x84>
    else
      memset(sp->line[y].data, ' ', ALT_LCD_VIRTUAL_WIDTH);
  808ea4:	e0bffe17 	ldw	r2,-8(fp)
  808ea8:	10801924 	muli	r2,r2,100
  808eac:	10c01004 	addi	r3,r2,64
  808eb0:	e0bfff17 	ldw	r2,-4(fp)
  808eb4:	1889883a 	add	r4,r3,r2
  808eb8:	01400804 	movi	r5,32
  808ebc:	01801404 	movi	r6,80
  808ec0:	08066380 	call	806638 <memset>

static void lcd_scroll_up(altera_avalon_lcd_16207_state* sp)
{
  int y;

  for (y = 0 ; y < ALT_LCD_HEIGHT ; y++)
  808ec4:	e0bffe17 	ldw	r2,-8(fp)
  808ec8:	10800044 	addi	r2,r2,1
  808ecc:	e0bffe15 	stw	r2,-8(fp)
  808ed0:	e0bffe17 	ldw	r2,-8(fp)
  808ed4:	10800090 	cmplti	r2,r2,2
  808ed8:	103fe01e 	bne	r2,zero,808e5c <lcd_scroll_up+0x1c>
      memcpy(sp->line[y].data, sp->line[y+1].data, ALT_LCD_VIRTUAL_WIDTH);
    else
      memset(sp->line[y].data, ' ', ALT_LCD_VIRTUAL_WIDTH);
  }

  sp->y--;
  808edc:	e0bfff17 	ldw	r2,-4(fp)
  808ee0:	10800883 	ldbu	r2,34(r2)
  808ee4:	10bfffc4 	addi	r2,r2,-1
  808ee8:	1007883a 	mov	r3,r2
  808eec:	e0bfff17 	ldw	r2,-4(fp)
  808ef0:	10c00885 	stb	r3,34(r2)
}
  808ef4:	e037883a 	mov	sp,fp
  808ef8:	dfc00117 	ldw	ra,4(sp)
  808efc:	df000017 	ldw	fp,0(sp)
  808f00:	dec00204 	addi	sp,sp,8
  808f04:	f800283a 	ret

00808f08 <lcd_handle_escape>:

/* --------------------------------------------------------------------- */

static void lcd_handle_escape(altera_avalon_lcd_16207_state* sp, char c)
{
  808f08:	defff804 	addi	sp,sp,-32
  808f0c:	dfc00715 	stw	ra,28(sp)
  808f10:	df000615 	stw	fp,24(sp)
  808f14:	df000604 	addi	fp,sp,24
  808f18:	e13ffd15 	stw	r4,-12(fp)
  808f1c:	e17ffe05 	stb	r5,-8(fp)
  int parm1 = 0, parm2 = 0;
  808f20:	e03ffc15 	stw	zero,-16(fp)
  808f24:	e03ffb15 	stw	zero,-20(fp)

  if (sp->escape[0] == '[')
  808f28:	e0bffd17 	ldw	r2,-12(fp)
  808f2c:	10800a03 	ldbu	r2,40(r2)
  808f30:	10803fcc 	andi	r2,r2,255
  808f34:	1080201c 	xori	r2,r2,128
  808f38:	10bfe004 	addi	r2,r2,-128
  808f3c:	108016d8 	cmpnei	r2,r2,91
  808f40:	1000491e 	bne	r2,zero,809068 <lcd_handle_escape+0x160>
  {
    char * ptr = sp->escape+1;
  808f44:	e0bffd17 	ldw	r2,-12(fp)
  808f48:	10800a04 	addi	r2,r2,40
  808f4c:	10800044 	addi	r2,r2,1
  808f50:	e0bffa15 	stw	r2,-24(fp)
    while (isdigit(*ptr))
  808f54:	00000d06 	br	808f8c <lcd_handle_escape+0x84>
      parm1 = (parm1 * 10) + (*ptr++ - '0');
  808f58:	e0bffc17 	ldw	r2,-16(fp)
  808f5c:	10c002a4 	muli	r3,r2,10
  808f60:	e0bffa17 	ldw	r2,-24(fp)
  808f64:	10800003 	ldbu	r2,0(r2)
  808f68:	10803fcc 	andi	r2,r2,255
  808f6c:	1080201c 	xori	r2,r2,128
  808f70:	10bfe004 	addi	r2,r2,-128
  808f74:	1885883a 	add	r2,r3,r2
  808f78:	10bff404 	addi	r2,r2,-48
  808f7c:	e0bffc15 	stw	r2,-16(fp)
  808f80:	e0bffa17 	ldw	r2,-24(fp)
  808f84:	10800044 	addi	r2,r2,1
  808f88:	e0bffa15 	stw	r2,-24(fp)
  int parm1 = 0, parm2 = 0;

  if (sp->escape[0] == '[')
  {
    char * ptr = sp->escape+1;
    while (isdigit(*ptr))
  808f8c:	e0bffa17 	ldw	r2,-24(fp)
  808f90:	10800003 	ldbu	r2,0(r2)
  808f94:	10803fcc 	andi	r2,r2,255
  808f98:	1080201c 	xori	r2,r2,128
  808f9c:	10bfe004 	addi	r2,r2,-128
  808fa0:	1007883a 	mov	r3,r2
  808fa4:	00802074 	movhi	r2,129
  808fa8:	10b52f04 	addi	r2,r2,-11076
  808fac:	10800017 	ldw	r2,0(r2)
  808fb0:	1885883a 	add	r2,r3,r2
  808fb4:	10800003 	ldbu	r2,0(r2)
  808fb8:	10803fcc 	andi	r2,r2,255
  808fbc:	1080010c 	andi	r2,r2,4
  808fc0:	1004c03a 	cmpne	r2,r2,zero
  808fc4:	103fe41e 	bne	r2,zero,808f58 <lcd_handle_escape+0x50>
      parm1 = (parm1 * 10) + (*ptr++ - '0');

    if (*ptr == ';')
  808fc8:	e0bffa17 	ldw	r2,-24(fp)
  808fcc:	10800003 	ldbu	r2,0(r2)
  808fd0:	10803fcc 	andi	r2,r2,255
  808fd4:	1080201c 	xori	r2,r2,128
  808fd8:	10bfe004 	addi	r2,r2,-128
  808fdc:	10800ed8 	cmpnei	r2,r2,59
  808fe0:	1000231e 	bne	r2,zero,809070 <lcd_handle_escape+0x168>
    {
      ptr++;
  808fe4:	e0bffa17 	ldw	r2,-24(fp)
  808fe8:	10800044 	addi	r2,r2,1
  808fec:	e0bffa15 	stw	r2,-24(fp)
      while (isdigit(*ptr))
  808ff0:	00000d06 	br	809028 <lcd_handle_escape+0x120>
        parm2 = (parm2 * 10) + (*ptr++ - '0');
  808ff4:	e0bffb17 	ldw	r2,-20(fp)
  808ff8:	10c002a4 	muli	r3,r2,10
  808ffc:	e0bffa17 	ldw	r2,-24(fp)
  809000:	10800003 	ldbu	r2,0(r2)
  809004:	10803fcc 	andi	r2,r2,255
  809008:	1080201c 	xori	r2,r2,128
  80900c:	10bfe004 	addi	r2,r2,-128
  809010:	1885883a 	add	r2,r3,r2
  809014:	10bff404 	addi	r2,r2,-48
  809018:	e0bffb15 	stw	r2,-20(fp)
  80901c:	e0bffa17 	ldw	r2,-24(fp)
  809020:	10800044 	addi	r2,r2,1
  809024:	e0bffa15 	stw	r2,-24(fp)
      parm1 = (parm1 * 10) + (*ptr++ - '0');

    if (*ptr == ';')
    {
      ptr++;
      while (isdigit(*ptr))
  809028:	e0bffa17 	ldw	r2,-24(fp)
  80902c:	10800003 	ldbu	r2,0(r2)
  809030:	10803fcc 	andi	r2,r2,255
  809034:	1080201c 	xori	r2,r2,128
  809038:	10bfe004 	addi	r2,r2,-128
  80903c:	1007883a 	mov	r3,r2
  809040:	00802074 	movhi	r2,129
  809044:	10b52f04 	addi	r2,r2,-11076
  809048:	10800017 	ldw	r2,0(r2)
  80904c:	1885883a 	add	r2,r3,r2
  809050:	10800003 	ldbu	r2,0(r2)
  809054:	10803fcc 	andi	r2,r2,255
  809058:	1080010c 	andi	r2,r2,4
  80905c:	1004c03a 	cmpne	r2,r2,zero
  809060:	103fe41e 	bne	r2,zero,808ff4 <lcd_handle_escape+0xec>
  809064:	00000206 	br	809070 <lcd_handle_escape+0x168>
        parm2 = (parm2 * 10) + (*ptr++ - '0');
    }
  }
  else
    parm1 = -1;
  809068:	00bfffc4 	movi	r2,-1
  80906c:	e0bffc15 	stw	r2,-16(fp)

  switch (c)
  809070:	e0bffe07 	ldb	r2,-8(fp)
  809074:	e0bfff15 	stw	r2,-4(fp)
  809078:	e0ffff17 	ldw	r3,-4(fp)
  80907c:	188012a0 	cmpeqi	r2,r3,74
  809080:	10002f1e 	bne	r2,zero,809140 <lcd_handle_escape+0x238>
  809084:	e0ffff17 	ldw	r3,-4(fp)
  809088:	188012c8 	cmpgei	r2,r3,75
  80908c:	1000041e 	bne	r2,zero,8090a0 <lcd_handle_escape+0x198>
  809090:	e0ffff17 	ldw	r3,-4(fp)
  809094:	18801220 	cmpeqi	r2,r3,72
  809098:	1000081e 	bne	r2,zero,8090bc <lcd_handle_escape+0x1b4>
  80909c:	00004906 	br	8091c4 <lcd_handle_escape+0x2bc>
  8090a0:	e0ffff17 	ldw	r3,-4(fp)
  8090a4:	188012e0 	cmpeqi	r2,r3,75
  8090a8:	10002b1e 	bne	r2,zero,809158 <lcd_handle_escape+0x250>
  8090ac:	e0ffff17 	ldw	r3,-4(fp)
  8090b0:	188019a0 	cmpeqi	r2,r3,102
  8090b4:	1000011e 	bne	r2,zero,8090bc <lcd_handle_escape+0x1b4>
  8090b8:	00004206 	br	8091c4 <lcd_handle_escape+0x2bc>
  {
  case 'H': /* ESC '[' <y> ';' <x> 'H'  : Move cursor to location */
  case 'f': /* Same as above */
    if (parm2 > 0)
  8090bc:	e0bffb17 	ldw	r2,-20(fp)
  8090c0:	10800050 	cmplti	r2,r2,1
  8090c4:	1000051e 	bne	r2,zero,8090dc <lcd_handle_escape+0x1d4>
      sp->x = parm2 - 1;
  8090c8:	e0bffb17 	ldw	r2,-20(fp)
  8090cc:	10bfffc4 	addi	r2,r2,-1
  8090d0:	1007883a 	mov	r3,r2
  8090d4:	e0bffd17 	ldw	r2,-12(fp)
  8090d8:	10c00845 	stb	r3,33(r2)
    if (parm1 > 0)
  8090dc:	e0bffc17 	ldw	r2,-16(fp)
  8090e0:	10800050 	cmplti	r2,r2,1
  8090e4:	1000371e 	bne	r2,zero,8091c4 <lcd_handle_escape+0x2bc>
    {
      sp->y = parm1 - 1;
  8090e8:	e0bffc17 	ldw	r2,-16(fp)
  8090ec:	10bfffc4 	addi	r2,r2,-1
  8090f0:	1007883a 	mov	r3,r2
  8090f4:	e0bffd17 	ldw	r2,-12(fp)
  8090f8:	10c00885 	stb	r3,34(r2)
      if (sp->y > ALT_LCD_HEIGHT * 2)
  8090fc:	e0bffd17 	ldw	r2,-12(fp)
  809100:	10800883 	ldbu	r2,34(r2)
  809104:	10803fcc 	andi	r2,r2,255
  809108:	10800170 	cmpltui	r2,r2,5
  80910c:	1000061e 	bne	r2,zero,809128 <lcd_handle_escape+0x220>
        sp->y = ALT_LCD_HEIGHT * 2;
  809110:	e0fffd17 	ldw	r3,-12(fp)
  809114:	00800104 	movi	r2,4
  809118:	18800885 	stb	r2,34(r3)
      while (sp->y > ALT_LCD_HEIGHT)
  80911c:	00000206 	br	809128 <lcd_handle_escape+0x220>
        lcd_scroll_up(sp);
  809120:	e13ffd17 	ldw	r4,-12(fp)
  809124:	0808e400 	call	808e40 <lcd_scroll_up>
    if (parm1 > 0)
    {
      sp->y = parm1 - 1;
      if (sp->y > ALT_LCD_HEIGHT * 2)
        sp->y = ALT_LCD_HEIGHT * 2;
      while (sp->y > ALT_LCD_HEIGHT)
  809128:	e0bffd17 	ldw	r2,-12(fp)
  80912c:	10800883 	ldbu	r2,34(r2)
  809130:	10803fcc 	andi	r2,r2,255
  809134:	108000e8 	cmpgeui	r2,r2,3
  809138:	103ff91e 	bne	r2,zero,809120 <lcd_handle_escape+0x218>
        lcd_scroll_up(sp);
    }
    break;
  80913c:	00002106 	br	8091c4 <lcd_handle_escape+0x2bc>
    /*   ESC J      is clear to beginning of line    [unimplemented]
     *   ESC [ 0 J  is clear to bottom of screen     [unimplemented]
     *   ESC [ 1 J  is clear to beginning of screen  [unimplemented]
     *   ESC [ 2 J  is clear screen
     */
    if (parm1 == 2)
  809140:	e0bffc17 	ldw	r2,-16(fp)
  809144:	10800098 	cmpnei	r2,r2,2
  809148:	10001e1e 	bne	r2,zero,8091c4 <lcd_handle_escape+0x2bc>
      lcd_clear_screen(sp);
  80914c:	e13ffd17 	ldw	r4,-12(fp)
  809150:	0808b900 	call	808b90 <lcd_clear_screen>
    break;
  809154:	00001b06 	br	8091c4 <lcd_handle_escape+0x2bc>
    /*   ESC K      is clear to end of line
     *   ESC [ 0 K  is clear to end of line
     *   ESC [ 1 K  is clear to beginning of line    [unimplemented]
     *   ESC [ 2 K  is clear line                    [unimplemented]
     */
    if (parm1 < 1)
  809158:	e0bffc17 	ldw	r2,-16(fp)
  80915c:	10800048 	cmpgei	r2,r2,1
  809160:	1000181e 	bne	r2,zero,8091c4 <lcd_handle_escape+0x2bc>
    {
      if (sp->x < ALT_LCD_VIRTUAL_WIDTH)
  809164:	e0bffd17 	ldw	r2,-12(fp)
  809168:	10800843 	ldbu	r2,33(r2)
  80916c:	10803fcc 	andi	r2,r2,255
  809170:	10801428 	cmpgeui	r2,r2,80
  809174:	1000131e 	bne	r2,zero,8091c4 <lcd_handle_escape+0x2bc>
        memset(sp->line[sp->y].data + sp->x, ' ', ALT_LCD_VIRTUAL_WIDTH - sp->x);
  809178:	e0bffd17 	ldw	r2,-12(fp)
  80917c:	10800883 	ldbu	r2,34(r2)
  809180:	10803fcc 	andi	r2,r2,255
  809184:	10801924 	muli	r2,r2,100
  809188:	10c01004 	addi	r3,r2,64
  80918c:	e0bffd17 	ldw	r2,-12(fp)
  809190:	1887883a 	add	r3,r3,r2
  809194:	e0bffd17 	ldw	r2,-12(fp)
  809198:	10800843 	ldbu	r2,33(r2)
  80919c:	10803fcc 	andi	r2,r2,255
  8091a0:	1889883a 	add	r4,r3,r2
  8091a4:	e0bffd17 	ldw	r2,-12(fp)
  8091a8:	10800843 	ldbu	r2,33(r2)
  8091ac:	10c03fcc 	andi	r3,r2,255
  8091b0:	00801404 	movi	r2,80
  8091b4:	10c5c83a 	sub	r2,r2,r3
  8091b8:	100d883a 	mov	r6,r2
  8091bc:	01400804 	movi	r5,32
  8091c0:	08066380 	call	806638 <memset>
    }
    break;
  }
}
  8091c4:	e037883a 	mov	sp,fp
  8091c8:	dfc00117 	ldw	ra,4(sp)
  8091cc:	df000017 	ldw	fp,0(sp)
  8091d0:	dec00204 	addi	sp,sp,8
  8091d4:	f800283a 	ret

008091d8 <altera_avalon_lcd_16207_write>:

/* --------------------------------------------------------------------- */

int altera_avalon_lcd_16207_write(altera_avalon_lcd_16207_state* sp, 
  const char* ptr, int len, int flags)
{
  8091d8:	defff204 	addi	sp,sp,-56
  8091dc:	dfc00d15 	stw	ra,52(sp)
  8091e0:	df000c15 	stw	fp,48(sp)
  8091e4:	dc000b15 	stw	r16,44(sp)
  8091e8:	df000b04 	addi	fp,sp,44
  8091ec:	e13ffc15 	stw	r4,-16(fp)
  8091f0:	e17ffd15 	stw	r5,-12(fp)
  8091f4:	e1bffe15 	stw	r6,-8(fp)
  8091f8:	e1ffff15 	stw	r7,-4(fp)
  const char* end = ptr + len;
  8091fc:	e0bffe17 	ldw	r2,-8(fp)
  809200:	1007883a 	mov	r3,r2
  809204:	e0bffd17 	ldw	r2,-12(fp)
  809208:	10c5883a 	add	r2,r2,r3
  80920c:	e0bffb15 	stw	r2,-20(fp)

  ALT_SEM_PEND (sp->write_lock, 0);

  /* Tell the routine which is called off the timer interrupt that the
   * foreground routines are active so it must not repaint the display. */
  sp->active = 1;
  809210:	e0fffc17 	ldw	r3,-16(fp)
  809214:	00800044 	movi	r2,1
  809218:	188009c5 	stb	r2,39(r3)

  for ( ; ptr < end ; ptr++)
  80921c:	0000a206 	br	8094a8 <altera_avalon_lcd_16207_write+0x2d0>
  {
    char c = *ptr;
  809220:	e0bffd17 	ldw	r2,-12(fp)
  809224:	10800003 	ldbu	r2,0(r2)
  809228:	e0bff805 	stb	r2,-32(fp)

    if (sp->esccount >= 0)
  80922c:	e0bffc17 	ldw	r2,-16(fp)
  809230:	10800903 	ldbu	r2,36(r2)
  809234:	10803fcc 	andi	r2,r2,255
  809238:	1080201c 	xori	r2,r2,128
  80923c:	10bfe004 	addi	r2,r2,-128
  809240:	1004803a 	cmplt	r2,r2,zero
  809244:	10003b1e 	bne	r2,zero,809334 <altera_avalon_lcd_16207_write+0x15c>
    {
      unsigned int esccount = sp->esccount;
  809248:	e0bffc17 	ldw	r2,-16(fp)
  80924c:	10800903 	ldbu	r2,36(r2)
  809250:	10803fcc 	andi	r2,r2,255
  809254:	1080201c 	xori	r2,r2,128
  809258:	10bfe004 	addi	r2,r2,-128
  80925c:	e0bff715 	stw	r2,-36(fp)

      /* Single character escape sequences can end with any character
       * Multi character escape sequences start with '[' and contain
       * digits and semicolons before terminating
       */
      if ((esccount == 0 && c != '[') ||
  809260:	e0bff717 	ldw	r2,-36(fp)
  809264:	1004c03a 	cmpne	r2,r2,zero
  809268:	1000031e 	bne	r2,zero,809278 <altera_avalon_lcd_16207_write+0xa0>
  80926c:	e0bff807 	ldb	r2,-32(fp)
  809270:	108016d8 	cmpnei	r2,r2,91
  809274:	1000111e 	bne	r2,zero,8092bc <altera_avalon_lcd_16207_write+0xe4>
  809278:	e0bff717 	ldw	r2,-36(fp)
  80927c:	1005003a 	cmpeq	r2,r2,zero
  809280:	10001a1e 	bne	r2,zero,8092ec <altera_avalon_lcd_16207_write+0x114>
  809284:	e0bff807 	ldb	r2,-32(fp)
  809288:	1007883a 	mov	r3,r2
  80928c:	00802074 	movhi	r2,129
  809290:	10b52f04 	addi	r2,r2,-11076
  809294:	10800017 	ldw	r2,0(r2)
  809298:	1885883a 	add	r2,r3,r2
  80929c:	10800003 	ldbu	r2,0(r2)
  8092a0:	10803fcc 	andi	r2,r2,255
  8092a4:	1080010c 	andi	r2,r2,4
  8092a8:	1004c03a 	cmpne	r2,r2,zero
  8092ac:	10000f1e 	bne	r2,zero,8092ec <altera_avalon_lcd_16207_write+0x114>
  8092b0:	e0bff807 	ldb	r2,-32(fp)
  8092b4:	10800ee0 	cmpeqi	r2,r2,59
  8092b8:	10000c1e 	bne	r2,zero,8092ec <altera_avalon_lcd_16207_write+0x114>
          (esccount > 0 && !isdigit(c) && c != ';'))
      {
        sp->escape[esccount] = 0;
  8092bc:	e0fff717 	ldw	r3,-36(fp)
  8092c0:	e0bffc17 	ldw	r2,-16(fp)
  8092c4:	1885883a 	add	r2,r3,r2
  8092c8:	10800a04 	addi	r2,r2,40
  8092cc:	10000005 	stb	zero,0(r2)

        lcd_handle_escape(sp, c);
  8092d0:	e17ff807 	ldb	r5,-32(fp)
  8092d4:	e13ffc17 	ldw	r4,-16(fp)
  8092d8:	0808f080 	call	808f08 <lcd_handle_escape>

        sp->esccount = -1;
  8092dc:	e0fffc17 	ldw	r3,-16(fp)
  8092e0:	00bfffc4 	movi	r2,-1
  8092e4:	18800905 	stb	r2,36(r3)

      /* Single character escape sequences can end with any character
       * Multi character escape sequences start with '[' and contain
       * digits and semicolons before terminating
       */
      if ((esccount == 0 && c != '[') ||
  8092e8:	00006c06 	br	80949c <altera_avalon_lcd_16207_write+0x2c4>

        lcd_handle_escape(sp, c);

        sp->esccount = -1;
      }
      else if (sp->esccount < sizeof(sp->escape)-1)
  8092ec:	e0bffc17 	ldw	r2,-16(fp)
  8092f0:	10800903 	ldbu	r2,36(r2)
  8092f4:	10803fcc 	andi	r2,r2,255
  8092f8:	108001e8 	cmpgeui	r2,r2,7
  8092fc:	1000671e 	bne	r2,zero,80949c <altera_avalon_lcd_16207_write+0x2c4>
      {
        sp->escape[esccount] = c;
  809300:	e0fff717 	ldw	r3,-36(fp)
  809304:	e0bffc17 	ldw	r2,-16(fp)
  809308:	1885883a 	add	r2,r3,r2
  80930c:	10c00a04 	addi	r3,r2,40
  809310:	e0bff803 	ldbu	r2,-32(fp)
  809314:	18800005 	stb	r2,0(r3)
        sp->esccount++;
  809318:	e0bffc17 	ldw	r2,-16(fp)
  80931c:	10800903 	ldbu	r2,36(r2)
  809320:	10800044 	addi	r2,r2,1
  809324:	1007883a 	mov	r3,r2
  809328:	e0bffc17 	ldw	r2,-16(fp)
  80932c:	10c00905 	stb	r3,36(r2)
  809330:	00005a06 	br	80949c <altera_avalon_lcd_16207_write+0x2c4>
      }
    }
    else if (c == 27) /* ESC */
  809334:	e0bff807 	ldb	r2,-32(fp)
  809338:	108006d8 	cmpnei	r2,r2,27
  80933c:	1000031e 	bne	r2,zero,80934c <altera_avalon_lcd_16207_write+0x174>
    {
      sp->esccount = 0;
  809340:	e0bffc17 	ldw	r2,-16(fp)
  809344:	10000905 	stb	zero,36(r2)
  809348:	00005406 	br	80949c <altera_avalon_lcd_16207_write+0x2c4>
    }
    else if (c == '\r')
  80934c:	e0bff807 	ldb	r2,-32(fp)
  809350:	10800358 	cmpnei	r2,r2,13
  809354:	1000031e 	bne	r2,zero,809364 <altera_avalon_lcd_16207_write+0x18c>
    {
      sp->x = 0;
  809358:	e0bffc17 	ldw	r2,-16(fp)
  80935c:	10000845 	stb	zero,33(r2)
  809360:	00004e06 	br	80949c <altera_avalon_lcd_16207_write+0x2c4>
    }
    else if (c == '\n')
  809364:	e0bff807 	ldb	r2,-32(fp)
  809368:	10800298 	cmpnei	r2,r2,10
  80936c:	1000101e 	bne	r2,zero,8093b0 <altera_avalon_lcd_16207_write+0x1d8>
    {
      sp->x = 0;
  809370:	e0bffc17 	ldw	r2,-16(fp)
  809374:	10000845 	stb	zero,33(r2)
      sp->y++;
  809378:	e0bffc17 	ldw	r2,-16(fp)
  80937c:	10800883 	ldbu	r2,34(r2)
  809380:	10800044 	addi	r2,r2,1
  809384:	1007883a 	mov	r3,r2
  809388:	e0bffc17 	ldw	r2,-16(fp)
  80938c:	10c00885 	stb	r3,34(r2)

      /* Let the cursor sit at X=0, Y=HEIGHT without scrolling so the user
       * can print two lines of data without losing one.
       */
      if (sp->y > ALT_LCD_HEIGHT)
  809390:	e0bffc17 	ldw	r2,-16(fp)
  809394:	10800883 	ldbu	r2,34(r2)
  809398:	10803fcc 	andi	r2,r2,255
  80939c:	108000f0 	cmpltui	r2,r2,3
  8093a0:	10003e1e 	bne	r2,zero,80949c <altera_avalon_lcd_16207_write+0x2c4>
        lcd_scroll_up(sp);
  8093a4:	e13ffc17 	ldw	r4,-16(fp)
  8093a8:	0808e400 	call	808e40 <lcd_scroll_up>
  8093ac:	00003b06 	br	80949c <altera_avalon_lcd_16207_write+0x2c4>
    }
    else if (c == '\b')
  8093b0:	e0bff807 	ldb	r2,-32(fp)
  8093b4:	10800218 	cmpnei	r2,r2,8
  8093b8:	10000c1e 	bne	r2,zero,8093ec <altera_avalon_lcd_16207_write+0x214>
    {
      if (sp->x > 0)
  8093bc:	e0bffc17 	ldw	r2,-16(fp)
  8093c0:	10800843 	ldbu	r2,33(r2)
  8093c4:	10803fcc 	andi	r2,r2,255
  8093c8:	1005003a 	cmpeq	r2,r2,zero
  8093cc:	1000331e 	bne	r2,zero,80949c <altera_avalon_lcd_16207_write+0x2c4>
        sp->x--;
  8093d0:	e0bffc17 	ldw	r2,-16(fp)
  8093d4:	10800843 	ldbu	r2,33(r2)
  8093d8:	10bfffc4 	addi	r2,r2,-1
  8093dc:	1007883a 	mov	r3,r2
  8093e0:	e0bffc17 	ldw	r2,-16(fp)
  8093e4:	10c00845 	stb	r3,33(r2)
  8093e8:	00002c06 	br	80949c <altera_avalon_lcd_16207_write+0x2c4>
    }
    else if (isprint(c))
  8093ec:	e0bff807 	ldb	r2,-32(fp)
  8093f0:	1007883a 	mov	r3,r2
  8093f4:	00802074 	movhi	r2,129
  8093f8:	10b52f04 	addi	r2,r2,-11076
  8093fc:	10800017 	ldw	r2,0(r2)
  809400:	1885883a 	add	r2,r3,r2
  809404:	10800003 	ldbu	r2,0(r2)
  809408:	10803fcc 	andi	r2,r2,255
  80940c:	1080201c 	xori	r2,r2,128
  809410:	10bfe004 	addi	r2,r2,-128
  809414:	108025cc 	andi	r2,r2,151
  809418:	1005003a 	cmpeq	r2,r2,zero
  80941c:	10001f1e 	bne	r2,zero,80949c <altera_avalon_lcd_16207_write+0x2c4>
    {
      /* If we didn't scroll on the last linefeed then we might need to do
       * it now. */
      if (sp->y >= ALT_LCD_HEIGHT)
  809420:	e0bffc17 	ldw	r2,-16(fp)
  809424:	10800883 	ldbu	r2,34(r2)
  809428:	10803fcc 	andi	r2,r2,255
  80942c:	108000b0 	cmpltui	r2,r2,2
  809430:	1000021e 	bne	r2,zero,80943c <altera_avalon_lcd_16207_write+0x264>
        lcd_scroll_up(sp);
  809434:	e13ffc17 	ldw	r4,-16(fp)
  809438:	0808e400 	call	808e40 <lcd_scroll_up>

      if (sp->x < ALT_LCD_VIRTUAL_WIDTH)
  80943c:	e0bffc17 	ldw	r2,-16(fp)
  809440:	10800843 	ldbu	r2,33(r2)
  809444:	10803fcc 	andi	r2,r2,255
  809448:	10801428 	cmpgeui	r2,r2,80
  80944c:	10000d1e 	bne	r2,zero,809484 <altera_avalon_lcd_16207_write+0x2ac>
        sp->line[sp->y].data[sp->x] = c;
  809450:	e0bffc17 	ldw	r2,-16(fp)
  809454:	10800883 	ldbu	r2,34(r2)
  809458:	11003fcc 	andi	r4,r2,255
  80945c:	e0bffc17 	ldw	r2,-16(fp)
  809460:	10800843 	ldbu	r2,33(r2)
  809464:	11403fcc 	andi	r5,r2,255
  809468:	e0fffc17 	ldw	r3,-16(fp)
  80946c:	20801924 	muli	r2,r4,100
  809470:	10c5883a 	add	r2,r2,r3
  809474:	1145883a 	add	r2,r2,r5
  809478:	10c01004 	addi	r3,r2,64
  80947c:	e0bff803 	ldbu	r2,-32(fp)
  809480:	18800005 	stb	r2,0(r3)

      sp->x++;
  809484:	e0bffc17 	ldw	r2,-16(fp)
  809488:	10800843 	ldbu	r2,33(r2)
  80948c:	10800044 	addi	r2,r2,1
  809490:	1007883a 	mov	r3,r2
  809494:	e0bffc17 	ldw	r2,-16(fp)
  809498:	10c00845 	stb	r3,33(r2)

  /* Tell the routine which is called off the timer interrupt that the
   * foreground routines are active so it must not repaint the display. */
  sp->active = 1;

  for ( ; ptr < end ; ptr++)
  80949c:	e0bffd17 	ldw	r2,-12(fp)
  8094a0:	10800044 	addi	r2,r2,1
  8094a4:	e0bffd15 	stw	r2,-12(fp)
  8094a8:	e0fffd17 	ldw	r3,-12(fp)
  8094ac:	e0bffb17 	ldw	r2,-20(fp)
  8094b0:	18bf5b36 	bltu	r3,r2,809220 <altera_avalon_lcd_16207_write+0x48>
      sp->x++;
    }
  }

  /* Recalculate the scrolling parameters */
  widthmax = ALT_LCD_WIDTH;
  8094b4:	00800404 	movi	r2,16
  8094b8:	e0bff915 	stw	r2,-28(fp)
  for (y = 0 ; y < ALT_LCD_HEIGHT ; y++)
  8094bc:	e03ffa15 	stw	zero,-24(fp)
  8094c0:	00003606 	br	80959c <altera_avalon_lcd_16207_write+0x3c4>
  {
    int width;
    for (width = ALT_LCD_VIRTUAL_WIDTH ; width > 0 ; width--)
  8094c4:	00801404 	movi	r2,80
  8094c8:	e0bff615 	stw	r2,-40(fp)
  8094cc:	00001106 	br	809514 <altera_avalon_lcd_16207_write+0x33c>
      if (sp->line[y].data[width-1] != ' ')
  8094d0:	e13ffa17 	ldw	r4,-24(fp)
  8094d4:	e0bff617 	ldw	r2,-40(fp)
  8094d8:	117fffc4 	addi	r5,r2,-1
  8094dc:	e0fffc17 	ldw	r3,-16(fp)
  8094e0:	20801924 	muli	r2,r4,100
  8094e4:	10c5883a 	add	r2,r2,r3
  8094e8:	1145883a 	add	r2,r2,r5
  8094ec:	10801004 	addi	r2,r2,64
  8094f0:	10800003 	ldbu	r2,0(r2)
  8094f4:	10803fcc 	andi	r2,r2,255
  8094f8:	1080201c 	xori	r2,r2,128
  8094fc:	10bfe004 	addi	r2,r2,-128
  809500:	10800818 	cmpnei	r2,r2,32
  809504:	1000061e 	bne	r2,zero,809520 <altera_avalon_lcd_16207_write+0x348>
  /* Recalculate the scrolling parameters */
  widthmax = ALT_LCD_WIDTH;
  for (y = 0 ; y < ALT_LCD_HEIGHT ; y++)
  {
    int width;
    for (width = ALT_LCD_VIRTUAL_WIDTH ; width > 0 ; width--)
  809508:	e0bff617 	ldw	r2,-40(fp)
  80950c:	10bfffc4 	addi	r2,r2,-1
  809510:	e0bff615 	stw	r2,-40(fp)
  809514:	e0bff617 	ldw	r2,-40(fp)
  809518:	10800048 	cmpgei	r2,r2,1
  80951c:	103fec1e 	bne	r2,zero,8094d0 <altera_avalon_lcd_16207_write+0x2f8>

    /* The minimum width is the size of the LCD panel.  If the real width
     * is long enough to require scrolling then add an extra space so the
     * end of the message doesn't run into the beginning of it.
     */
    if (width <= ALT_LCD_WIDTH)
  809520:	e0bff617 	ldw	r2,-40(fp)
  809524:	10800448 	cmpgei	r2,r2,17
  809528:	1000031e 	bne	r2,zero,809538 <altera_avalon_lcd_16207_write+0x360>
      width = ALT_LCD_WIDTH;
  80952c:	00800404 	movi	r2,16
  809530:	e0bff615 	stw	r2,-40(fp)
  809534:	00000306 	br	809544 <altera_avalon_lcd_16207_write+0x36c>
    else
      width++;
  809538:	e0bff617 	ldw	r2,-40(fp)
  80953c:	10800044 	addi	r2,r2,1
  809540:	e0bff615 	stw	r2,-40(fp)

    sp->line[y].width = width;
  809544:	e13ffa17 	ldw	r4,-24(fp)
  809548:	e0bff617 	ldw	r2,-40(fp)
  80954c:	100b883a 	mov	r5,r2
  809550:	e0fffc17 	ldw	r3,-16(fp)
  809554:	20801924 	muli	r2,r4,100
  809558:	10c5883a 	add	r2,r2,r3
  80955c:	10802404 	addi	r2,r2,144
  809560:	11400045 	stb	r5,1(r2)
    if (widthmax < width)
  809564:	e0fff917 	ldw	r3,-28(fp)
  809568:	e0bff617 	ldw	r2,-40(fp)
  80956c:	1880020e 	bge	r3,r2,809578 <altera_avalon_lcd_16207_write+0x3a0>
      widthmax = width;
  809570:	e0bff617 	ldw	r2,-40(fp)
  809574:	e0bff915 	stw	r2,-28(fp)
    sp->line[y].speed = 0; /* By default lines don't scroll */
  809578:	e0bffa17 	ldw	r2,-24(fp)
  80957c:	e0fffc17 	ldw	r3,-16(fp)
  809580:	10801924 	muli	r2,r2,100
  809584:	10c5883a 	add	r2,r2,r3
  809588:	10802404 	addi	r2,r2,144
  80958c:	10000085 	stb	zero,2(r2)
    }
  }

  /* Recalculate the scrolling parameters */
  widthmax = ALT_LCD_WIDTH;
  for (y = 0 ; y < ALT_LCD_HEIGHT ; y++)
  809590:	e0bffa17 	ldw	r2,-24(fp)
  809594:	10800044 	addi	r2,r2,1
  809598:	e0bffa15 	stw	r2,-24(fp)
  80959c:	e0bffa17 	ldw	r2,-24(fp)
  8095a0:	10800090 	cmplti	r2,r2,2
  8095a4:	103fc71e 	bne	r2,zero,8094c4 <altera_avalon_lcd_16207_write+0x2ec>
    if (widthmax < width)
      widthmax = width;
    sp->line[y].speed = 0; /* By default lines don't scroll */
  }

  if (widthmax <= ALT_LCD_WIDTH)
  8095a8:	e0bff917 	ldw	r2,-28(fp)
  8095ac:	10800448 	cmpgei	r2,r2,17
  8095b0:	1000031e 	bne	r2,zero,8095c0 <altera_avalon_lcd_16207_write+0x3e8>
    sp->scrollmax = 0;
  8095b4:	e0bffc17 	ldw	r2,-16(fp)
  8095b8:	10000985 	stb	zero,38(r2)
  8095bc:	00002d06 	br	809674 <altera_avalon_lcd_16207_write+0x49c>
  else
  {
    widthmax *= 2;
  8095c0:	e0bff917 	ldw	r2,-28(fp)
  8095c4:	1085883a 	add	r2,r2,r2
  8095c8:	e0bff915 	stw	r2,-28(fp)
    sp->scrollmax = widthmax;
  8095cc:	e0bff917 	ldw	r2,-28(fp)
  8095d0:	1007883a 	mov	r3,r2
  8095d4:	e0bffc17 	ldw	r2,-16(fp)
  8095d8:	10c00985 	stb	r3,38(r2)

    /* Now calculate how fast each of the other lines should go */
    for (y = 0 ; y < ALT_LCD_HEIGHT ; y++)
  8095dc:	e03ffa15 	stw	zero,-24(fp)
  8095e0:	00002106 	br	809668 <altera_avalon_lcd_16207_write+0x490>
      if (sp->line[y].width > ALT_LCD_WIDTH)
  8095e4:	e0bffa17 	ldw	r2,-24(fp)
  8095e8:	e0fffc17 	ldw	r3,-16(fp)
  8095ec:	10801924 	muli	r2,r2,100
  8095f0:	10c5883a 	add	r2,r2,r3
  8095f4:	10802404 	addi	r2,r2,144
  8095f8:	10800043 	ldbu	r2,1(r2)
  8095fc:	10803fcc 	andi	r2,r2,255
  809600:	1080201c 	xori	r2,r2,128
  809604:	10bfe004 	addi	r2,r2,-128
  809608:	10800450 	cmplti	r2,r2,17
  80960c:	1000131e 	bne	r2,zero,80965c <altera_avalon_lcd_16207_write+0x484>
         */
#if 1
        /* This option makes all the lines scroll round at different speeds
         * which are chosen so that all the scrolls finish at the same time.
         */
        sp->line[y].speed = 256 * sp->line[y].width / widthmax;
  809610:	e43ffa17 	ldw	r16,-24(fp)
  809614:	e0bffa17 	ldw	r2,-24(fp)
  809618:	e0fffc17 	ldw	r3,-16(fp)
  80961c:	10801924 	muli	r2,r2,100
  809620:	10c5883a 	add	r2,r2,r3
  809624:	10802404 	addi	r2,r2,144
  809628:	10800043 	ldbu	r2,1(r2)
  80962c:	10803fcc 	andi	r2,r2,255
  809630:	1080201c 	xori	r2,r2,128
  809634:	10bfe004 	addi	r2,r2,-128
  809638:	1008923a 	slli	r4,r2,8
  80963c:	e17ff917 	ldw	r5,-28(fp)
  809640:	080b3080 	call	80b308 <__divsi3>
  809644:	1009883a 	mov	r4,r2
  809648:	e0fffc17 	ldw	r3,-16(fp)
  80964c:	80801924 	muli	r2,r16,100
  809650:	10c5883a 	add	r2,r2,r3
  809654:	10802404 	addi	r2,r2,144
  809658:	11000085 	stb	r4,2(r2)
  {
    widthmax *= 2;
    sp->scrollmax = widthmax;

    /* Now calculate how fast each of the other lines should go */
    for (y = 0 ; y < ALT_LCD_HEIGHT ; y++)
  80965c:	e0bffa17 	ldw	r2,-24(fp)
  809660:	10800044 	addi	r2,r2,1
  809664:	e0bffa15 	stw	r2,-24(fp)
  809668:	e0bffa17 	ldw	r2,-24(fp)
  80966c:	10800090 	cmplti	r2,r2,2
  809670:	103fdc1e 	bne	r2,zero,8095e4 <altera_avalon_lcd_16207_write+0x40c>
   * (because active was set when the timer interrupt occurred).  If there
   * has been a missed repaint then paint again.  And again.  etc.
   */
  for ( ; ; )
  {
    int old_scrollpos = sp->scrollpos;
  809674:	e0bffc17 	ldw	r2,-16(fp)
  809678:	10800943 	ldbu	r2,37(r2)
  80967c:	10803fcc 	andi	r2,r2,255
  809680:	1080201c 	xori	r2,r2,128
  809684:	10bfe004 	addi	r2,r2,-128
  809688:	e0bff515 	stw	r2,-44(fp)

    lcd_repaint_screen(sp);
  80968c:	e13ffc17 	ldw	r4,-16(fp)
  809690:	0808c540 	call	808c54 <lcd_repaint_screen>

    /* Let the timer routines repaint the display again */
    sp->active = 0;
  809694:	e0bffc17 	ldw	r2,-16(fp)
  809698:	100009c5 	stb	zero,39(r2)

    /* Have the timer routines tried to scroll while we were painting?
     * If not then we can exit */
    if (sp->scrollpos == old_scrollpos)
  80969c:	e0bffc17 	ldw	r2,-16(fp)
  8096a0:	10800943 	ldbu	r2,37(r2)
  8096a4:	10c03fcc 	andi	r3,r2,255
  8096a8:	18c0201c 	xori	r3,r3,128
  8096ac:	18ffe004 	addi	r3,r3,-128
  8096b0:	e0bff517 	ldw	r2,-44(fp)
  8096b4:	18800426 	beq	r3,r2,8096c8 <altera_avalon_lcd_16207_write+0x4f0>
      break;

    /* We need to repaint again since the display scrolled while we were
     * painting last time */
    sp->active = 1;
  8096b8:	e0fffc17 	ldw	r3,-16(fp)
  8096bc:	00800044 	movi	r2,1
  8096c0:	188009c5 	stb	r2,39(r3)
  }
  8096c4:	003feb06 	br	809674 <altera_avalon_lcd_16207_write+0x49c>
   * semaphore so that other threads can access the buffer.
   */

  ALT_SEM_POST (sp->write_lock);

  return len;
  8096c8:	e0bffe17 	ldw	r2,-8(fp)
}
  8096cc:	e037883a 	mov	sp,fp
  8096d0:	dfc00217 	ldw	ra,8(sp)
  8096d4:	df000117 	ldw	fp,4(sp)
  8096d8:	dc000017 	ldw	r16,0(sp)
  8096dc:	dec00304 	addi	sp,sp,12
  8096e0:	f800283a 	ret

008096e4 <alt_lcd_16207_timeout>:
/*
 * Timeout routine is called every second
 */

static alt_u32 alt_lcd_16207_timeout(void* context) 
{
  8096e4:	defffc04 	addi	sp,sp,-16
  8096e8:	dfc00315 	stw	ra,12(sp)
  8096ec:	df000215 	stw	fp,8(sp)
  8096f0:	df000204 	addi	fp,sp,8
  8096f4:	e13fff15 	stw	r4,-4(fp)
  altera_avalon_lcd_16207_state* sp = (altera_avalon_lcd_16207_state*)context;
  8096f8:	e0bfff17 	ldw	r2,-4(fp)
  8096fc:	e0bffe15 	stw	r2,-8(fp)

  /* Update the scrolling position */
  if (sp->scrollpos + 1 >= sp->scrollmax)
  809700:	e0bffe17 	ldw	r2,-8(fp)
  809704:	10800943 	ldbu	r2,37(r2)
  809708:	10803fcc 	andi	r2,r2,255
  80970c:	1080201c 	xori	r2,r2,128
  809710:	10bfe004 	addi	r2,r2,-128
  809714:	10c00044 	addi	r3,r2,1
  809718:	e0bffe17 	ldw	r2,-8(fp)
  80971c:	10800983 	ldbu	r2,38(r2)
  809720:	10803fcc 	andi	r2,r2,255
  809724:	1080201c 	xori	r2,r2,128
  809728:	10bfe004 	addi	r2,r2,-128
  80972c:	18800316 	blt	r3,r2,80973c <alt_lcd_16207_timeout+0x58>
    sp->scrollpos = 0;
  809730:	e0bffe17 	ldw	r2,-8(fp)
  809734:	10000945 	stb	zero,37(r2)
  809738:	00000606 	br	809754 <alt_lcd_16207_timeout+0x70>
  else
    sp->scrollpos = sp->scrollpos + 1;
  80973c:	e0bffe17 	ldw	r2,-8(fp)
  809740:	10800943 	ldbu	r2,37(r2)
  809744:	10800044 	addi	r2,r2,1
  809748:	1007883a 	mov	r3,r2
  80974c:	e0bffe17 	ldw	r2,-8(fp)
  809750:	10c00945 	stb	r3,37(r2)

  /* Repaint the panel unless the foreground will do it again soon */
  if (sp->scrollmax > 0 && !sp->active)
  809754:	e0bffe17 	ldw	r2,-8(fp)
  809758:	10800983 	ldbu	r2,38(r2)
  80975c:	10803fcc 	andi	r2,r2,255
  809760:	1080201c 	xori	r2,r2,128
  809764:	10bfe004 	addi	r2,r2,-128
  809768:	10800050 	cmplti	r2,r2,1
  80976c:	1000091e 	bne	r2,zero,809794 <alt_lcd_16207_timeout+0xb0>
  809770:	e0bffe17 	ldw	r2,-8(fp)
  809774:	108009c3 	ldbu	r2,39(r2)
  809778:	10803fcc 	andi	r2,r2,255
  80977c:	1080201c 	xori	r2,r2,128
  809780:	10bfe004 	addi	r2,r2,-128
  809784:	1004c03a 	cmpne	r2,r2,zero
  809788:	1000021e 	bne	r2,zero,809794 <alt_lcd_16207_timeout+0xb0>
    lcd_repaint_screen(sp);
  80978c:	e13ffe17 	ldw	r4,-8(fp)
  809790:	0808c540 	call	808c54 <lcd_repaint_screen>

  return sp->period;
  809794:	e0bffe17 	ldw	r2,-8(fp)
  809798:	10800717 	ldw	r2,28(r2)
}
  80979c:	e037883a 	mov	sp,fp
  8097a0:	dfc00117 	ldw	ra,4(sp)
  8097a4:	df000017 	ldw	fp,0(sp)
  8097a8:	dec00204 	addi	sp,sp,8
  8097ac:	f800283a 	ret

008097b0 <altera_avalon_lcd_16207_init>:

/*
 * Called at boot time to initialise the LCD driver
 */
void altera_avalon_lcd_16207_init(altera_avalon_lcd_16207_state* sp)
{
  8097b0:	defffc04 	addi	sp,sp,-16
  8097b4:	dfc00315 	stw	ra,12(sp)
  8097b8:	df000215 	stw	fp,8(sp)
  8097bc:	df000204 	addi	fp,sp,8
  8097c0:	e13fff15 	stw	r4,-4(fp)
  unsigned int base = sp->base;
  8097c4:	e0bfff17 	ldw	r2,-4(fp)
  8097c8:	10800017 	ldw	r2,0(r2)
  8097cc:	e0bffe15 	stw	r2,-8(fp)

  /* Mark the device as functional */
  sp->broken = 0;
  8097d0:	e0bfff17 	ldw	r2,-4(fp)
  8097d4:	10000805 	stb	zero,32(r2)
   * the BUSY bit in the status register doesn't work until the display
   * has been reset three times.
   */

  /* Wait for 15 ms then reset */
  usleep(15000);
  8097d8:	010ea604 	movi	r4,15000
  8097dc:	080acb80 	call	80acb8 <usleep>
  IOWR_ALTERA_AVALON_LCD_16207_COMMAND(base, LCD_CMD_FUNCTION_SET | LCD_CMD_8BIT);
  8097e0:	e0bffe17 	ldw	r2,-8(fp)
  8097e4:	1007883a 	mov	r3,r2
  8097e8:	00800c04 	movi	r2,48
  8097ec:	18800035 	stwio	r2,0(r3)

  /* Wait for another 4.1ms and reset again */
  usleep(4100);  
  8097f0:	01040104 	movi	r4,4100
  8097f4:	080acb80 	call	80acb8 <usleep>
  IOWR_ALTERA_AVALON_LCD_16207_COMMAND(base, LCD_CMD_FUNCTION_SET | LCD_CMD_8BIT);
  8097f8:	e0bffe17 	ldw	r2,-8(fp)
  8097fc:	1007883a 	mov	r3,r2
  809800:	00800c04 	movi	r2,48
  809804:	18800035 	stwio	r2,0(r3)

  /* Wait a further 1 ms and reset a third time */
  usleep(1000);
  809808:	0100fa04 	movi	r4,1000
  80980c:	080acb80 	call	80acb8 <usleep>
  IOWR_ALTERA_AVALON_LCD_16207_COMMAND(base, LCD_CMD_FUNCTION_SET | LCD_CMD_8BIT);
  809810:	e0bffe17 	ldw	r2,-8(fp)
  809814:	1007883a 	mov	r3,r2
  809818:	00800c04 	movi	r2,48
  80981c:	18800035 	stwio	r2,0(r3)

  /* Setup interface parameters: 8 bit bus, 2 rows, 5x7 font */
  lcd_write_command(sp, LCD_CMD_FUNCTION_SET | LCD_CMD_8BIT | LCD_CMD_TWO_LINE);
  809820:	e13fff17 	ldw	r4,-4(fp)
  809824:	01400e04 	movi	r5,56
  809828:	0808a040 	call	808a04 <lcd_write_command>
  
  /* Turn display off */
  lcd_write_command(sp, LCD_CMD_ONOFF);
  80982c:	e13fff17 	ldw	r4,-4(fp)
  809830:	01400204 	movi	r5,8
  809834:	0808a040 	call	808a04 <lcd_write_command>

  /* Clear display */
  lcd_clear_screen(sp);
  809838:	e13fff17 	ldw	r4,-4(fp)
  80983c:	0808b900 	call	808b90 <lcd_clear_screen>
  
  /* Set mode: increment after writing, don't shift display */
  lcd_write_command(sp, LCD_CMD_MODES | LCD_CMD_MODE_INC);
  809840:	e13fff17 	ldw	r4,-4(fp)
  809844:	01400184 	movi	r5,6
  809848:	0808a040 	call	808a04 <lcd_write_command>

  /* Turn display on */
  lcd_write_command(sp, LCD_CMD_ONOFF | LCD_CMD_ENABLE_DISP);
  80984c:	e13fff17 	ldw	r4,-4(fp)
  809850:	01400304 	movi	r5,12
  809854:	0808a040 	call	808a04 <lcd_write_command>

  sp->esccount = -1;
  809858:	e0ffff17 	ldw	r3,-4(fp)
  80985c:	00bfffc4 	movi	r2,-1
  809860:	18800905 	stb	r2,36(r3)
  memset(sp->escape, 0, sizeof(sp->escape));
  809864:	e0bfff17 	ldw	r2,-4(fp)
  809868:	11000a04 	addi	r4,r2,40
  80986c:	000b883a 	mov	r5,zero
  809870:	01800204 	movi	r6,8
  809874:	08066380 	call	806638 <memset>

  sp->scrollpos = 0;
  809878:	e0bfff17 	ldw	r2,-4(fp)
  80987c:	10000945 	stb	zero,37(r2)
  sp->scrollmax = 0;
  809880:	e0bfff17 	ldw	r2,-4(fp)
  809884:	10000985 	stb	zero,38(r2)
  sp->active = 0;
  809888:	e0bfff17 	ldw	r2,-4(fp)
  80988c:	100009c5 	stb	zero,39(r2)
  809890:	00802074 	movhi	r2,129
  809894:	10bca204 	addi	r2,r2,-3448
  809898:	10800017 	ldw	r2,0(r2)
  80989c:	1009883a 	mov	r4,r2

  sp->period = alt_ticks_per_second() / 10; /* Call every 100ms */
  8098a0:	01400284 	movi	r5,10
  8098a4:	080b3c80 	call	80b3c8 <__udivsi3>
  8098a8:	1007883a 	mov	r3,r2
  8098ac:	e0bfff17 	ldw	r2,-4(fp)
  8098b0:	10c00715 	stw	r3,28(r2)

  alt_alarm_start(&sp->alarm, sp->period, &alt_lcd_16207_timeout, sp);
  8098b4:	e0bfff17 	ldw	r2,-4(fp)
  8098b8:	11000104 	addi	r4,r2,4
  8098bc:	e0bfff17 	ldw	r2,-4(fp)
  8098c0:	10800717 	ldw	r2,28(r2)
  8098c4:	100b883a 	mov	r5,r2
  8098c8:	01802074 	movhi	r6,129
  8098cc:	31a5b904 	addi	r6,r6,-26908
  8098d0:	e1ffff17 	ldw	r7,-4(fp)
  8098d4:	0806bfc0 	call	806bfc <alt_alarm_start>
}
  8098d8:	e037883a 	mov	sp,fp
  8098dc:	dfc00117 	ldw	ra,4(sp)
  8098e0:	df000017 	ldw	fp,0(sp)
  8098e4:	dec00204 	addi	sp,sp,8
  8098e8:	f800283a 	ret

008098ec <altera_avalon_lcd_16207_write_fd>:
extern int altera_avalon_lcd_16207_write(altera_avalon_lcd_16207_state* sp,
  const char* ptr, int count, int flags);

int 
altera_avalon_lcd_16207_write_fd(alt_fd* fd, const char* buffer, int space)
{
  8098ec:	defffa04 	addi	sp,sp,-24
  8098f0:	dfc00515 	stw	ra,20(sp)
  8098f4:	df000415 	stw	fp,16(sp)
  8098f8:	df000404 	addi	fp,sp,16
  8098fc:	e13ffd15 	stw	r4,-12(fp)
  809900:	e17ffe15 	stw	r5,-8(fp)
  809904:	e1bfff15 	stw	r6,-4(fp)
    altera_avalon_lcd_16207_dev* dev = (altera_avalon_lcd_16207_dev*) fd->dev; 
  809908:	e0bffd17 	ldw	r2,-12(fp)
  80990c:	10800017 	ldw	r2,0(r2)
  809910:	e0bffc15 	stw	r2,-16(fp)

    return altera_avalon_lcd_16207_write(&dev->state, buffer, space,
  809914:	e0bffc17 	ldw	r2,-16(fp)
  809918:	11000a04 	addi	r4,r2,40
  80991c:	e0bffd17 	ldw	r2,-12(fp)
  809920:	11c00217 	ldw	r7,8(r2)
  809924:	e17ffe17 	ldw	r5,-8(fp)
  809928:	e1bfff17 	ldw	r6,-4(fp)
  80992c:	08091d80 	call	8091d8 <altera_avalon_lcd_16207_write>
      fd->fd_flags);
}
  809930:	e037883a 	mov	sp,fp
  809934:	dfc00117 	ldw	ra,4(sp)
  809938:	df000017 	ldw	fp,0(sp)
  80993c:	dec00204 	addi	sp,sp,8
  809940:	f800283a 	ret

00809944 <alt_avalon_timer_sc_irq>:
#ifdef ALT_ENHANCED_INTERRUPT_API_PRESENT
static void alt_avalon_timer_sc_irq (void* base)
#else
static void alt_avalon_timer_sc_irq (void* base, alt_u32 id)
#endif
{
  809944:	defffa04 	addi	sp,sp,-24
  809948:	dfc00515 	stw	ra,20(sp)
  80994c:	df000415 	stw	fp,16(sp)
  809950:	df000404 	addi	fp,sp,16
  809954:	e13fff15 	stw	r4,-4(fp)
  alt_irq_context cpu_sr;
  
  /* clear the interrupt */
  IOWR_ALTERA_AVALON_TIMER_STATUS (base, 0);
  809958:	e0bfff17 	ldw	r2,-4(fp)
  80995c:	10000035 	stwio	zero,0(r2)
  /* 
   * Dummy read to ensure IRQ is negated before the ISR returns.
   * The control register is read because reading the status
   * register has side-effects per the register map documentation.
   */
  IORD_ALTERA_AVALON_TIMER_CONTROL (base);
  809960:	e0bfff17 	ldw	r2,-4(fp)
  809964:	10800104 	addi	r2,r2,4
  809968:	10800037 	ldwio	r2,0(r2)
static ALT_INLINE alt_irq_context ALT_ALWAYS_INLINE 
       alt_irq_disable_all (void)
{
  alt_irq_context context;

  NIOS2_READ_STATUS (context);
  80996c:	0005303a 	rdctl	r2,status
  809970:	e0bffd15 	stw	r2,-12(fp)

  NIOS2_WRITE_STATUS (context & ~NIOS2_STATUS_PIE_MSK);
  809974:	e0fffd17 	ldw	r3,-12(fp)
  809978:	00bfff84 	movi	r2,-2
  80997c:	1884703a 	and	r2,r3,r2
  809980:	1001703a 	wrctl	status,r2
  
  return context;
  809984:	e0bffd17 	ldw	r2,-12(fp)

  /* 
   * Notify the system of a clock tick. disable interrupts 
   * during this time to safely support ISR preemption
   */
  cpu_sr = alt_irq_disable_all();
  809988:	e0bffe15 	stw	r2,-8(fp)
  alt_tick ();
  80998c:	0807bcc0 	call	807bcc <alt_tick>
  809990:	e0bffe17 	ldw	r2,-8(fp)
  809994:	e0bffc15 	stw	r2,-16(fp)
  status &= ~NIOS2_STATUS_PIE_MSK;
  status |= (context & NIOS2_STATUS_PIE_MSK);
  
  NIOS2_WRITE_STATUS (status);
#else
  NIOS2_WRITE_STATUS (context);
  809998:	e0bffc17 	ldw	r2,-16(fp)
  80999c:	1001703a 	wrctl	status,r2
  alt_irq_enable_all(cpu_sr);
}
  8099a0:	e037883a 	mov	sp,fp
  8099a4:	dfc00117 	ldw	ra,4(sp)
  8099a8:	df000017 	ldw	fp,0(sp)
  8099ac:	dec00204 	addi	sp,sp,8
  8099b0:	f800283a 	ret

008099b4 <alt_avalon_timer_sc_init>:
 * auto-generated alt_sys_init() function.
 */

void alt_avalon_timer_sc_init (void* base, alt_u32 irq_controller_id, 
                                alt_u32 irq, alt_u32 freq)
{
  8099b4:	defff804 	addi	sp,sp,-32
  8099b8:	dfc00715 	stw	ra,28(sp)
  8099bc:	df000615 	stw	fp,24(sp)
  8099c0:	df000604 	addi	fp,sp,24
  8099c4:	e13ffc15 	stw	r4,-16(fp)
  8099c8:	e17ffd15 	stw	r5,-12(fp)
  8099cc:	e1bffe15 	stw	r6,-8(fp)
  8099d0:	e1ffff15 	stw	r7,-4(fp)
  8099d4:	e0bfff17 	ldw	r2,-4(fp)
  8099d8:	e0bffb15 	stw	r2,-20(fp)
 * in order to initialise the value of the clock frequency.
 */

static ALT_INLINE int ALT_ALWAYS_INLINE alt_sysclk_init (alt_u32 nticks)
{
  if (! _alt_tick_rate)
  8099dc:	00802074 	movhi	r2,129
  8099e0:	10bca204 	addi	r2,r2,-3448
  8099e4:	10800017 	ldw	r2,0(r2)
  8099e8:	1004c03a 	cmpne	r2,r2,zero
  8099ec:	1000041e 	bne	r2,zero,809a00 <alt_avalon_timer_sc_init+0x4c>
  {
    _alt_tick_rate = nticks;
  8099f0:	00c02074 	movhi	r3,129
  8099f4:	18fca204 	addi	r3,r3,-3448
  8099f8:	e0bffb17 	ldw	r2,-20(fp)
  8099fc:	18800015 	stw	r2,0(r3)
  
  alt_sysclk_init (freq);
  
  /* set to free running mode */
  
  IOWR_ALTERA_AVALON_TIMER_CONTROL (base, 
  809a00:	e0bffc17 	ldw	r2,-16(fp)
  809a04:	10800104 	addi	r2,r2,4
  809a08:	1007883a 	mov	r3,r2
  809a0c:	008001c4 	movi	r2,7
  809a10:	18800035 	stwio	r2,0(r3)
            ALTERA_AVALON_TIMER_CONTROL_CONT_MSK |
            ALTERA_AVALON_TIMER_CONTROL_START_MSK);

  /* register the interrupt handler, and enable the interrupt */
#ifdef ALT_ENHANCED_INTERRUPT_API_PRESENT
  alt_ic_isr_register(irq_controller_id, irq, alt_avalon_timer_sc_irq, 
  809a14:	d8000015 	stw	zero,0(sp)
  809a18:	e13ffd17 	ldw	r4,-12(fp)
  809a1c:	e17ffe17 	ldw	r5,-8(fp)
  809a20:	01802074 	movhi	r6,129
  809a24:	31a65104 	addi	r6,r6,-26300
  809a28:	e1fffc17 	ldw	r7,-16(fp)
  809a2c:	080a8b00 	call	80a8b0 <alt_ic_isr_register>
                      base, NULL);
#else
  alt_irq_register (irq, base, alt_avalon_timer_sc_irq);
#endif  
}
  809a30:	e037883a 	mov	sp,fp
  809a34:	dfc00117 	ldw	ra,4(sp)
  809a38:	df000017 	ldw	fp,0(sp)
  809a3c:	dec00204 	addi	sp,sp,8
  809a40:	f800283a 	ret

00809a44 <altera_avalon_uart_read_fd>:
 *
 */

int 
altera_avalon_uart_read_fd(alt_fd* fd, char* buffer, int space)
{
  809a44:	defffa04 	addi	sp,sp,-24
  809a48:	dfc00515 	stw	ra,20(sp)
  809a4c:	df000415 	stw	fp,16(sp)
  809a50:	df000404 	addi	fp,sp,16
  809a54:	e13ffd15 	stw	r4,-12(fp)
  809a58:	e17ffe15 	stw	r5,-8(fp)
  809a5c:	e1bfff15 	stw	r6,-4(fp)
    altera_avalon_uart_dev* dev = (altera_avalon_uart_dev*) fd->dev; 
  809a60:	e0bffd17 	ldw	r2,-12(fp)
  809a64:	10800017 	ldw	r2,0(r2)
  809a68:	e0bffc15 	stw	r2,-16(fp)

    return altera_avalon_uart_read(&dev->state, buffer, space,
  809a6c:	e0bffc17 	ldw	r2,-16(fp)
  809a70:	11000a04 	addi	r4,r2,40
  809a74:	e0bffd17 	ldw	r2,-12(fp)
  809a78:	11c00217 	ldw	r7,8(r2)
  809a7c:	e17ffe17 	ldw	r5,-8(fp)
  809a80:	e1bfff17 	ldw	r6,-4(fp)
  809a84:	0809f3c0 	call	809f3c <altera_avalon_uart_read>
      fd->fd_flags);
}
  809a88:	e037883a 	mov	sp,fp
  809a8c:	dfc00117 	ldw	ra,4(sp)
  809a90:	df000017 	ldw	fp,0(sp)
  809a94:	dec00204 	addi	sp,sp,8
  809a98:	f800283a 	ret

00809a9c <altera_avalon_uart_write_fd>:

int 
altera_avalon_uart_write_fd(alt_fd* fd, const char* buffer, int space)
{
  809a9c:	defffa04 	addi	sp,sp,-24
  809aa0:	dfc00515 	stw	ra,20(sp)
  809aa4:	df000415 	stw	fp,16(sp)
  809aa8:	df000404 	addi	fp,sp,16
  809aac:	e13ffd15 	stw	r4,-12(fp)
  809ab0:	e17ffe15 	stw	r5,-8(fp)
  809ab4:	e1bfff15 	stw	r6,-4(fp)
    altera_avalon_uart_dev* dev = (altera_avalon_uart_dev*) fd->dev; 
  809ab8:	e0bffd17 	ldw	r2,-12(fp)
  809abc:	10800017 	ldw	r2,0(r2)
  809ac0:	e0bffc15 	stw	r2,-16(fp)

    return altera_avalon_uart_write(&dev->state, buffer, space,
  809ac4:	e0bffc17 	ldw	r2,-16(fp)
  809ac8:	11000a04 	addi	r4,r2,40
  809acc:	e0bffd17 	ldw	r2,-12(fp)
  809ad0:	11c00217 	ldw	r7,8(r2)
  809ad4:	e17ffe17 	ldw	r5,-8(fp)
  809ad8:	e1bfff17 	ldw	r6,-4(fp)
  809adc:	080a1cc0 	call	80a1cc <altera_avalon_uart_write>
      fd->fd_flags);
}
  809ae0:	e037883a 	mov	sp,fp
  809ae4:	dfc00117 	ldw	ra,4(sp)
  809ae8:	df000017 	ldw	fp,0(sp)
  809aec:	dec00204 	addi	sp,sp,8
  809af0:	f800283a 	ret

00809af4 <altera_avalon_uart_close_fd>:

#endif /* ALTERA_AVALON_UART_USE_IOCTL */

int 
altera_avalon_uart_close_fd(alt_fd* fd)
{
  809af4:	defffc04 	addi	sp,sp,-16
  809af8:	dfc00315 	stw	ra,12(sp)
  809afc:	df000215 	stw	fp,8(sp)
  809b00:	df000204 	addi	fp,sp,8
  809b04:	e13fff15 	stw	r4,-4(fp)
    altera_avalon_uart_dev* dev = (altera_avalon_uart_dev*) fd->dev; 
  809b08:	e0bfff17 	ldw	r2,-4(fp)
  809b0c:	10800017 	ldw	r2,0(r2)
  809b10:	e0bffe15 	stw	r2,-8(fp)

    return altera_avalon_uart_close(&dev->state, fd->fd_flags);
  809b14:	e0bffe17 	ldw	r2,-8(fp)
  809b18:	11000a04 	addi	r4,r2,40
  809b1c:	e0bfff17 	ldw	r2,-4(fp)
  809b20:	11400217 	ldw	r5,8(r2)
  809b24:	0809edc0 	call	809edc <altera_avalon_uart_close>
}
  809b28:	e037883a 	mov	sp,fp
  809b2c:	dfc00117 	ldw	ra,4(sp)
  809b30:	df000017 	ldw	fp,0(sp)
  809b34:	dec00204 	addi	sp,sp,8
  809b38:	f800283a 	ret

00809b3c <altera_avalon_uart_init>:
  alt_u32 status);

void 
altera_avalon_uart_init(altera_avalon_uart_state* sp, 
  alt_u32 irq_controller_id,  alt_u32 irq)
{
  809b3c:	defff704 	addi	sp,sp,-36
  809b40:	dfc00815 	stw	ra,32(sp)
  809b44:	df000715 	stw	fp,28(sp)
  809b48:	df000704 	addi	fp,sp,28
  809b4c:	e13ffc15 	stw	r4,-16(fp)
  809b50:	e17ffd15 	stw	r5,-12(fp)
  809b54:	e1bffe15 	stw	r6,-8(fp)
  void* base = sp->base;
  809b58:	e0bffc17 	ldw	r2,-16(fp)
  809b5c:	10800017 	ldw	r2,0(r2)
  809b60:	e0bffb15 	stw	r2,-20(fp)
 * HAL.
 */

static ALT_INLINE int ALT_ALWAYS_INLINE alt_no_error (void)
{
  return 0;
  809b64:	0005883a 	mov	r2,zero
  /* 
   * Initialise the read and write flags and the semaphores used to 
   * protect access to the circular buffers when running in a multi-threaded
   * environment.
   */
  error = ALT_FLAG_CREATE (&sp->events, 0)    || 
  809b68:	1004c03a 	cmpne	r2,r2,zero
  809b6c:	1000061e 	bne	r2,zero,809b88 <altera_avalon_uart_init+0x4c>
  809b70:	0005883a 	mov	r2,zero
  809b74:	1004c03a 	cmpne	r2,r2,zero
  809b78:	1000031e 	bne	r2,zero,809b88 <altera_avalon_uart_init+0x4c>
  809b7c:	0005883a 	mov	r2,zero
  809b80:	1005003a 	cmpeq	r2,r2,zero
  809b84:	1000031e 	bne	r2,zero,809b94 <altera_avalon_uart_init+0x58>
  809b88:	00800044 	movi	r2,1
  809b8c:	e0bfff15 	stw	r2,-4(fp)
  809b90:	00000106 	br	809b98 <altera_avalon_uart_init+0x5c>
  809b94:	e03fff15 	stw	zero,-4(fp)
  809b98:	e0bfff17 	ldw	r2,-4(fp)
  809b9c:	e0bffa15 	stw	r2,-24(fp)
          ALT_SEM_CREATE (&sp->read_lock, 1)  ||
          ALT_SEM_CREATE (&sp->write_lock, 1);

  if (!error)
  809ba0:	e0bffa17 	ldw	r2,-24(fp)
  809ba4:	1004c03a 	cmpne	r2,r2,zero
  809ba8:	1000111e 	bne	r2,zero,809bf0 <altera_avalon_uart_init+0xb4>
  {
    /* enable interrupts at the device */
    sp->ctrl = ALTERA_AVALON_UART_CONTROL_RTS_MSK  |
  809bac:	e0fffc17 	ldw	r3,-16(fp)
  809bb0:	00832004 	movi	r2,3200
  809bb4:	18800115 	stw	r2,4(r3)
                ALTERA_AVALON_UART_CONTROL_RRDY_MSK |
                ALTERA_AVALON_UART_CONTROL_DCTS_MSK;

    IOWR_ALTERA_AVALON_UART_CONTROL(base, sp->ctrl); 
  809bb8:	e0bffb17 	ldw	r2,-20(fp)
  809bbc:	11000304 	addi	r4,r2,12
  809bc0:	e0bffc17 	ldw	r2,-16(fp)
  809bc4:	10800117 	ldw	r2,4(r2)
  809bc8:	1007883a 	mov	r3,r2
  809bcc:	2005883a 	mov	r2,r4
  809bd0:	10c00035 	stwio	r3,0(r2)
  
    /* register the interrupt handler */
#ifdef ALT_ENHANCED_INTERRUPT_API_PRESENT
    alt_ic_isr_register(irq_controller_id, irq, altera_avalon_uart_irq, sp, 
  809bd4:	d8000015 	stw	zero,0(sp)
  809bd8:	e13ffd17 	ldw	r4,-12(fp)
  809bdc:	e17ffe17 	ldw	r5,-8(fp)
  809be0:	01802074 	movhi	r6,129
  809be4:	31a70104 	addi	r6,r6,-25596
  809be8:	e1fffc17 	ldw	r7,-16(fp)
  809bec:	080a8b00 	call	80a8b0 <alt_ic_isr_register>
      0x0);
#else
    alt_irq_register (irq, sp, altera_avalon_uart_irq);
#endif  
  }
}
  809bf0:	e037883a 	mov	sp,fp
  809bf4:	dfc00117 	ldw	ra,4(sp)
  809bf8:	df000017 	ldw	fp,0(sp)
  809bfc:	dec00204 	addi	sp,sp,8
  809c00:	f800283a 	ret

00809c04 <altera_avalon_uart_irq>:
#ifdef ALT_ENHANCED_INTERRUPT_API_PRESENT
static void altera_avalon_uart_irq(void* context)
#else
static void altera_avalon_uart_irq(void* context, alt_u32 id)
#endif
{
  809c04:	defffa04 	addi	sp,sp,-24
  809c08:	dfc00515 	stw	ra,20(sp)
  809c0c:	df000415 	stw	fp,16(sp)
  809c10:	df000404 	addi	fp,sp,16
  809c14:	e13fff15 	stw	r4,-4(fp)
  alt_u32 status;

  altera_avalon_uart_state* sp = (altera_avalon_uart_state*) context;
  809c18:	e0bfff17 	ldw	r2,-4(fp)
  809c1c:	e0bffd15 	stw	r2,-12(fp)
  void* base               = sp->base;
  809c20:	e0bffd17 	ldw	r2,-12(fp)
  809c24:	10800017 	ldw	r2,0(r2)
  809c28:	e0bffc15 	stw	r2,-16(fp)
  /*
   * Read the status register in order to determine the cause of the
   * interrupt.
   */

  status = IORD_ALTERA_AVALON_UART_STATUS(base);
  809c2c:	e0bffc17 	ldw	r2,-16(fp)
  809c30:	10800204 	addi	r2,r2,8
  809c34:	10800037 	ldwio	r2,0(r2)
  809c38:	e0bffe15 	stw	r2,-8(fp)

  /* Clear any error flags set at the device */
  IOWR_ALTERA_AVALON_UART_STATUS(base, 0);
  809c3c:	e0bffc17 	ldw	r2,-16(fp)
  809c40:	10800204 	addi	r2,r2,8
  809c44:	10000035 	stwio	zero,0(r2)

  /* Dummy read to ensure IRQ is negated before ISR returns */
  IORD_ALTERA_AVALON_UART_STATUS(base);
  809c48:	e0bffc17 	ldw	r2,-16(fp)
  809c4c:	10800204 	addi	r2,r2,8
  809c50:	10800037 	ldwio	r2,0(r2)
  
  /* process a read irq */
  if (status & ALTERA_AVALON_UART_STATUS_RRDY_MSK)
  809c54:	e0bffe17 	ldw	r2,-8(fp)
  809c58:	1080200c 	andi	r2,r2,128
  809c5c:	1005003a 	cmpeq	r2,r2,zero
  809c60:	1000031e 	bne	r2,zero,809c70 <altera_avalon_uart_irq+0x6c>
  {
    altera_avalon_uart_rxirq(sp, status);
  809c64:	e13ffd17 	ldw	r4,-12(fp)
  809c68:	e17ffe17 	ldw	r5,-8(fp)
  809c6c:	0809ca00 	call	809ca0 <altera_avalon_uart_rxirq>
  }

  /* process a write irq */
  if (status & (ALTERA_AVALON_UART_STATUS_TRDY_MSK | 
  809c70:	e0bffe17 	ldw	r2,-8(fp)
  809c74:	1081100c 	andi	r2,r2,1088
  809c78:	1005003a 	cmpeq	r2,r2,zero
  809c7c:	1000031e 	bne	r2,zero,809c8c <altera_avalon_uart_irq+0x88>
                  ALTERA_AVALON_UART_STATUS_DCTS_MSK))
  {
    altera_avalon_uart_txirq(sp, status);
  809c80:	e13ffd17 	ldw	r4,-12(fp)
  809c84:	e17ffe17 	ldw	r5,-8(fp)
  809c88:	0809d800 	call	809d80 <altera_avalon_uart_txirq>
  }
  

}
  809c8c:	e037883a 	mov	sp,fp
  809c90:	dfc00117 	ldw	ra,4(sp)
  809c94:	df000017 	ldw	fp,0(sp)
  809c98:	dec00204 	addi	sp,sp,8
  809c9c:	f800283a 	ret

00809ca0 <altera_avalon_uart_rxirq>:
 * the receive circular buffer, and sets the apropriate flags to indicate 
 * that there is data ready to be processed.
 */
static void 
altera_avalon_uart_rxirq(altera_avalon_uart_state* sp, alt_u32 status)
{
  809ca0:	defffc04 	addi	sp,sp,-16
  809ca4:	df000315 	stw	fp,12(sp)
  809ca8:	df000304 	addi	fp,sp,12
  809cac:	e13ffe15 	stw	r4,-8(fp)
  809cb0:	e17fff15 	stw	r5,-4(fp)
  alt_u32 next;
  
  /* If there was an error, discard the data */

  if (status & (ALTERA_AVALON_UART_STATUS_PE_MSK | 
  809cb4:	e0bfff17 	ldw	r2,-4(fp)
  809cb8:	108000cc 	andi	r2,r2,3
  809cbc:	1004c03a 	cmpne	r2,r2,zero
  809cc0:	10002b1e 	bne	r2,zero,809d70 <altera_avalon_uart_rxirq+0xd0>
   * In a multi-threaded environment, set the read event flag to indicate
   * that there is data ready. This is only done if the circular buffer was
   * previously empty.
   */

  if (sp->rx_end == sp->rx_start)
  809cc4:	e0bffe17 	ldw	r2,-8(fp)
  809cc8:	10800317 	ldw	r2,12(r2)
    ALT_FLAG_POST (sp->events, ALT_UART_READ_RDY, OS_FLAG_SET);
  }

  /* Determine which slot to use next in the circular buffer */

  next = (sp->rx_end + 1) & ALT_AVALON_UART_BUF_MSK;
  809ccc:	e0bffe17 	ldw	r2,-8(fp)
  809cd0:	10800317 	ldw	r2,12(r2)
  809cd4:	10800044 	addi	r2,r2,1
  809cd8:	10800fcc 	andi	r2,r2,63
  809cdc:	e0bffd15 	stw	r2,-12(fp)

  /* Transfer data from the device to the circular buffer */

  sp->rx_buf[sp->rx_end] = IORD_ALTERA_AVALON_UART_RXDATA(sp->base);
  809ce0:	e0bffe17 	ldw	r2,-8(fp)
  809ce4:	11000317 	ldw	r4,12(r2)
  809ce8:	e0bffe17 	ldw	r2,-8(fp)
  809cec:	10800017 	ldw	r2,0(r2)
  809cf0:	10800037 	ldwio	r2,0(r2)
  809cf4:	1007883a 	mov	r3,r2
  809cf8:	e0bffe17 	ldw	r2,-8(fp)
  809cfc:	2085883a 	add	r2,r4,r2
  809d00:	10800704 	addi	r2,r2,28
  809d04:	10c00005 	stb	r3,0(r2)

  sp->rx_end = next;
  809d08:	e0fffe17 	ldw	r3,-8(fp)
  809d0c:	e0bffd17 	ldw	r2,-12(fp)
  809d10:	18800315 	stw	r2,12(r3)

  next = (sp->rx_end + 1) & ALT_AVALON_UART_BUF_MSK;
  809d14:	e0bffe17 	ldw	r2,-8(fp)
  809d18:	10800317 	ldw	r2,12(r2)
  809d1c:	10800044 	addi	r2,r2,1
  809d20:	10800fcc 	andi	r2,r2,63
  809d24:	e0bffd15 	stw	r2,-12(fp)
  /*
   * If the cicular buffer was full, disable interrupts. Interrupts will be
   * re-enabled when data is removed from the buffer.
   */

  if (next == sp->rx_start)
  809d28:	e0bffe17 	ldw	r2,-8(fp)
  809d2c:	10c00217 	ldw	r3,8(r2)
  809d30:	e0bffd17 	ldw	r2,-12(fp)
  809d34:	18800e1e 	bne	r3,r2,809d70 <altera_avalon_uart_rxirq+0xd0>
  {
    sp->ctrl &= ~ALTERA_AVALON_UART_CONTROL_RRDY_MSK;
  809d38:	e0bffe17 	ldw	r2,-8(fp)
  809d3c:	10c00117 	ldw	r3,4(r2)
  809d40:	00bfdfc4 	movi	r2,-129
  809d44:	1886703a 	and	r3,r3,r2
  809d48:	e0bffe17 	ldw	r2,-8(fp)
  809d4c:	10c00115 	stw	r3,4(r2)
    IOWR_ALTERA_AVALON_UART_CONTROL(sp->base, sp->ctrl); 
  809d50:	e0bffe17 	ldw	r2,-8(fp)
  809d54:	10800017 	ldw	r2,0(r2)
  809d58:	11000304 	addi	r4,r2,12
  809d5c:	e0bffe17 	ldw	r2,-8(fp)
  809d60:	10800117 	ldw	r2,4(r2)
  809d64:	1007883a 	mov	r3,r2
  809d68:	2005883a 	mov	r2,r4
  809d6c:	10c00035 	stwio	r3,0(r2)
  }   
}
  809d70:	e037883a 	mov	sp,fp
  809d74:	df000017 	ldw	fp,0(sp)
  809d78:	dec00104 	addi	sp,sp,4
  809d7c:	f800283a 	ret

00809d80 <altera_avalon_uart_txirq>:
 * buffer to the device, and sets the apropriate flags to indicate that 
 * there is data ready to be processed.
 */
static void 
altera_avalon_uart_txirq(altera_avalon_uart_state* sp, alt_u32 status)
{
  809d80:	defffd04 	addi	sp,sp,-12
  809d84:	df000215 	stw	fp,8(sp)
  809d88:	df000204 	addi	fp,sp,8
  809d8c:	e13ffe15 	stw	r4,-8(fp)
  809d90:	e17fff15 	stw	r5,-4(fp)
  /* Transfer data if there is some ready to be transfered */

  if (sp->tx_start != sp->tx_end)
  809d94:	e0bffe17 	ldw	r2,-8(fp)
  809d98:	10c00417 	ldw	r3,16(r2)
  809d9c:	e0bffe17 	ldw	r2,-8(fp)
  809da0:	10800517 	ldw	r2,20(r2)
  809da4:	18803626 	beq	r3,r2,809e80 <altera_avalon_uart_txirq+0x100>
    /* 
     * If the device is using flow control (i.e. RTS/CTS), then the
     * transmitter is required to throttle if CTS is high.
     */

    if (!(sp->flags & ALT_AVALON_UART_FC) ||
  809da8:	e0bffe17 	ldw	r2,-8(fp)
  809dac:	10800617 	ldw	r2,24(r2)
  809db0:	1080008c 	andi	r2,r2,2
  809db4:	1005003a 	cmpeq	r2,r2,zero
  809db8:	1000041e 	bne	r2,zero,809dcc <altera_avalon_uart_txirq+0x4c>
  809dbc:	e0bfff17 	ldw	r2,-4(fp)
  809dc0:	1082000c 	andi	r2,r2,2048
  809dc4:	1005003a 	cmpeq	r2,r2,zero
  809dc8:	10001e1e 	bne	r2,zero,809e44 <altera_avalon_uart_txirq+0xc4>
       * In a multi-threaded environment, set the write event flag to indicate
       * that there is space in the circular buffer. This is only done if the
       * buffer was previously empty.
       */

      if (sp->tx_start == ((sp->tx_end + 1) & ALT_AVALON_UART_BUF_MSK))
  809dcc:	e0bffe17 	ldw	r2,-8(fp)
  809dd0:	10800417 	ldw	r2,16(r2)
                       OS_FLAG_SET);
      }

      /* Write the data to the device */

      IOWR_ALTERA_AVALON_UART_TXDATA(sp->base, sp->tx_buf[sp->tx_start]);
  809dd4:	e0bffe17 	ldw	r2,-8(fp)
  809dd8:	10800017 	ldw	r2,0(r2)
  809ddc:	11000104 	addi	r4,r2,4
  809de0:	e0bffe17 	ldw	r2,-8(fp)
  809de4:	10c00417 	ldw	r3,16(r2)
  809de8:	e0bffe17 	ldw	r2,-8(fp)
  809dec:	1885883a 	add	r2,r3,r2
  809df0:	10801704 	addi	r2,r2,92
  809df4:	10800003 	ldbu	r2,0(r2)
  809df8:	10c03fcc 	andi	r3,r2,255
  809dfc:	2005883a 	mov	r2,r4
  809e00:	10c00035 	stwio	r3,0(r2)

      sp->tx_start = (++sp->tx_start) & ALT_AVALON_UART_BUF_MSK;
  809e04:	e0bffe17 	ldw	r2,-8(fp)
  809e08:	10800417 	ldw	r2,16(r2)
  809e0c:	10c00044 	addi	r3,r2,1
  809e10:	e0bffe17 	ldw	r2,-8(fp)
  809e14:	10c00415 	stw	r3,16(r2)
  809e18:	e0bffe17 	ldw	r2,-8(fp)
  809e1c:	10800417 	ldw	r2,16(r2)
  809e20:	10c00fcc 	andi	r3,r2,63
  809e24:	e0bffe17 	ldw	r2,-8(fp)
  809e28:	10c00415 	stw	r3,16(r2)
      /*
       * In case the tranmit interrupt had previously been disabled by 
       * detecting a low value on CTS, it is reenabled here.
       */ 

      sp->ctrl |= ALTERA_AVALON_UART_CONTROL_TRDY_MSK;
  809e2c:	e0bffe17 	ldw	r2,-8(fp)
  809e30:	10800117 	ldw	r2,4(r2)
  809e34:	10c01014 	ori	r3,r2,64
  809e38:	e0bffe17 	ldw	r2,-8(fp)
  809e3c:	10c00115 	stw	r3,4(r2)
    /* 
     * If the device is using flow control (i.e. RTS/CTS), then the
     * transmitter is required to throttle if CTS is high.
     */

    if (!(sp->flags & ALT_AVALON_UART_FC) ||
  809e40:	00000f06 	br	809e80 <altera_avalon_uart_txirq+0x100>
       * the last write to the status register. To avoid this resulting in
       * deadlock, it's necessary to re-check the status register here
       * before throttling.
       */
 
      status = IORD_ALTERA_AVALON_UART_STATUS(sp->base); 
  809e44:	e0bffe17 	ldw	r2,-8(fp)
  809e48:	10800017 	ldw	r2,0(r2)
  809e4c:	10800204 	addi	r2,r2,8
  809e50:	10800037 	ldwio	r2,0(r2)
  809e54:	e0bfff15 	stw	r2,-4(fp)

      if (!(status & ALTERA_AVALON_UART_STATUS_CTS_MSK))
  809e58:	e0bfff17 	ldw	r2,-4(fp)
  809e5c:	1082000c 	andi	r2,r2,2048
  809e60:	1004c03a 	cmpne	r2,r2,zero
  809e64:	1000061e 	bne	r2,zero,809e80 <altera_avalon_uart_txirq+0x100>
      {
        sp->ctrl &= ~ALTERA_AVALON_UART_CONTROL_TRDY_MSK;
  809e68:	e0bffe17 	ldw	r2,-8(fp)
  809e6c:	10c00117 	ldw	r3,4(r2)
  809e70:	00bfefc4 	movi	r2,-65
  809e74:	1886703a 	and	r3,r3,r2
  809e78:	e0bffe17 	ldw	r2,-8(fp)
  809e7c:	10c00115 	stw	r3,4(r2)
  /*
   * If the circular buffer is empty, disable the interrupt. This will be
   * re-enabled when new data is placed in the buffer.
   */

  if (sp->tx_start == sp->tx_end)
  809e80:	e0bffe17 	ldw	r2,-8(fp)
  809e84:	10c00417 	ldw	r3,16(r2)
  809e88:	e0bffe17 	ldw	r2,-8(fp)
  809e8c:	10800517 	ldw	r2,20(r2)
  809e90:	1880061e 	bne	r3,r2,809eac <altera_avalon_uart_txirq+0x12c>
  {
    sp->ctrl &= ~(ALTERA_AVALON_UART_CONTROL_TRDY_MSK |
  809e94:	e0bffe17 	ldw	r2,-8(fp)
  809e98:	10c00117 	ldw	r3,4(r2)
  809e9c:	00beefc4 	movi	r2,-1089
  809ea0:	1886703a 	and	r3,r3,r2
  809ea4:	e0bffe17 	ldw	r2,-8(fp)
  809ea8:	10c00115 	stw	r3,4(r2)
                    ALTERA_AVALON_UART_CONTROL_DCTS_MSK);
  }

  IOWR_ALTERA_AVALON_UART_CONTROL(sp->base, sp->ctrl);
  809eac:	e0bffe17 	ldw	r2,-8(fp)
  809eb0:	10800017 	ldw	r2,0(r2)
  809eb4:	11000304 	addi	r4,r2,12
  809eb8:	e0bffe17 	ldw	r2,-8(fp)
  809ebc:	10800117 	ldw	r2,4(r2)
  809ec0:	1007883a 	mov	r3,r2
  809ec4:	2005883a 	mov	r2,r4
  809ec8:	10c00035 	stwio	r3,0(r2)
}
  809ecc:	e037883a 	mov	sp,fp
  809ed0:	df000017 	ldw	fp,0(sp)
  809ed4:	dec00104 	addi	sp,sp,4
  809ed8:	f800283a 	ret

00809edc <altera_avalon_uart_close>:
 * The close routine is not implemented for the small driver; instead it will
 * map to null. This is because the small driver simply waits while characters
 * are transmitted; there is no interrupt-serviced buffer to empty 
 */
int altera_avalon_uart_close(altera_avalon_uart_state* sp, int flags)
{
  809edc:	defffc04 	addi	sp,sp,-16
  809ee0:	df000315 	stw	fp,12(sp)
  809ee4:	df000304 	addi	fp,sp,12
  809ee8:	e13ffd15 	stw	r4,-12(fp)
  809eec:	e17ffe15 	stw	r5,-8(fp)
  /* 
   * Wait for all transmit data to be emptied by the UART ISR.
   */
  while (sp->tx_start != sp->tx_end) {
  809ef0:	00000706 	br	809f10 <altera_avalon_uart_close+0x34>
    if (flags & O_NONBLOCK) {
  809ef4:	e0bffe17 	ldw	r2,-8(fp)
  809ef8:	1090000c 	andi	r2,r2,16384
  809efc:	1005003a 	cmpeq	r2,r2,zero
  809f00:	1000031e 	bne	r2,zero,809f10 <altera_avalon_uart_close+0x34>
      return -EWOULDBLOCK; 
  809f04:	00bffd44 	movi	r2,-11
  809f08:	e0bfff15 	stw	r2,-4(fp)
  809f0c:	00000606 	br	809f28 <altera_avalon_uart_close+0x4c>
int altera_avalon_uart_close(altera_avalon_uart_state* sp, int flags)
{
  /* 
   * Wait for all transmit data to be emptied by the UART ISR.
   */
  while (sp->tx_start != sp->tx_end) {
  809f10:	e0bffd17 	ldw	r2,-12(fp)
  809f14:	10c00417 	ldw	r3,16(r2)
  809f18:	e0bffd17 	ldw	r2,-12(fp)
  809f1c:	10800517 	ldw	r2,20(r2)
  809f20:	18bff41e 	bne	r3,r2,809ef4 <altera_avalon_uart_close+0x18>
    if (flags & O_NONBLOCK) {
      return -EWOULDBLOCK; 
    }
  }

  return 0;
  809f24:	e03fff15 	stw	zero,-4(fp)
  809f28:	e0bfff17 	ldw	r2,-4(fp)
}
  809f2c:	e037883a 	mov	sp,fp
  809f30:	df000017 	ldw	fp,0(sp)
  809f34:	dec00104 	addi	sp,sp,4
  809f38:	f800283a 	ret

00809f3c <altera_avalon_uart_read>:
 */

int 
altera_avalon_uart_read(altera_avalon_uart_state* sp, char* ptr, int len,
  int flags)
{
  809f3c:	defff004 	addi	sp,sp,-64
  809f40:	dfc00f15 	stw	ra,60(sp)
  809f44:	df000e15 	stw	fp,56(sp)
  809f48:	df000e04 	addi	fp,sp,56
  809f4c:	e13ffb15 	stw	r4,-20(fp)
  809f50:	e17ffc15 	stw	r5,-16(fp)
  809f54:	e1bffd15 	stw	r6,-12(fp)
  809f58:	e1fffe15 	stw	r7,-8(fp)
  alt_irq_context context;
  int             block;
  alt_u32         next;
  alt_u8          read_would_block = 0;
  809f5c:	e03ff705 	stb	zero,-36(fp)
  int             count = 0;
  809f60:	e03ff615 	stw	zero,-40(fp)
  /* 
   * Construct a flag to indicate whether the device is being accessed in
   * blocking or non-blocking mode.
   */

  block = !(flags & O_NONBLOCK);
  809f64:	e0bffe17 	ldw	r2,-8(fp)
  809f68:	1090000c 	andi	r2,r2,16384
  809f6c:	1005003a 	cmpeq	r2,r2,zero
  809f70:	e0bff915 	stw	r2,-28(fp)
  /*
   * Calculate which slot in the circular buffer is the next one to read
   * data from.
   */

  next = (sp->rx_start + 1) & ALT_AVALON_UART_BUF_MSK;
  809f74:	e0bffb17 	ldw	r2,-20(fp)
  809f78:	10800217 	ldw	r2,8(r2)
  809f7c:	10800044 	addi	r2,r2,1
  809f80:	10800fcc 	andi	r2,r2,63
  809f84:	e0bff815 	stw	r2,-32(fp)
    /*
     * Read the required amount of data, until the circular buffer runs
     * empty
     */

    while ((count < len) && (sp->rx_start != sp->rx_end))
  809f88:	00001906 	br	809ff0 <altera_avalon_uart_read+0xb4>
    {
      count++;
  809f8c:	e0bff617 	ldw	r2,-40(fp)
  809f90:	10800044 	addi	r2,r2,1
  809f94:	e0bff615 	stw	r2,-40(fp)
      *ptr++ = sp->rx_buf[sp->rx_start];
  809f98:	e0bffb17 	ldw	r2,-20(fp)
  809f9c:	10c00217 	ldw	r3,8(r2)
  809fa0:	e0bffb17 	ldw	r2,-20(fp)
  809fa4:	1885883a 	add	r2,r3,r2
  809fa8:	10800704 	addi	r2,r2,28
  809fac:	10800003 	ldbu	r2,0(r2)
  809fb0:	1007883a 	mov	r3,r2
  809fb4:	e0bffc17 	ldw	r2,-16(fp)
  809fb8:	10c00005 	stb	r3,0(r2)
  809fbc:	e0bffc17 	ldw	r2,-16(fp)
  809fc0:	10800044 	addi	r2,r2,1
  809fc4:	e0bffc15 	stw	r2,-16(fp)
      
      sp->rx_start = (++sp->rx_start) & ALT_AVALON_UART_BUF_MSK;
  809fc8:	e0bffb17 	ldw	r2,-20(fp)
  809fcc:	10800217 	ldw	r2,8(r2)
  809fd0:	10c00044 	addi	r3,r2,1
  809fd4:	e0bffb17 	ldw	r2,-20(fp)
  809fd8:	10c00215 	stw	r3,8(r2)
  809fdc:	e0bffb17 	ldw	r2,-20(fp)
  809fe0:	10800217 	ldw	r2,8(r2)
  809fe4:	10c00fcc 	andi	r3,r2,63
  809fe8:	e0bffb17 	ldw	r2,-20(fp)
  809fec:	10c00215 	stw	r3,8(r2)
    /*
     * Read the required amount of data, until the circular buffer runs
     * empty
     */

    while ((count < len) && (sp->rx_start != sp->rx_end))
  809ff0:	e0fff617 	ldw	r3,-40(fp)
  809ff4:	e0bffd17 	ldw	r2,-12(fp)
  809ff8:	1880050e 	bge	r3,r2,80a010 <altera_avalon_uart_read+0xd4>
  809ffc:	e0bffb17 	ldw	r2,-20(fp)
  80a000:	10c00217 	ldw	r3,8(r2)
  80a004:	e0bffb17 	ldw	r2,-20(fp)
  80a008:	10800317 	ldw	r2,12(r2)
  80a00c:	18bfdf1e 	bne	r3,r2,809f8c <altera_avalon_uart_read+0x50>
    /*
     * If no data has been transferred, the circular buffer is empty, and
     * this is not a non-blocking access, block waiting for data to arrive.
     */

    if (!count && (sp->rx_start == sp->rx_end))
  80a010:	e0bff617 	ldw	r2,-40(fp)
  80a014:	1004c03a 	cmpne	r2,r2,zero
  80a018:	1000271e 	bne	r2,zero,80a0b8 <altera_avalon_uart_read+0x17c>
  80a01c:	e0bffb17 	ldw	r2,-20(fp)
  80a020:	10c00217 	ldw	r3,8(r2)
  80a024:	e0bffb17 	ldw	r2,-20(fp)
  80a028:	10800317 	ldw	r2,12(r2)
  80a02c:	1880221e 	bne	r3,r2,80a0b8 <altera_avalon_uart_read+0x17c>
    {
      if (!block)
  80a030:	e0bff917 	ldw	r2,-28(fp)
  80a034:	1004c03a 	cmpne	r2,r2,zero
  80a038:	1000061e 	bne	r2,zero,80a054 <altera_avalon_uart_read+0x118>
      {
        /* Set errno to indicate the reason we're not returning any data */

        ALT_ERRNO = EWOULDBLOCK;
  80a03c:	080a16c0 	call	80a16c <alt_get_errno>
  80a040:	00c002c4 	movi	r3,11
  80a044:	10c00015 	stw	r3,0(r2)
        read_would_block = 1;
  80a048:	00800044 	movi	r2,1
  80a04c:	e0bff705 	stb	r2,-36(fp)
        break;
  80a050:	00001f06 	br	80a0d0 <altera_avalon_uart_read+0x194>
static ALT_INLINE alt_irq_context ALT_ALWAYS_INLINE 
       alt_irq_disable_all (void)
{
  alt_irq_context context;

  NIOS2_READ_STATUS (context);
  80a054:	0005303a 	rdctl	r2,status
  80a058:	e0bff515 	stw	r2,-44(fp)

  NIOS2_WRITE_STATUS (context & ~NIOS2_STATUS_PIE_MSK);
  80a05c:	e0fff517 	ldw	r3,-44(fp)
  80a060:	00bfff84 	movi	r2,-2
  80a064:	1884703a 	and	r2,r3,r2
  80a068:	1001703a 	wrctl	status,r2
  
  return context;
  80a06c:	e0bff517 	ldw	r2,-44(fp)
      {
       /* Block waiting for some data to arrive */

       /* First, ensure read interrupts are enabled to avoid deadlock */

       context = alt_irq_disable_all ();
  80a070:	e0bffa15 	stw	r2,-24(fp)
       sp->ctrl |= ALTERA_AVALON_UART_CONTROL_RRDY_MSK;
  80a074:	e0bffb17 	ldw	r2,-20(fp)
  80a078:	10800117 	ldw	r2,4(r2)
  80a07c:	10c02014 	ori	r3,r2,128
  80a080:	e0bffb17 	ldw	r2,-20(fp)
  80a084:	10c00115 	stw	r3,4(r2)
       IOWR_ALTERA_AVALON_UART_CONTROL(sp->base, sp->ctrl);
  80a088:	e0bffb17 	ldw	r2,-20(fp)
  80a08c:	10800017 	ldw	r2,0(r2)
  80a090:	11000304 	addi	r4,r2,12
  80a094:	e0bffb17 	ldw	r2,-20(fp)
  80a098:	10800117 	ldw	r2,4(r2)
  80a09c:	1007883a 	mov	r3,r2
  80a0a0:	2005883a 	mov	r2,r4
  80a0a4:	10c00035 	stwio	r3,0(r2)
  80a0a8:	e0bffa17 	ldw	r2,-24(fp)
  80a0ac:	e0bff415 	stw	r2,-48(fp)
  status &= ~NIOS2_STATUS_PIE_MSK;
  status |= (context & NIOS2_STATUS_PIE_MSK);
  
  NIOS2_WRITE_STATUS (status);
#else
  NIOS2_WRITE_STATUS (context);
  80a0b0:	e0bff417 	ldw	r2,-48(fp)
  80a0b4:	1001703a 	wrctl	status,r2
                      OS_FLAG_WAIT_SET_ANY + OS_FLAG_CONSUME,
                      0);
      }
    }
  }
  while (!count && len);
  80a0b8:	e0bff617 	ldw	r2,-40(fp)
  80a0bc:	1004c03a 	cmpne	r2,r2,zero
  80a0c0:	1000031e 	bne	r2,zero,80a0d0 <altera_avalon_uart_read+0x194>
  80a0c4:	e0bffd17 	ldw	r2,-12(fp)
  80a0c8:	1004c03a 	cmpne	r2,r2,zero
  80a0cc:	103fc81e 	bne	r2,zero,809ff0 <altera_avalon_uart_read+0xb4>
static ALT_INLINE alt_irq_context ALT_ALWAYS_INLINE 
       alt_irq_disable_all (void)
{
  alt_irq_context context;

  NIOS2_READ_STATUS (context);
  80a0d0:	0005303a 	rdctl	r2,status
  80a0d4:	e0bff315 	stw	r2,-52(fp)

  NIOS2_WRITE_STATUS (context & ~NIOS2_STATUS_PIE_MSK);
  80a0d8:	e0fff317 	ldw	r3,-52(fp)
  80a0dc:	00bfff84 	movi	r2,-2
  80a0e0:	1884703a 	and	r2,r3,r2
  80a0e4:	1001703a 	wrctl	status,r2
  
  return context;
  80a0e8:	e0bff317 	ldw	r2,-52(fp)
  /*
   * Ensure that interrupts are enabled, so that the circular buffer can
   * re-fill.
   */

  context = alt_irq_disable_all ();
  80a0ec:	e0bffa15 	stw	r2,-24(fp)
  sp->ctrl |= ALTERA_AVALON_UART_CONTROL_RRDY_MSK;
  80a0f0:	e0bffb17 	ldw	r2,-20(fp)
  80a0f4:	10800117 	ldw	r2,4(r2)
  80a0f8:	10c02014 	ori	r3,r2,128
  80a0fc:	e0bffb17 	ldw	r2,-20(fp)
  80a100:	10c00115 	stw	r3,4(r2)
  IOWR_ALTERA_AVALON_UART_CONTROL(sp->base, sp->ctrl);
  80a104:	e0bffb17 	ldw	r2,-20(fp)
  80a108:	10800017 	ldw	r2,0(r2)
  80a10c:	11000304 	addi	r4,r2,12
  80a110:	e0bffb17 	ldw	r2,-20(fp)
  80a114:	10800117 	ldw	r2,4(r2)
  80a118:	1007883a 	mov	r3,r2
  80a11c:	2005883a 	mov	r2,r4
  80a120:	10c00035 	stwio	r3,0(r2)
  80a124:	e0bffa17 	ldw	r2,-24(fp)
  80a128:	e0bff215 	stw	r2,-56(fp)
  status &= ~NIOS2_STATUS_PIE_MSK;
  status |= (context & NIOS2_STATUS_PIE_MSK);
  
  NIOS2_WRITE_STATUS (status);
#else
  NIOS2_WRITE_STATUS (context);
  80a12c:	e0bff217 	ldw	r2,-56(fp)
  80a130:	1001703a 	wrctl	status,r2
  alt_irq_enable_all (context);

  /* Return the number of bytes read */
  if(read_would_block) {
  80a134:	e0bff703 	ldbu	r2,-36(fp)
  80a138:	1005003a 	cmpeq	r2,r2,zero
  80a13c:	1000031e 	bne	r2,zero,80a14c <altera_avalon_uart_read+0x210>
    return ~EWOULDBLOCK;
  80a140:	00bffd04 	movi	r2,-12
  80a144:	e0bfff15 	stw	r2,-4(fp)
  80a148:	00000206 	br	80a154 <altera_avalon_uart_read+0x218>
  }
  else {
    return count;
  80a14c:	e0bff617 	ldw	r2,-40(fp)
  80a150:	e0bfff15 	stw	r2,-4(fp)
  80a154:	e0bfff17 	ldw	r2,-4(fp)
  }
}
  80a158:	e037883a 	mov	sp,fp
  80a15c:	dfc00117 	ldw	ra,4(sp)
  80a160:	df000017 	ldw	fp,0(sp)
  80a164:	dec00204 	addi	sp,sp,8
  80a168:	f800283a 	ret

0080a16c <alt_get_errno>:
#undef errno

extern int errno;

static ALT_INLINE int* alt_get_errno(void)
{
  80a16c:	defffd04 	addi	sp,sp,-12
  80a170:	dfc00215 	stw	ra,8(sp)
  80a174:	df000115 	stw	fp,4(sp)
  80a178:	df000104 	addi	fp,sp,4
  return ((alt_errno) ? alt_errno() : &errno);
  80a17c:	00802074 	movhi	r2,129
  80a180:	10b52904 	addi	r2,r2,-11100
  80a184:	10800017 	ldw	r2,0(r2)
  80a188:	1005003a 	cmpeq	r2,r2,zero
  80a18c:	1000061e 	bne	r2,zero,80a1a8 <alt_get_errno+0x3c>
  80a190:	00802074 	movhi	r2,129
  80a194:	10b52904 	addi	r2,r2,-11100
  80a198:	10800017 	ldw	r2,0(r2)
  80a19c:	103ee83a 	callr	r2
  80a1a0:	e0bfff15 	stw	r2,-4(fp)
  80a1a4:	00000306 	br	80a1b4 <alt_get_errno+0x48>
  80a1a8:	00802074 	movhi	r2,129
  80a1ac:	10bc9d04 	addi	r2,r2,-3468
  80a1b0:	e0bfff15 	stw	r2,-4(fp)
  80a1b4:	e0bfff17 	ldw	r2,-4(fp)
}
  80a1b8:	e037883a 	mov	sp,fp
  80a1bc:	dfc00117 	ldw	ra,4(sp)
  80a1c0:	df000017 	ldw	fp,0(sp)
  80a1c4:	dec00204 	addi	sp,sp,8
  80a1c8:	f800283a 	ret

0080a1cc <altera_avalon_uart_write>:
 */

int
altera_avalon_uart_write(altera_avalon_uart_state* sp, const char* ptr, int len,
  int flags)
{
  80a1cc:	defff204 	addi	sp,sp,-56
  80a1d0:	dfc00d15 	stw	ra,52(sp)
  80a1d4:	df000c15 	stw	fp,48(sp)
  80a1d8:	df000c04 	addi	fp,sp,48
  80a1dc:	e13ffc15 	stw	r4,-16(fp)
  80a1e0:	e17ffd15 	stw	r5,-12(fp)
  80a1e4:	e1bffe15 	stw	r6,-8(fp)
  80a1e8:	e1ffff15 	stw	r7,-4(fp)
  alt_irq_context context;
  int             no_block;
  alt_u32         next;
  int             count = len;
  80a1ec:	e0bffe17 	ldw	r2,-8(fp)
  80a1f0:	e0bff815 	stw	r2,-32(fp)
  /* 
   * Construct a flag to indicate whether the device is being accessed in
   * blocking or non-blocking mode.
   */

  no_block = (flags & O_NONBLOCK);
  80a1f4:	e0bfff17 	ldw	r2,-4(fp)
  80a1f8:	1090000c 	andi	r2,r2,16384
  80a1fc:	e0bffa15 	stw	r2,-24(fp)
   * Loop transferring data from the input buffer to the transmit circular
   * buffer. The loop is terminated once all the data has been transferred,
   * or, (if in non-blocking mode) the buffer becomes full.
   */

  while (count)
  80a200:	00004006 	br	80a304 <altera_avalon_uart_write+0x138>
  {
    /* Determine the next slot in the buffer to access */

    next = (sp->tx_end + 1) & ALT_AVALON_UART_BUF_MSK;
  80a204:	e0bffc17 	ldw	r2,-16(fp)
  80a208:	10800517 	ldw	r2,20(r2)
  80a20c:	10800044 	addi	r2,r2,1
  80a210:	10800fcc 	andi	r2,r2,63
  80a214:	e0bff915 	stw	r2,-28(fp)

    /* block waiting for space if necessary */

    if (next == sp->tx_start)
  80a218:	e0bffc17 	ldw	r2,-16(fp)
  80a21c:	10c00417 	ldw	r3,16(r2)
  80a220:	e0bff917 	ldw	r2,-28(fp)
  80a224:	1880251e 	bne	r3,r2,80a2bc <altera_avalon_uart_write+0xf0>
    {
      if (no_block)
  80a228:	e0bffa17 	ldw	r2,-24(fp)
  80a22c:	1005003a 	cmpeq	r2,r2,zero
  80a230:	1000051e 	bne	r2,zero,80a248 <altera_avalon_uart_write+0x7c>
      {
        /* Set errno to indicate why this function returned early */
 
        ALT_ERRNO = EWOULDBLOCK;
  80a234:	080a3940 	call	80a394 <alt_get_errno>
  80a238:	1007883a 	mov	r3,r2
  80a23c:	008002c4 	movi	r2,11
  80a240:	18800015 	stw	r2,0(r3)
        break;
  80a244:	00003206 	br	80a310 <altera_avalon_uart_write+0x144>
static ALT_INLINE alt_irq_context ALT_ALWAYS_INLINE 
       alt_irq_disable_all (void)
{
  alt_irq_context context;

  NIOS2_READ_STATUS (context);
  80a248:	0005303a 	rdctl	r2,status
  80a24c:	e0bff715 	stw	r2,-36(fp)

  NIOS2_WRITE_STATUS (context & ~NIOS2_STATUS_PIE_MSK);
  80a250:	e0fff717 	ldw	r3,-36(fp)
  80a254:	00bfff84 	movi	r2,-2
  80a258:	1884703a 	and	r2,r3,r2
  80a25c:	1001703a 	wrctl	status,r2
  
  return context;
  80a260:	e0bff717 	ldw	r2,-36(fp)
      {
        /* Block waiting for space in the circular buffer */

        /* First, ensure transmit interrupts are enabled to avoid deadlock */

        context = alt_irq_disable_all ();
  80a264:	e0bffb15 	stw	r2,-20(fp)
        sp->ctrl |= (ALTERA_AVALON_UART_CONTROL_TRDY_MSK |
  80a268:	e0bffc17 	ldw	r2,-16(fp)
  80a26c:	10800117 	ldw	r2,4(r2)
  80a270:	10c11014 	ori	r3,r2,1088
  80a274:	e0bffc17 	ldw	r2,-16(fp)
  80a278:	10c00115 	stw	r3,4(r2)
                        ALTERA_AVALON_UART_CONTROL_DCTS_MSK);
        IOWR_ALTERA_AVALON_UART_CONTROL(sp->base, sp->ctrl);
  80a27c:	e0bffc17 	ldw	r2,-16(fp)
  80a280:	10800017 	ldw	r2,0(r2)
  80a284:	11000304 	addi	r4,r2,12
  80a288:	e0bffc17 	ldw	r2,-16(fp)
  80a28c:	10800117 	ldw	r2,4(r2)
  80a290:	1007883a 	mov	r3,r2
  80a294:	2005883a 	mov	r2,r4
  80a298:	10c00035 	stwio	r3,0(r2)
  80a29c:	e0bffb17 	ldw	r2,-20(fp)
  80a2a0:	e0bff615 	stw	r2,-40(fp)
  status &= ~NIOS2_STATUS_PIE_MSK;
  status |= (context & NIOS2_STATUS_PIE_MSK);
  
  NIOS2_WRITE_STATUS (status);
#else
  NIOS2_WRITE_STATUS (context);
  80a2a4:	e0bff617 	ldw	r2,-40(fp)
  80a2a8:	1001703a 	wrctl	status,r2
          ALT_FLAG_PEND (sp->events, 
                         ALT_UART_WRITE_RDY,
                         OS_FLAG_WAIT_SET_ANY + OS_FLAG_CONSUME,
                         0);
        }
        while ((next == sp->tx_start));
  80a2ac:	e0bffc17 	ldw	r2,-16(fp)
  80a2b0:	10c00417 	ldw	r3,16(r2)
  80a2b4:	e0bff917 	ldw	r2,-28(fp)
  80a2b8:	18bffc26 	beq	r3,r2,80a2ac <altera_avalon_uart_write+0xe0>
      }
    }

    count--;
  80a2bc:	e0bff817 	ldw	r2,-32(fp)
  80a2c0:	10bfffc4 	addi	r2,r2,-1
  80a2c4:	e0bff815 	stw	r2,-32(fp)

    /* Add the next character to the transmit buffer */

    sp->tx_buf[sp->tx_end] = *ptr++;
  80a2c8:	e0bffc17 	ldw	r2,-16(fp)
  80a2cc:	10c00517 	ldw	r3,20(r2)
  80a2d0:	e0bffd17 	ldw	r2,-12(fp)
  80a2d4:	10800003 	ldbu	r2,0(r2)
  80a2d8:	1009883a 	mov	r4,r2
  80a2dc:	e0bffc17 	ldw	r2,-16(fp)
  80a2e0:	1885883a 	add	r2,r3,r2
  80a2e4:	10801704 	addi	r2,r2,92
  80a2e8:	11000005 	stb	r4,0(r2)
  80a2ec:	e0bffd17 	ldw	r2,-12(fp)
  80a2f0:	10800044 	addi	r2,r2,1
  80a2f4:	e0bffd15 	stw	r2,-12(fp)
    sp->tx_end = next;
  80a2f8:	e0fffc17 	ldw	r3,-16(fp)
  80a2fc:	e0bff917 	ldw	r2,-28(fp)
  80a300:	18800515 	stw	r2,20(r3)
   * Loop transferring data from the input buffer to the transmit circular
   * buffer. The loop is terminated once all the data has been transferred,
   * or, (if in non-blocking mode) the buffer becomes full.
   */

  while (count)
  80a304:	e0bff817 	ldw	r2,-32(fp)
  80a308:	1004c03a 	cmpne	r2,r2,zero
  80a30c:	103fbd1e 	bne	r2,zero,80a204 <altera_avalon_uart_write+0x38>
static ALT_INLINE alt_irq_context ALT_ALWAYS_INLINE 
       alt_irq_disable_all (void)
{
  alt_irq_context context;

  NIOS2_READ_STATUS (context);
  80a310:	0005303a 	rdctl	r2,status
  80a314:	e0bff515 	stw	r2,-44(fp)

  NIOS2_WRITE_STATUS (context & ~NIOS2_STATUS_PIE_MSK);
  80a318:	e0fff517 	ldw	r3,-44(fp)
  80a31c:	00bfff84 	movi	r2,-2
  80a320:	1884703a 	and	r2,r3,r2
  80a324:	1001703a 	wrctl	status,r2
  
  return context;
  80a328:	e0bff517 	ldw	r2,-44(fp)
  /* 
   * Ensure that interrupts are enabled, so that the circular buffer can 
   * drain.
   */

  context = alt_irq_disable_all ();
  80a32c:	e0bffb15 	stw	r2,-20(fp)
  sp->ctrl |= ALTERA_AVALON_UART_CONTROL_TRDY_MSK |
  80a330:	e0bffc17 	ldw	r2,-16(fp)
  80a334:	10800117 	ldw	r2,4(r2)
  80a338:	10c11014 	ori	r3,r2,1088
  80a33c:	e0bffc17 	ldw	r2,-16(fp)
  80a340:	10c00115 	stw	r3,4(r2)
                 ALTERA_AVALON_UART_CONTROL_DCTS_MSK;
  IOWR_ALTERA_AVALON_UART_CONTROL(sp->base, sp->ctrl);
  80a344:	e0bffc17 	ldw	r2,-16(fp)
  80a348:	10800017 	ldw	r2,0(r2)
  80a34c:	11000304 	addi	r4,r2,12
  80a350:	e0bffc17 	ldw	r2,-16(fp)
  80a354:	10800117 	ldw	r2,4(r2)
  80a358:	1007883a 	mov	r3,r2
  80a35c:	2005883a 	mov	r2,r4
  80a360:	10c00035 	stwio	r3,0(r2)
  80a364:	e0bffb17 	ldw	r2,-20(fp)
  80a368:	e0bff415 	stw	r2,-48(fp)
  status &= ~NIOS2_STATUS_PIE_MSK;
  status |= (context & NIOS2_STATUS_PIE_MSK);
  
  NIOS2_WRITE_STATUS (status);
#else
  NIOS2_WRITE_STATUS (context);
  80a36c:	e0bff417 	ldw	r2,-48(fp)
  80a370:	1001703a 	wrctl	status,r2
  alt_irq_enable_all (context);

  /* return the number of bytes written */

  return (len - count);
  80a374:	e0fffe17 	ldw	r3,-8(fp)
  80a378:	e0bff817 	ldw	r2,-32(fp)
  80a37c:	1885c83a 	sub	r2,r3,r2
}
  80a380:	e037883a 	mov	sp,fp
  80a384:	dfc00117 	ldw	ra,4(sp)
  80a388:	df000017 	ldw	fp,0(sp)
  80a38c:	dec00204 	addi	sp,sp,8
  80a390:	f800283a 	ret

0080a394 <alt_get_errno>:
#undef errno

extern int errno;

static ALT_INLINE int* alt_get_errno(void)
{
  80a394:	defffd04 	addi	sp,sp,-12
  80a398:	dfc00215 	stw	ra,8(sp)
  80a39c:	df000115 	stw	fp,4(sp)
  80a3a0:	df000104 	addi	fp,sp,4
  return ((alt_errno) ? alt_errno() : &errno);
  80a3a4:	00802074 	movhi	r2,129
  80a3a8:	10b52904 	addi	r2,r2,-11100
  80a3ac:	10800017 	ldw	r2,0(r2)
  80a3b0:	1005003a 	cmpeq	r2,r2,zero
  80a3b4:	1000061e 	bne	r2,zero,80a3d0 <alt_get_errno+0x3c>
  80a3b8:	00802074 	movhi	r2,129
  80a3bc:	10b52904 	addi	r2,r2,-11100
  80a3c0:	10800017 	ldw	r2,0(r2)
  80a3c4:	103ee83a 	callr	r2
  80a3c8:	e0bfff15 	stw	r2,-4(fp)
  80a3cc:	00000306 	br	80a3dc <alt_get_errno+0x48>
  80a3d0:	00802074 	movhi	r2,129
  80a3d4:	10bc9d04 	addi	r2,r2,-3468
  80a3d8:	e0bfff15 	stw	r2,-4(fp)
  80a3dc:	e0bfff17 	ldw	r2,-4(fp)
}
  80a3e0:	e037883a 	mov	sp,fp
  80a3e4:	dfc00117 	ldw	ra,4(sp)
  80a3e8:	df000017 	ldw	fp,0(sp)
  80a3ec:	dec00204 	addi	sp,sp,8
  80a3f0:	f800283a 	ret

0080a3f4 <alt_dcache_flush_all>:
/*
 * alt_dcache_flush_all() is called to flush the entire data cache.
 */

void alt_dcache_flush_all (void)
{
  80a3f4:	defffe04 	addi	sp,sp,-8
  80a3f8:	df000115 	stw	fp,4(sp)
  80a3fc:	df000104 	addi	fp,sp,4
#if NIOS2_DCACHE_SIZE > 0
  char* i;
  
  for (i = (char*) 0; i < (char*) NIOS2_DCACHE_SIZE; i+= NIOS2_DCACHE_LINE_SIZE)
  80a400:	e03fff15 	stw	zero,-4(fp)
  80a404:	00000506 	br	80a41c <alt_dcache_flush_all+0x28>
  { 
    __asm__ volatile ("flushd (%0)" :: "r" (i));
  80a408:	e0bfff17 	ldw	r2,-4(fp)
  80a40c:	1000003b 	flushd	0(r2)
void alt_dcache_flush_all (void)
{
#if NIOS2_DCACHE_SIZE > 0
  char* i;
  
  for (i = (char*) 0; i < (char*) NIOS2_DCACHE_SIZE; i+= NIOS2_DCACHE_LINE_SIZE)
  80a410:	e0bfff17 	ldw	r2,-4(fp)
  80a414:	10800804 	addi	r2,r2,32
  80a418:	e0bfff15 	stw	r2,-4(fp)
  80a41c:	e0bfff17 	ldw	r2,-4(fp)
  80a420:	10820030 	cmpltui	r2,r2,2048
  80a424:	103ff81e 	bne	r2,zero,80a408 <alt_dcache_flush_all+0x14>
  { 
    __asm__ volatile ("flushd (%0)" :: "r" (i));
  }
#endif /* NIOS2_DCACHE_SIZE > 0 */
}
  80a428:	e037883a 	mov	sp,fp
  80a42c:	df000017 	ldw	fp,0(sp)
  80a430:	dec00104 	addi	sp,sp,4
  80a434:	f800283a 	ret

0080a438 <alt_dev_llist_insert>:
/*
 *
 */

int alt_dev_llist_insert (alt_dev_llist* dev, alt_llist* list)
{
  80a438:	defff904 	addi	sp,sp,-28
  80a43c:	dfc00615 	stw	ra,24(sp)
  80a440:	df000515 	stw	fp,20(sp)
  80a444:	df000504 	addi	fp,sp,20
  80a448:	e13ffd15 	stw	r4,-12(fp)
  80a44c:	e17ffe15 	stw	r5,-8(fp)
  /*
   * check that the device exists, and that it has a valid name.
   */

  if (!dev || !dev->name)
  80a450:	e0bffd17 	ldw	r2,-12(fp)
  80a454:	1005003a 	cmpeq	r2,r2,zero
  80a458:	1000041e 	bne	r2,zero,80a46c <alt_dev_llist_insert+0x34>
  80a45c:	e0bffd17 	ldw	r2,-12(fp)
  80a460:	10800217 	ldw	r2,8(r2)
  80a464:	1004c03a 	cmpne	r2,r2,zero
  80a468:	1000071e 	bne	r2,zero,80a488 <alt_dev_llist_insert+0x50>
  {
    ALT_ERRNO = EINVAL;
  80a46c:	080a4ec0 	call	80a4ec <alt_get_errno>
  80a470:	1007883a 	mov	r3,r2
  80a474:	00800584 	movi	r2,22
  80a478:	18800015 	stw	r2,0(r3)
    return -EINVAL;
  80a47c:	00bffa84 	movi	r2,-22
  80a480:	e0bfff15 	stw	r2,-4(fp)
  80a484:	00001306 	br	80a4d4 <alt_dev_llist_insert+0x9c>
  
  /*
   * register the device.
   */
  
  alt_llist_insert(list, &dev->llist);
  80a488:	e0fffd17 	ldw	r3,-12(fp)
  80a48c:	e0bffe17 	ldw	r2,-8(fp)
  80a490:	e0bffb15 	stw	r2,-20(fp)
  80a494:	e0fffc15 	stw	r3,-16(fp)
 */

static ALT_INLINE void ALT_ALWAYS_INLINE alt_llist_insert(alt_llist* list, 
                alt_llist* entry)
{
  entry->previous = list;
  80a498:	e0fffc17 	ldw	r3,-16(fp)
  80a49c:	e0bffb17 	ldw	r2,-20(fp)
  80a4a0:	18800115 	stw	r2,4(r3)
  entry->next     = list->next;
  80a4a4:	e0bffb17 	ldw	r2,-20(fp)
  80a4a8:	10c00017 	ldw	r3,0(r2)
  80a4ac:	e0bffc17 	ldw	r2,-16(fp)
  80a4b0:	10c00015 	stw	r3,0(r2)

  list->next->previous = entry;
  80a4b4:	e0bffb17 	ldw	r2,-20(fp)
  80a4b8:	10c00017 	ldw	r3,0(r2)
  80a4bc:	e0bffc17 	ldw	r2,-16(fp)
  80a4c0:	18800115 	stw	r2,4(r3)
  list->next           = entry;
  80a4c4:	e0fffb17 	ldw	r3,-20(fp)
  80a4c8:	e0bffc17 	ldw	r2,-16(fp)
  80a4cc:	18800015 	stw	r2,0(r3)

  return 0;  
  80a4d0:	e03fff15 	stw	zero,-4(fp)
  80a4d4:	e0bfff17 	ldw	r2,-4(fp)
}
  80a4d8:	e037883a 	mov	sp,fp
  80a4dc:	dfc00117 	ldw	ra,4(sp)
  80a4e0:	df000017 	ldw	fp,0(sp)
  80a4e4:	dec00204 	addi	sp,sp,8
  80a4e8:	f800283a 	ret

0080a4ec <alt_get_errno>:
#undef errno

extern int errno;

static ALT_INLINE int* alt_get_errno(void)
{
  80a4ec:	defffd04 	addi	sp,sp,-12
  80a4f0:	dfc00215 	stw	ra,8(sp)
  80a4f4:	df000115 	stw	fp,4(sp)
  80a4f8:	df000104 	addi	fp,sp,4
  return ((alt_errno) ? alt_errno() : &errno);
  80a4fc:	00802074 	movhi	r2,129
  80a500:	10b52904 	addi	r2,r2,-11100
  80a504:	10800017 	ldw	r2,0(r2)
  80a508:	1005003a 	cmpeq	r2,r2,zero
  80a50c:	1000061e 	bne	r2,zero,80a528 <alt_get_errno+0x3c>
  80a510:	00802074 	movhi	r2,129
  80a514:	10b52904 	addi	r2,r2,-11100
  80a518:	10800017 	ldw	r2,0(r2)
  80a51c:	103ee83a 	callr	r2
  80a520:	e0bfff15 	stw	r2,-4(fp)
  80a524:	00000306 	br	80a534 <alt_get_errno+0x48>
  80a528:	00802074 	movhi	r2,129
  80a52c:	10bc9d04 	addi	r2,r2,-3468
  80a530:	e0bfff15 	stw	r2,-4(fp)
  80a534:	e0bfff17 	ldw	r2,-4(fp)
}
  80a538:	e037883a 	mov	sp,fp
  80a53c:	dfc00117 	ldw	ra,4(sp)
  80a540:	df000017 	ldw	fp,0(sp)
  80a544:	dec00204 	addi	sp,sp,8
  80a548:	f800283a 	ret

0080a54c <_do_ctors>:
/*
 * Run the C++ static constructors.
 */

void _do_ctors(void)
{
  80a54c:	defffd04 	addi	sp,sp,-12
  80a550:	dfc00215 	stw	ra,8(sp)
  80a554:	df000115 	stw	fp,4(sp)
  80a558:	df000104 	addi	fp,sp,4
  constructor* ctor;

  for (ctor = &__CTOR_END__[-1]; ctor >= __CTOR_LIST__; ctor--)
  80a55c:	00bfff04 	movi	r2,-4
  80a560:	00c02074 	movhi	r3,129
  80a564:	18ed0f04 	addi	r3,r3,-19396
  80a568:	1885883a 	add	r2,r3,r2
  80a56c:	e0bfff15 	stw	r2,-4(fp)
  80a570:	00000606 	br	80a58c <_do_ctors+0x40>
        (*ctor) (); 
  80a574:	e0bfff17 	ldw	r2,-4(fp)
  80a578:	10800017 	ldw	r2,0(r2)
  80a57c:	103ee83a 	callr	r2

void _do_ctors(void)
{
  constructor* ctor;

  for (ctor = &__CTOR_END__[-1]; ctor >= __CTOR_LIST__; ctor--)
  80a580:	e0bfff17 	ldw	r2,-4(fp)
  80a584:	10bfff04 	addi	r2,r2,-4
  80a588:	e0bfff15 	stw	r2,-4(fp)
  80a58c:	e0ffff17 	ldw	r3,-4(fp)
  80a590:	00802074 	movhi	r2,129
  80a594:	10ad0e04 	addi	r2,r2,-19400
  80a598:	18bff62e 	bgeu	r3,r2,80a574 <_do_ctors+0x28>
        (*ctor) (); 
}
  80a59c:	e037883a 	mov	sp,fp
  80a5a0:	dfc00117 	ldw	ra,4(sp)
  80a5a4:	df000017 	ldw	fp,0(sp)
  80a5a8:	dec00204 	addi	sp,sp,8
  80a5ac:	f800283a 	ret

0080a5b0 <_do_dtors>:
/*
 * Run the C++ static destructors.
 */

void _do_dtors(void)
{
  80a5b0:	defffd04 	addi	sp,sp,-12
  80a5b4:	dfc00215 	stw	ra,8(sp)
  80a5b8:	df000115 	stw	fp,4(sp)
  80a5bc:	df000104 	addi	fp,sp,4
  destructor* dtor;

  for (dtor = &__DTOR_END__[-1]; dtor >= __DTOR_LIST__; dtor--)
  80a5c0:	00bfff04 	movi	r2,-4
  80a5c4:	00c02074 	movhi	r3,129
  80a5c8:	18ed0f04 	addi	r3,r3,-19396
  80a5cc:	1885883a 	add	r2,r3,r2
  80a5d0:	e0bfff15 	stw	r2,-4(fp)
  80a5d4:	00000606 	br	80a5f0 <_do_dtors+0x40>
        (*dtor) (); 
  80a5d8:	e0bfff17 	ldw	r2,-4(fp)
  80a5dc:	10800017 	ldw	r2,0(r2)
  80a5e0:	103ee83a 	callr	r2

void _do_dtors(void)
{
  destructor* dtor;

  for (dtor = &__DTOR_END__[-1]; dtor >= __DTOR_LIST__; dtor--)
  80a5e4:	e0bfff17 	ldw	r2,-4(fp)
  80a5e8:	10bfff04 	addi	r2,r2,-4
  80a5ec:	e0bfff15 	stw	r2,-4(fp)
  80a5f0:	e0ffff17 	ldw	r3,-4(fp)
  80a5f4:	00802074 	movhi	r2,129
  80a5f8:	10ad0f04 	addi	r2,r2,-19396
  80a5fc:	18bff62e 	bgeu	r3,r2,80a5d8 <_do_dtors+0x28>
        (*dtor) (); 
}
  80a600:	e037883a 	mov	sp,fp
  80a604:	dfc00117 	ldw	ra,4(sp)
  80a608:	df000017 	ldw	fp,0(sp)
  80a60c:	dec00204 	addi	sp,sp,8
  80a610:	f800283a 	ret

0080a614 <alt_find_dev>:
 * "name" must be an exact match for the devices registered name for a match to
 * be found.
 */
 
alt_dev* alt_find_dev(const char* name, alt_llist* llist)
{
  80a614:	defff904 	addi	sp,sp,-28
  80a618:	dfc00615 	stw	ra,24(sp)
  80a61c:	df000515 	stw	fp,20(sp)
  80a620:	df000504 	addi	fp,sp,20
  80a624:	e13ffd15 	stw	r4,-12(fp)
  80a628:	e17ffe15 	stw	r5,-8(fp)
  alt_dev* next = (alt_dev*) llist->next;
  80a62c:	e0bffe17 	ldw	r2,-8(fp)
  80a630:	10800017 	ldw	r2,0(r2)
  80a634:	e0bffc15 	stw	r2,-16(fp)
  alt_32 len;

  len  = strlen(name) + 1;
  80a638:	e13ffd17 	ldw	r4,-12(fp)
  80a63c:	08043a00 	call	8043a0 <strlen>
  80a640:	10800044 	addi	r2,r2,1
  80a644:	e0bffb15 	stw	r2,-20(fp)
  /*
   * Check each list entry in turn, until a match is found, or we reach the
   * end of the list (i.e. next winds up pointing back to the list head).
   */ 

  while (next != (alt_dev*) llist)
  80a648:	00000d06 	br	80a680 <alt_find_dev+0x6c>
    /* 
     * memcmp() is used here rather than strcmp() in order to reduce the size
     * of the executable.
     */

    if (!memcmp (next->name, name, len))
  80a64c:	e0bffc17 	ldw	r2,-16(fp)
  80a650:	11000217 	ldw	r4,8(r2)
  80a654:	e1bffb17 	ldw	r6,-20(fp)
  80a658:	e17ffd17 	ldw	r5,-12(fp)
  80a65c:	080af300 	call	80af30 <memcmp>
  80a660:	1004c03a 	cmpne	r2,r2,zero
  80a664:	1000031e 	bne	r2,zero,80a674 <alt_find_dev+0x60>
    {
      /* match found */

      return next;
  80a668:	e0bffc17 	ldw	r2,-16(fp)
  80a66c:	e0bfff15 	stw	r2,-4(fp)
  80a670:	00000706 	br	80a690 <alt_find_dev+0x7c>
    }
    next = (alt_dev*) next->llist.next;
  80a674:	e0bffc17 	ldw	r2,-16(fp)
  80a678:	10800017 	ldw	r2,0(r2)
  80a67c:	e0bffc15 	stw	r2,-16(fp)
  /*
   * Check each list entry in turn, until a match is found, or we reach the
   * end of the list (i.e. next winds up pointing back to the list head).
   */ 

  while (next != (alt_dev*) llist)
  80a680:	e0fffe17 	ldw	r3,-8(fp)
  80a684:	e0bffc17 	ldw	r2,-16(fp)
  80a688:	10fff01e 	bne	r2,r3,80a64c <alt_find_dev+0x38>
    next = (alt_dev*) next->llist.next;
  }
  
  /* No match found */
  
  return NULL;
  80a68c:	e03fff15 	stw	zero,-4(fp)
  80a690:	e0bfff17 	ldw	r2,-4(fp)
}
  80a694:	e037883a 	mov	sp,fp
  80a698:	dfc00117 	ldw	ra,4(sp)
  80a69c:	df000017 	ldw	fp,0(sp)
  80a6a0:	dec00204 	addi	sp,sp,8
  80a6a4:	f800283a 	ret

0080a6a8 <alt_find_file>:
 * either '/' or '\0' is the prefix of the filename. For example the filename:
 * "/myfilesystem/junk.txt" would match: "/myfilesystem", but not: "/myfile". 
 */
 
alt_dev* alt_find_file (const char* name)
{
  80a6a8:	defffa04 	addi	sp,sp,-24
  80a6ac:	dfc00515 	stw	ra,20(sp)
  80a6b0:	df000415 	stw	fp,16(sp)
  80a6b4:	df000404 	addi	fp,sp,16
  80a6b8:	e13ffe15 	stw	r4,-8(fp)
  alt_dev* next = (alt_dev*) alt_fs_list.next;   
  80a6bc:	00802074 	movhi	r2,129
  80a6c0:	10b52404 	addi	r2,r2,-11120
  80a6c4:	10800017 	ldw	r2,0(r2)
  80a6c8:	e0bffd15 	stw	r2,-12(fp)
  /*
   * Check each list entry in turn, until a match is found, or we reach the
   * end of the list (i.e. next winds up pointing back to the list head).
   */ 
 
  while (next != (alt_dev*) &alt_fs_list)
  80a6cc:	00003306 	br	80a79c <alt_find_file+0xf4>
  {
    len = strlen(next->name);
  80a6d0:	e0bffd17 	ldw	r2,-12(fp)
  80a6d4:	11000217 	ldw	r4,8(r2)
  80a6d8:	08043a00 	call	8043a0 <strlen>
  80a6dc:	e0bffc15 	stw	r2,-16(fp)
    
    if (next->name[len-1] == '/')
  80a6e0:	e0bffd17 	ldw	r2,-12(fp)
  80a6e4:	10c00217 	ldw	r3,8(r2)
  80a6e8:	e0bffc17 	ldw	r2,-16(fp)
  80a6ec:	1885883a 	add	r2,r3,r2
  80a6f0:	10bfffc4 	addi	r2,r2,-1
  80a6f4:	10800003 	ldbu	r2,0(r2)
  80a6f8:	10803fcc 	andi	r2,r2,255
  80a6fc:	1080201c 	xori	r2,r2,128
  80a700:	10bfe004 	addi	r2,r2,-128
  80a704:	10800bd8 	cmpnei	r2,r2,47
  80a708:	1000031e 	bne	r2,zero,80a718 <alt_find_file+0x70>
    {
      len -= 1;
  80a70c:	e0bffc17 	ldw	r2,-16(fp)
  80a710:	10bfffc4 	addi	r2,r2,-1
  80a714:	e0bffc15 	stw	r2,-16(fp)
    }

    if (((name[len] == '/') || (name[len] == '\0')) && 
  80a718:	e0bffc17 	ldw	r2,-16(fp)
  80a71c:	1007883a 	mov	r3,r2
  80a720:	e0bffe17 	ldw	r2,-8(fp)
  80a724:	1885883a 	add	r2,r3,r2
  80a728:	10800003 	ldbu	r2,0(r2)
  80a72c:	10803fcc 	andi	r2,r2,255
  80a730:	1080201c 	xori	r2,r2,128
  80a734:	10bfe004 	addi	r2,r2,-128
  80a738:	10800be0 	cmpeqi	r2,r2,47
  80a73c:	10000a1e 	bne	r2,zero,80a768 <alt_find_file+0xc0>
  80a740:	e0bffc17 	ldw	r2,-16(fp)
  80a744:	1007883a 	mov	r3,r2
  80a748:	e0bffe17 	ldw	r2,-8(fp)
  80a74c:	1885883a 	add	r2,r3,r2
  80a750:	10800003 	ldbu	r2,0(r2)
  80a754:	10803fcc 	andi	r2,r2,255
  80a758:	1080201c 	xori	r2,r2,128
  80a75c:	10bfe004 	addi	r2,r2,-128
  80a760:	1004c03a 	cmpne	r2,r2,zero
  80a764:	10000a1e 	bne	r2,zero,80a790 <alt_find_file+0xe8>
  80a768:	e0bffd17 	ldw	r2,-12(fp)
  80a76c:	11000217 	ldw	r4,8(r2)
  80a770:	e1bffc17 	ldw	r6,-16(fp)
  80a774:	e17ffe17 	ldw	r5,-8(fp)
  80a778:	080af300 	call	80af30 <memcmp>
  80a77c:	1004c03a 	cmpne	r2,r2,zero
  80a780:	1000031e 	bne	r2,zero,80a790 <alt_find_file+0xe8>
        !memcmp (next->name, name, len))
    {
      /* match found */

      return next;
  80a784:	e0bffd17 	ldw	r2,-12(fp)
  80a788:	e0bfff15 	stw	r2,-4(fp)
  80a78c:	00000806 	br	80a7b0 <alt_find_file+0x108>
    }
    next = (alt_dev*) next->llist.next;
  80a790:	e0bffd17 	ldw	r2,-12(fp)
  80a794:	10800017 	ldw	r2,0(r2)
  80a798:	e0bffd15 	stw	r2,-12(fp)
  /*
   * Check each list entry in turn, until a match is found, or we reach the
   * end of the list (i.e. next winds up pointing back to the list head).
   */ 
 
  while (next != (alt_dev*) &alt_fs_list)
  80a79c:	00c02074 	movhi	r3,129
  80a7a0:	18f52404 	addi	r3,r3,-11120
  80a7a4:	e0bffd17 	ldw	r2,-12(fp)
  80a7a8:	10ffc91e 	bne	r2,r3,80a6d0 <alt_find_file+0x28>
    next = (alt_dev*) next->llist.next;
  }
  
  /* No match found */
  
  return NULL;     
  80a7ac:	e03fff15 	stw	zero,-4(fp)
  80a7b0:	e0bfff17 	ldw	r2,-4(fp)
}
  80a7b4:	e037883a 	mov	sp,fp
  80a7b8:	dfc00117 	ldw	ra,4(sp)
  80a7bc:	df000017 	ldw	fp,0(sp)
  80a7c0:	dec00204 	addi	sp,sp,8
  80a7c4:	f800283a 	ret

0080a7c8 <alt_get_fd>:
 * the offset of the file descriptor within the file descriptor array). A
 * negative value indicates failure.
 */

int alt_get_fd (alt_dev* dev)
{
  80a7c8:	defffc04 	addi	sp,sp,-16
  80a7cc:	df000315 	stw	fp,12(sp)
  80a7d0:	df000304 	addi	fp,sp,12
  80a7d4:	e13fff15 	stw	r4,-4(fp)
  alt_32 i;
  int rc = -EMFILE;
  80a7d8:	00bffa04 	movi	r2,-24
  80a7dc:	e0bffd15 	stw	r2,-12(fp)
   * indicates the highest file descriptor ever allocated. This is used to
   * improve efficency when searching the file descriptor list, and 
   * therefore reduce contention on the alt_fd_list_lock semaphore. 
   */

  for (i = 0; i < ALT_MAX_FD; i++)
  80a7e0:	e03ffe15 	stw	zero,-8(fp)
  80a7e4:	00001e06 	br	80a860 <alt_get_fd+0x98>
  {
    if (!alt_fd_list[i].dev)
  80a7e8:	e0bffe17 	ldw	r2,-8(fp)
  80a7ec:	00c02074 	movhi	r3,129
  80a7f0:	18f02e04 	addi	r3,r3,-16200
  80a7f4:	10800324 	muli	r2,r2,12
  80a7f8:	10c5883a 	add	r2,r2,r3
  80a7fc:	10800017 	ldw	r2,0(r2)
  80a800:	1004c03a 	cmpne	r2,r2,zero
  80a804:	1000131e 	bne	r2,zero,80a854 <alt_get_fd+0x8c>
    {
      alt_fd_list[i].dev = dev;
  80a808:	e0bffe17 	ldw	r2,-8(fp)
  80a80c:	00c02074 	movhi	r3,129
  80a810:	18f02e04 	addi	r3,r3,-16200
  80a814:	10800324 	muli	r2,r2,12
  80a818:	10c7883a 	add	r3,r2,r3
  80a81c:	e0bfff17 	ldw	r2,-4(fp)
  80a820:	18800015 	stw	r2,0(r3)
      if (i > alt_max_fd)
  80a824:	00802074 	movhi	r2,129
  80a828:	10b52804 	addi	r2,r2,-11104
  80a82c:	10c00017 	ldw	r3,0(r2)
  80a830:	e0bffe17 	ldw	r2,-8(fp)
  80a834:	1880040e 	bge	r3,r2,80a848 <alt_get_fd+0x80>
      {
        alt_max_fd = i;
  80a838:	00c02074 	movhi	r3,129
  80a83c:	18f52804 	addi	r3,r3,-11104
  80a840:	e0bffe17 	ldw	r2,-8(fp)
  80a844:	18800015 	stw	r2,0(r3)
      }
      rc = i;
  80a848:	e0bffe17 	ldw	r2,-8(fp)
  80a84c:	e0bffd15 	stw	r2,-12(fp)
      goto alt_get_fd_exit;
  80a850:	00000606 	br	80a86c <alt_get_fd+0xa4>
   * indicates the highest file descriptor ever allocated. This is used to
   * improve efficency when searching the file descriptor list, and 
   * therefore reduce contention on the alt_fd_list_lock semaphore. 
   */

  for (i = 0; i < ALT_MAX_FD; i++)
  80a854:	e0bffe17 	ldw	r2,-8(fp)
  80a858:	10800044 	addi	r2,r2,1
  80a85c:	e0bffe15 	stw	r2,-8(fp)
  80a860:	e0bffe17 	ldw	r2,-8(fp)
  80a864:	10800810 	cmplti	r2,r2,32
  80a868:	103fdf1e 	bne	r2,zero,80a7e8 <alt_get_fd+0x20>
   * file descriptor pool.
   */

  ALT_SEM_POST(alt_fd_list_lock);

  return rc;
  80a86c:	e0bffd17 	ldw	r2,-12(fp)
}
  80a870:	e037883a 	mov	sp,fp
  80a874:	df000017 	ldw	fp,0(sp)
  80a878:	dec00104 	addi	sp,sp,4
  80a87c:	f800283a 	ret

0080a880 <alt_icache_flush_all>:
/*
 * alt_icache_flush_all() is called to flush the entire instruction cache.
 */

void alt_icache_flush_all (void)
{
  80a880:	defffe04 	addi	sp,sp,-8
  80a884:	dfc00115 	stw	ra,4(sp)
  80a888:	df000015 	stw	fp,0(sp)
  80a88c:	d839883a 	mov	fp,sp
#if NIOS2_ICACHE_SIZE > 0
  alt_icache_flush (0, NIOS2_ICACHE_SIZE);
  80a890:	0009883a 	mov	r4,zero
  80a894:	01440004 	movi	r5,4096
  80a898:	080ae540 	call	80ae54 <alt_icache_flush>
#endif
}
  80a89c:	e037883a 	mov	sp,fp
  80a8a0:	dfc00117 	ldw	ra,4(sp)
  80a8a4:	df000017 	ldw	fp,0(sp)
  80a8a8:	dec00204 	addi	sp,sp,8
  80a8ac:	f800283a 	ret

0080a8b0 <alt_ic_isr_register>:
  * @param irq              IRQ number
  * @return                 0 if successful, else error (-1)
  */
int alt_ic_isr_register(alt_u32 ic_id, alt_u32 irq, alt_isr_func isr, 
  void *isr_context, void *flags)
{
  80a8b0:	defff904 	addi	sp,sp,-28
  80a8b4:	dfc00615 	stw	ra,24(sp)
  80a8b8:	df000515 	stw	fp,20(sp)
  80a8bc:	df000504 	addi	fp,sp,20
  80a8c0:	e13ffc15 	stw	r4,-16(fp)
  80a8c4:	e17ffd15 	stw	r5,-12(fp)
  80a8c8:	e1bffe15 	stw	r6,-8(fp)
  80a8cc:	e1ffff15 	stw	r7,-4(fp)
    return alt_iic_isr_register(ic_id, irq, isr, isr_context, flags);
  80a8d0:	e0800217 	ldw	r2,8(fp)
  80a8d4:	d8800015 	stw	r2,0(sp)
  80a8d8:	e13ffc17 	ldw	r4,-16(fp)
  80a8dc:	e17ffd17 	ldw	r5,-12(fp)
  80a8e0:	e1bffe17 	ldw	r6,-8(fp)
  80a8e4:	e1ffff17 	ldw	r7,-4(fp)
  80a8e8:	080aa840 	call	80aa84 <alt_iic_isr_register>
}  
  80a8ec:	e037883a 	mov	sp,fp
  80a8f0:	dfc00117 	ldw	ra,4(sp)
  80a8f4:	df000017 	ldw	fp,0(sp)
  80a8f8:	dec00204 	addi	sp,sp,8
  80a8fc:	f800283a 	ret

0080a900 <alt_ic_irq_enable>:
  * @param ic_id            Ignored.
  * @param irq              IRQ number
  * @return                 0 if successful, else error (-1)
  */
int alt_ic_irq_enable (alt_u32 ic_id, alt_u32 irq)
{
  80a900:	defff904 	addi	sp,sp,-28
  80a904:	df000615 	stw	fp,24(sp)
  80a908:	df000604 	addi	fp,sp,24
  80a90c:	e13ffe15 	stw	r4,-8(fp)
  80a910:	e17fff15 	stw	r5,-4(fp)
  80a914:	e0bfff17 	ldw	r2,-4(fp)
  80a918:	e0bffc15 	stw	r2,-16(fp)
static ALT_INLINE alt_irq_context ALT_ALWAYS_INLINE 
       alt_irq_disable_all (void)
{
  alt_irq_context context;

  NIOS2_READ_STATUS (context);
  80a91c:	0005303a 	rdctl	r2,status
  80a920:	e0bffb15 	stw	r2,-20(fp)

  NIOS2_WRITE_STATUS (context & ~NIOS2_STATUS_PIE_MSK);
  80a924:	e0fffb17 	ldw	r3,-20(fp)
  80a928:	00bfff84 	movi	r2,-2
  80a92c:	1884703a 	and	r2,r3,r2
  80a930:	1001703a 	wrctl	status,r2
  
  return context;
  80a934:	e0bffb17 	ldw	r2,-20(fp)
static ALT_INLINE int ALT_ALWAYS_INLINE alt_irq_enable (alt_u32 id)
{
  alt_irq_context  status;
  extern volatile alt_u32 alt_irq_active;

  status = alt_irq_disable_all ();
  80a938:	e0bffd15 	stw	r2,-12(fp)

  alt_irq_active |= (1 << id);
  80a93c:	e0fffc17 	ldw	r3,-16(fp)
  80a940:	00800044 	movi	r2,1
  80a944:	10c4983a 	sll	r2,r2,r3
  80a948:	1007883a 	mov	r3,r2
  80a94c:	00802074 	movhi	r2,129
  80a950:	10bc9e04 	addi	r2,r2,-3464
  80a954:	10800017 	ldw	r2,0(r2)
  80a958:	1886b03a 	or	r3,r3,r2
  80a95c:	00802074 	movhi	r2,129
  80a960:	10bc9e04 	addi	r2,r2,-3464
  80a964:	10c00015 	stw	r3,0(r2)
  NIOS2_WRITE_IENABLE (alt_irq_active);
  80a968:	00802074 	movhi	r2,129
  80a96c:	10bc9e04 	addi	r2,r2,-3464
  80a970:	10800017 	ldw	r2,0(r2)
  80a974:	100170fa 	wrctl	ienable,r2
  80a978:	e0bffd17 	ldw	r2,-12(fp)
  80a97c:	e0bffa15 	stw	r2,-24(fp)
  status &= ~NIOS2_STATUS_PIE_MSK;
  status |= (context & NIOS2_STATUS_PIE_MSK);
  
  NIOS2_WRITE_STATUS (status);
#else
  NIOS2_WRITE_STATUS (context);
  80a980:	e0bffa17 	ldw	r2,-24(fp)
  80a984:	1001703a 	wrctl	status,r2

  alt_irq_enable_all(status);

  return 0;
  80a988:	0005883a 	mov	r2,zero
    return alt_irq_enable(irq);
}
  80a98c:	e037883a 	mov	sp,fp
  80a990:	df000017 	ldw	fp,0(sp)
  80a994:	dec00104 	addi	sp,sp,4
  80a998:	f800283a 	ret

0080a99c <alt_ic_irq_disable>:
  * @param ic_id            Ignored.
  * @param irq              IRQ number
  * @return                 0 if successful, else error (-1)
  */
int alt_ic_irq_disable(alt_u32 ic_id, alt_u32 irq)
{
  80a99c:	defff904 	addi	sp,sp,-28
  80a9a0:	df000615 	stw	fp,24(sp)
  80a9a4:	df000604 	addi	fp,sp,24
  80a9a8:	e13ffe15 	stw	r4,-8(fp)
  80a9ac:	e17fff15 	stw	r5,-4(fp)
  80a9b0:	e0bfff17 	ldw	r2,-4(fp)
  80a9b4:	e0bffc15 	stw	r2,-16(fp)
static ALT_INLINE alt_irq_context ALT_ALWAYS_INLINE 
       alt_irq_disable_all (void)
{
  alt_irq_context context;

  NIOS2_READ_STATUS (context);
  80a9b8:	0005303a 	rdctl	r2,status
  80a9bc:	e0bffb15 	stw	r2,-20(fp)

  NIOS2_WRITE_STATUS (context & ~NIOS2_STATUS_PIE_MSK);
  80a9c0:	e0fffb17 	ldw	r3,-20(fp)
  80a9c4:	00bfff84 	movi	r2,-2
  80a9c8:	1884703a 	and	r2,r3,r2
  80a9cc:	1001703a 	wrctl	status,r2
  
  return context;
  80a9d0:	e0bffb17 	ldw	r2,-20(fp)
static ALT_INLINE int ALT_ALWAYS_INLINE alt_irq_disable (alt_u32 id)
{
  alt_irq_context  status;
  extern volatile alt_u32 alt_irq_active;

  status = alt_irq_disable_all ();
  80a9d4:	e0bffd15 	stw	r2,-12(fp)

  alt_irq_active &= ~(1 << id);
  80a9d8:	e0fffc17 	ldw	r3,-16(fp)
  80a9dc:	00800044 	movi	r2,1
  80a9e0:	10c4983a 	sll	r2,r2,r3
  80a9e4:	0084303a 	nor	r2,zero,r2
  80a9e8:	1007883a 	mov	r3,r2
  80a9ec:	00802074 	movhi	r2,129
  80a9f0:	10bc9e04 	addi	r2,r2,-3464
  80a9f4:	10800017 	ldw	r2,0(r2)
  80a9f8:	1886703a 	and	r3,r3,r2
  80a9fc:	00802074 	movhi	r2,129
  80aa00:	10bc9e04 	addi	r2,r2,-3464
  80aa04:	10c00015 	stw	r3,0(r2)
  NIOS2_WRITE_IENABLE (alt_irq_active);
  80aa08:	00802074 	movhi	r2,129
  80aa0c:	10bc9e04 	addi	r2,r2,-3464
  80aa10:	10800017 	ldw	r2,0(r2)
  80aa14:	100170fa 	wrctl	ienable,r2
  80aa18:	e0bffd17 	ldw	r2,-12(fp)
  80aa1c:	e0bffa15 	stw	r2,-24(fp)
  status &= ~NIOS2_STATUS_PIE_MSK;
  status |= (context & NIOS2_STATUS_PIE_MSK);
  
  NIOS2_WRITE_STATUS (status);
#else
  NIOS2_WRITE_STATUS (context);
  80aa20:	e0bffa17 	ldw	r2,-24(fp)
  80aa24:	1001703a 	wrctl	status,r2

  alt_irq_enable_all(status);

  return 0;
  80aa28:	0005883a 	mov	r2,zero
    return alt_irq_disable(irq);
}
  80aa2c:	e037883a 	mov	sp,fp
  80aa30:	df000017 	ldw	fp,0(sp)
  80aa34:	dec00104 	addi	sp,sp,4
  80aa38:	f800283a 	ret

0080aa3c <alt_ic_irq_enabled>:
  * @param irq              IRQ number
  * @return                 Zero if corresponding interrupt is disabled and
  *                         non-zero otherwise.
  */
alt_u32 alt_ic_irq_enabled(alt_u32 ic_id, alt_u32 irq)
{
  80aa3c:	defffc04 	addi	sp,sp,-16
  80aa40:	df000315 	stw	fp,12(sp)
  80aa44:	df000304 	addi	fp,sp,12
  80aa48:	e13ffe15 	stw	r4,-8(fp)
  80aa4c:	e17fff15 	stw	r5,-4(fp)
    alt_u32 irq_enabled;

    NIOS2_READ_IENABLE(irq_enabled);
  80aa50:	000530fa 	rdctl	r2,ienable
  80aa54:	e0bffd15 	stw	r2,-12(fp)

    return (irq_enabled & (1 << irq)) ? 1: 0;
  80aa58:	e0ffff17 	ldw	r3,-4(fp)
  80aa5c:	00800044 	movi	r2,1
  80aa60:	10c4983a 	sll	r2,r2,r3
  80aa64:	1007883a 	mov	r3,r2
  80aa68:	e0bffd17 	ldw	r2,-12(fp)
  80aa6c:	1884703a 	and	r2,r3,r2
  80aa70:	1004c03a 	cmpne	r2,r2,zero
}
  80aa74:	e037883a 	mov	sp,fp
  80aa78:	df000017 	ldw	fp,0(sp)
  80aa7c:	dec00104 	addi	sp,sp,4
  80aa80:	f800283a 	ret

0080aa84 <alt_iic_isr_register>:
  * @param flags            
  * @return                 0 if successful, else error (-1)
  */
int alt_iic_isr_register(alt_u32 ic_id, alt_u32 irq, alt_isr_func isr, 
  void *isr_context, void *flags)
{
  80aa84:	defff404 	addi	sp,sp,-48
  80aa88:	dfc00b15 	stw	ra,44(sp)
  80aa8c:	df000a15 	stw	fp,40(sp)
  80aa90:	df000a04 	addi	fp,sp,40
  80aa94:	e13ffb15 	stw	r4,-20(fp)
  80aa98:	e17ffc15 	stw	r5,-16(fp)
  80aa9c:	e1bffd15 	stw	r6,-12(fp)
  80aaa0:	e1fffe15 	stw	r7,-8(fp)
  int rc = -EINVAL;  
  80aaa4:	00bffa84 	movi	r2,-22
  80aaa8:	e0bffa15 	stw	r2,-24(fp)
  int id = irq;             /* IRQ interpreted as the interrupt ID. */
  80aaac:	e0bffc17 	ldw	r2,-16(fp)
  80aab0:	e0bff915 	stw	r2,-28(fp)
  alt_irq_context status;

  if (id < ALT_NIRQ)
  80aab4:	e0bff917 	ldw	r2,-28(fp)
  80aab8:	10800808 	cmpgei	r2,r2,32
  80aabc:	1000291e 	bne	r2,zero,80ab64 <alt_iic_isr_register+0xe0>
static ALT_INLINE alt_irq_context ALT_ALWAYS_INLINE 
       alt_irq_disable_all (void)
{
  alt_irq_context context;

  NIOS2_READ_STATUS (context);
  80aac0:	0005303a 	rdctl	r2,status
  80aac4:	e0bff715 	stw	r2,-36(fp)

  NIOS2_WRITE_STATUS (context & ~NIOS2_STATUS_PIE_MSK);
  80aac8:	e0fff717 	ldw	r3,-36(fp)
  80aacc:	00bfff84 	movi	r2,-2
  80aad0:	1884703a 	and	r2,r3,r2
  80aad4:	1001703a 	wrctl	status,r2
  
  return context;
  80aad8:	e0bff717 	ldw	r2,-36(fp)
     * interrupts are disabled while the handler tables are updated to ensure
     * that an interrupt doesn't occur while the tables are in an inconsistant
     * state.
     */

    status = alt_irq_disable_all();
  80aadc:	e0bff815 	stw	r2,-32(fp)

    alt_irq[id].handler = isr;
  80aae0:	e0bff917 	ldw	r2,-28(fp)
  80aae4:	00c02074 	movhi	r3,129
  80aae8:	18fcde04 	addi	r3,r3,-3208
  80aaec:	100490fa 	slli	r2,r2,3
  80aaf0:	10c7883a 	add	r3,r2,r3
  80aaf4:	e0bffd17 	ldw	r2,-12(fp)
  80aaf8:	18800015 	stw	r2,0(r3)
    alt_irq[id].context = isr_context;
  80aafc:	e0bff917 	ldw	r2,-28(fp)
  80ab00:	00c02074 	movhi	r3,129
  80ab04:	18fcde04 	addi	r3,r3,-3208
  80ab08:	100490fa 	slli	r2,r2,3
  80ab0c:	10c5883a 	add	r2,r2,r3
  80ab10:	10c00104 	addi	r3,r2,4
  80ab14:	e0bffe17 	ldw	r2,-8(fp)
  80ab18:	18800015 	stw	r2,0(r3)

    rc = (isr) ? alt_ic_irq_enable(ic_id, id) : alt_ic_irq_disable(ic_id, id);
  80ab1c:	e0bffd17 	ldw	r2,-12(fp)
  80ab20:	1005003a 	cmpeq	r2,r2,zero
  80ab24:	1000051e 	bne	r2,zero,80ab3c <alt_iic_isr_register+0xb8>
  80ab28:	e17ff917 	ldw	r5,-28(fp)
  80ab2c:	e13ffb17 	ldw	r4,-20(fp)
  80ab30:	080a9000 	call	80a900 <alt_ic_irq_enable>
  80ab34:	e0bfff15 	stw	r2,-4(fp)
  80ab38:	00000406 	br	80ab4c <alt_iic_isr_register+0xc8>
  80ab3c:	e17ff917 	ldw	r5,-28(fp)
  80ab40:	e13ffb17 	ldw	r4,-20(fp)
  80ab44:	080a99c0 	call	80a99c <alt_ic_irq_disable>
  80ab48:	e0bfff15 	stw	r2,-4(fp)
  80ab4c:	e0bfff17 	ldw	r2,-4(fp)
  80ab50:	e0bffa15 	stw	r2,-24(fp)
  80ab54:	e0bff817 	ldw	r2,-32(fp)
  80ab58:	e0bff615 	stw	r2,-40(fp)
  status &= ~NIOS2_STATUS_PIE_MSK;
  status |= (context & NIOS2_STATUS_PIE_MSK);
  
  NIOS2_WRITE_STATUS (status);
#else
  NIOS2_WRITE_STATUS (context);
  80ab5c:	e0bff617 	ldw	r2,-40(fp)
  80ab60:	1001703a 	wrctl	status,r2

    alt_irq_enable_all(status);
  }

  return rc; 
  80ab64:	e0bffa17 	ldw	r2,-24(fp)
}
  80ab68:	e037883a 	mov	sp,fp
  80ab6c:	dfc00117 	ldw	ra,4(sp)
  80ab70:	df000017 	ldw	fp,0(sp)
  80ab74:	dec00204 	addi	sp,sp,8
  80ab78:	f800283a 	ret

0080ab7c <alt_open_fd>:
 * If the device can not be succesfully opened, then the input file descriptor
 * remains unchanged.
 */

static void alt_open_fd(alt_fd* fd, const char* name, int flags, int mode)
{
  80ab7c:	defff904 	addi	sp,sp,-28
  80ab80:	dfc00615 	stw	ra,24(sp)
  80ab84:	df000515 	stw	fp,20(sp)
  80ab88:	df000504 	addi	fp,sp,20
  80ab8c:	e13ffc15 	stw	r4,-16(fp)
  80ab90:	e17ffd15 	stw	r5,-12(fp)
  80ab94:	e1bffe15 	stw	r6,-8(fp)
  80ab98:	e1ffff15 	stw	r7,-4(fp)
  int old;

  old = open (name, flags, mode);
  80ab9c:	e13ffd17 	ldw	r4,-12(fp)
  80aba0:	e17ffe17 	ldw	r5,-8(fp)
  80aba4:	e1bfff17 	ldw	r6,-4(fp)
  80aba8:	08076b00 	call	8076b0 <open>
  80abac:	e0bffb15 	stw	r2,-20(fp)

  if (old >= 0)
  80abb0:	e0bffb17 	ldw	r2,-20(fp)
  80abb4:	1004803a 	cmplt	r2,r2,zero
  80abb8:	10001c1e 	bne	r2,zero,80ac2c <alt_open_fd+0xb0>
  {
    fd->dev      = alt_fd_list[old].dev;
  80abbc:	e0bffb17 	ldw	r2,-20(fp)
  80abc0:	00c02074 	movhi	r3,129
  80abc4:	18f02e04 	addi	r3,r3,-16200
  80abc8:	10800324 	muli	r2,r2,12
  80abcc:	10c5883a 	add	r2,r2,r3
  80abd0:	10c00017 	ldw	r3,0(r2)
  80abd4:	e0bffc17 	ldw	r2,-16(fp)
  80abd8:	10c00015 	stw	r3,0(r2)
    fd->priv     = alt_fd_list[old].priv;
  80abdc:	e0bffb17 	ldw	r2,-20(fp)
  80abe0:	00c02074 	movhi	r3,129
  80abe4:	18f02e04 	addi	r3,r3,-16200
  80abe8:	10800324 	muli	r2,r2,12
  80abec:	10c5883a 	add	r2,r2,r3
  80abf0:	10800104 	addi	r2,r2,4
  80abf4:	10c00017 	ldw	r3,0(r2)
  80abf8:	e0bffc17 	ldw	r2,-16(fp)
  80abfc:	10c00115 	stw	r3,4(r2)
    fd->fd_flags = alt_fd_list[old].fd_flags;
  80ac00:	e0bffb17 	ldw	r2,-20(fp)
  80ac04:	00c02074 	movhi	r3,129
  80ac08:	18f02e04 	addi	r3,r3,-16200
  80ac0c:	10800324 	muli	r2,r2,12
  80ac10:	10c5883a 	add	r2,r2,r3
  80ac14:	10800204 	addi	r2,r2,8
  80ac18:	10c00017 	ldw	r3,0(r2)
  80ac1c:	e0bffc17 	ldw	r2,-16(fp)
  80ac20:	10c00215 	stw	r3,8(r2)

    alt_release_fd (old);
  80ac24:	e13ffb17 	ldw	r4,-20(fp)
  80ac28:	0807a180 	call	807a18 <alt_release_fd>
  }
} 
  80ac2c:	e037883a 	mov	sp,fp
  80ac30:	dfc00117 	ldw	ra,4(sp)
  80ac34:	df000017 	ldw	fp,0(sp)
  80ac38:	dec00204 	addi	sp,sp,8
  80ac3c:	f800283a 	ret

0080ac40 <alt_io_redirect>:
 */
 
void alt_io_redirect(const char* stdout_dev, 
                     const char* stdin_dev, 
                     const char* stderr_dev)
{
  80ac40:	defffb04 	addi	sp,sp,-20
  80ac44:	dfc00415 	stw	ra,16(sp)
  80ac48:	df000315 	stw	fp,12(sp)
  80ac4c:	df000304 	addi	fp,sp,12
  80ac50:	e13ffd15 	stw	r4,-12(fp)
  80ac54:	e17ffe15 	stw	r5,-8(fp)
  80ac58:	e1bfff15 	stw	r6,-4(fp)
  /* Redirect the channels */

  alt_open_fd (&alt_fd_list[STDOUT_FILENO], stdout_dev, O_WRONLY, 0777);
  80ac5c:	01002074 	movhi	r4,129
  80ac60:	21303104 	addi	r4,r4,-16188
  80ac64:	e17ffd17 	ldw	r5,-12(fp)
  80ac68:	01800044 	movi	r6,1
  80ac6c:	01c07fc4 	movi	r7,511
  80ac70:	080ab7c0 	call	80ab7c <alt_open_fd>
  alt_open_fd (&alt_fd_list[STDIN_FILENO], stdin_dev, O_RDONLY, 0777);
  80ac74:	01002074 	movhi	r4,129
  80ac78:	21302e04 	addi	r4,r4,-16200
  80ac7c:	e17ffe17 	ldw	r5,-8(fp)
  80ac80:	000d883a 	mov	r6,zero
  80ac84:	01c07fc4 	movi	r7,511
  80ac88:	080ab7c0 	call	80ab7c <alt_open_fd>
  alt_open_fd (&alt_fd_list[STDERR_FILENO], stderr_dev, O_WRONLY, 0777);
  80ac8c:	01002074 	movhi	r4,129
  80ac90:	21303404 	addi	r4,r4,-16176
  80ac94:	e17fff17 	ldw	r5,-4(fp)
  80ac98:	01800044 	movi	r6,1
  80ac9c:	01c07fc4 	movi	r7,511
  80aca0:	080ab7c0 	call	80ab7c <alt_open_fd>
}  
  80aca4:	e037883a 	mov	sp,fp
  80aca8:	dfc00117 	ldw	ra,4(sp)
  80acac:	df000017 	ldw	fp,0(sp)
  80acb0:	dec00204 	addi	sp,sp,8
  80acb4:	f800283a 	ret

0080acb8 <usleep>:
#if defined (__GNUC__) && __GNUC__ >= 4
int ALT_USLEEP (useconds_t us)
#else
unsigned int ALT_USLEEP (unsigned int us)
#endif
{
  80acb8:	defffd04 	addi	sp,sp,-12
  80acbc:	dfc00215 	stw	ra,8(sp)
  80acc0:	df000115 	stw	fp,4(sp)
  80acc4:	df000104 	addi	fp,sp,4
  80acc8:	e13fff15 	stw	r4,-4(fp)
  return alt_busy_sleep(us);
  80accc:	e13fff17 	ldw	r4,-4(fp)
  80acd0:	080ad080 	call	80ad08 <alt_busy_sleep>
}
  80acd4:	e037883a 	mov	sp,fp
  80acd8:	dfc00117 	ldw	ra,4(sp)
  80acdc:	df000017 	ldw	fp,0(sp)
  80ace0:	dec00204 	addi	sp,sp,8
  80ace4:	f800283a 	ret

0080ace8 <altera_nios2_qsys_irq_init>:
/*
 * To initialize the internal interrupt controller, just clear the IENABLE
 * register so that all possible IRQs are disabled.
 */
void altera_nios2_qsys_irq_init(void) 
{
  80ace8:	deffff04 	addi	sp,sp,-4
  80acec:	df000015 	stw	fp,0(sp)
  80acf0:	d839883a 	mov	fp,sp
    NIOS2_WRITE_IENABLE(0);
  80acf4:	000170fa 	wrctl	ienable,zero
}
  80acf8:	e037883a 	mov	sp,fp
  80acfc:	df000017 	ldw	fp,0(sp)
  80ad00:	dec00104 	addi	sp,sp,4
  80ad04:	f800283a 	ret

0080ad08 <alt_busy_sleep>:
#include "alt_types.h"

#include "priv/alt_busy_sleep.h"

unsigned int alt_busy_sleep (unsigned int us)
{
  80ad08:	defffa04 	addi	sp,sp,-24
  80ad0c:	dfc00515 	stw	ra,20(sp)
  80ad10:	df000415 	stw	fp,16(sp)
  80ad14:	df000404 	addi	fp,sp,16
  80ad18:	e13fff15 	stw	r4,-4(fp)
  {
    cycles_per_loop = 9;
  }
  else  
  {
    cycles_per_loop = 3;
  80ad1c:	008000c4 	movi	r2,3
  80ad20:	e0bffc15 	stw	r2,-16(fp)
  }
  

  big_loops = us / (INT_MAX/
  80ad24:	e0fffc17 	ldw	r3,-16(fp)
  80ad28:	008003f4 	movhi	r2,15
  80ad2c:	10909004 	addi	r2,r2,16960
  80ad30:	188b383a 	mul	r5,r3,r2
  80ad34:	0100bef4 	movhi	r4,763
  80ad38:	213c2004 	addi	r4,r4,-3968
  80ad3c:	080b3c80 	call	80b3c8 <__udivsi3>
  80ad40:	100b883a 	mov	r5,r2
  80ad44:	01200034 	movhi	r4,32768
  80ad48:	213fffc4 	addi	r4,r4,-1
  80ad4c:	080b3c80 	call	80b3c8 <__udivsi3>
  80ad50:	100b883a 	mov	r5,r2
  80ad54:	e13fff17 	ldw	r4,-4(fp)
  80ad58:	080b3c80 	call	80b3c8 <__udivsi3>
  80ad5c:	e0bffd15 	stw	r2,-12(fp)
  (ALT_CPU_FREQ/(cycles_per_loop * 1000000)));

  if (big_loops)
  80ad60:	e0bffd17 	ldw	r2,-12(fp)
  80ad64:	1005003a 	cmpeq	r2,r2,zero
  80ad68:	1000281e 	bne	r2,zero,80ae0c <alt_busy_sleep+0x104>
  {
    for(i=0;i<big_loops;i++)
  80ad6c:	e03ffe15 	stw	zero,-8(fp)
  80ad70:	00001606 	br	80adcc <alt_busy_sleep+0xc4>
      /*
      * Do NOT Try to single step the asm statement below 
      * (single step will never return)
      * Step out of this function or set a breakpoint after the asm statements
      */
      __asm__ volatile (
  80ad74:	00a00034 	movhi	r2,32768
  80ad78:	10bfffc4 	addi	r2,r2,-1
  80ad7c:	10bfffc4 	addi	r2,r2,-1
  80ad80:	103ffe1e 	bne	r2,zero,80ad7c <alt_busy_sleep+0x74>
        "\n1:"
        "\n\t.pushsection .debug_alt_sim_info"
        "\n\t.int 4, 0, 0b, 1b"
        "\n\t.popsection"
        :: "r" (INT_MAX));
      us -= (INT_MAX/(ALT_CPU_FREQ/
  80ad84:	e0fffc17 	ldw	r3,-16(fp)
  80ad88:	008003f4 	movhi	r2,15
  80ad8c:	10909004 	addi	r2,r2,16960
  80ad90:	188b383a 	mul	r5,r3,r2
  80ad94:	0100bef4 	movhi	r4,763
  80ad98:	213c2004 	addi	r4,r4,-3968
  80ad9c:	080b3c80 	call	80b3c8 <__udivsi3>
  80ada0:	100b883a 	mov	r5,r2
  80ada4:	01200034 	movhi	r4,32768
  80ada8:	213fffc4 	addi	r4,r4,-1
  80adac:	080b3c80 	call	80b3c8 <__udivsi3>
  80adb0:	1007883a 	mov	r3,r2
  80adb4:	e0bfff17 	ldw	r2,-4(fp)
  80adb8:	10c5c83a 	sub	r2,r2,r3
  80adbc:	e0bfff15 	stw	r2,-4(fp)
  big_loops = us / (INT_MAX/
  (ALT_CPU_FREQ/(cycles_per_loop * 1000000)));

  if (big_loops)
  {
    for(i=0;i<big_loops;i++)
  80adc0:	e0bffe17 	ldw	r2,-8(fp)
  80adc4:	10800044 	addi	r2,r2,1
  80adc8:	e0bffe15 	stw	r2,-8(fp)
  80adcc:	e0fffe17 	ldw	r3,-8(fp)
  80add0:	e0bffd17 	ldw	r2,-12(fp)
  80add4:	18bfe716 	blt	r3,r2,80ad74 <alt_busy_sleep+0x6c>
    /*
    * Do NOT Try to single step the asm statement below 
    * (single step will never return)
    * Step out of this function or set a breakpoint after the asm statements
    */
    __asm__ volatile (
  80add8:	e0fffc17 	ldw	r3,-16(fp)
  80addc:	008003f4 	movhi	r2,15
  80ade0:	10909004 	addi	r2,r2,16960
  80ade4:	188b383a 	mul	r5,r3,r2
  80ade8:	0100bef4 	movhi	r4,763
  80adec:	213c2004 	addi	r4,r4,-3968
  80adf0:	080b3c80 	call	80b3c8 <__udivsi3>
  80adf4:	1007883a 	mov	r3,r2
  80adf8:	e0bfff17 	ldw	r2,-4(fp)
  80adfc:	1885383a 	mul	r2,r3,r2
  80ae00:	10bfffc4 	addi	r2,r2,-1
  80ae04:	103ffe1e 	bne	r2,zero,80ae00 <alt_busy_sleep+0xf8>
  80ae08:	00000c06 	br	80ae3c <alt_busy_sleep+0x134>
    /*
    * Do NOT Try to single step the asm statement below 
    * (single step will never return)
    * Step out of this function or set a breakpoint after the asm statements
    */
    __asm__ volatile (
  80ae0c:	e0fffc17 	ldw	r3,-16(fp)
  80ae10:	008003f4 	movhi	r2,15
  80ae14:	10909004 	addi	r2,r2,16960
  80ae18:	188b383a 	mul	r5,r3,r2
  80ae1c:	0100bef4 	movhi	r4,763
  80ae20:	213c2004 	addi	r4,r4,-3968
  80ae24:	080b3c80 	call	80b3c8 <__udivsi3>
  80ae28:	1007883a 	mov	r3,r2
  80ae2c:	e0bfff17 	ldw	r2,-4(fp)
  80ae30:	1885383a 	mul	r2,r3,r2
  80ae34:	10bfffc4 	addi	r2,r2,-1
  80ae38:	00bffe16 	blt	zero,r2,80ae34 <alt_busy_sleep+0x12c>
      "\n\t.int 4, 0, 0b, 1b"
      "\n\t.popsection"
      :: "r" (us*(ALT_CPU_FREQ/(cycles_per_loop * 1000000))));
  }
#endif /* #ifndef ALT_SIM_OPTIMIZE */
  return 0;
  80ae3c:	0005883a 	mov	r2,zero
}
  80ae40:	e037883a 	mov	sp,fp
  80ae44:	dfc00117 	ldw	ra,4(sp)
  80ae48:	df000017 	ldw	fp,0(sp)
  80ae4c:	dec00204 	addi	sp,sp,8
  80ae50:	f800283a 	ret

0080ae54 <alt_icache_flush>:
 * alt_icache_flush() is called to flush the instruction cache for a memory
 * region of length "len" bytes, starting at address "start".
 */

void alt_icache_flush (void* start, alt_u32 len)
{
  80ae54:	defffb04 	addi	sp,sp,-20
  80ae58:	df000415 	stw	fp,16(sp)
  80ae5c:	df000404 	addi	fp,sp,16
  80ae60:	e13ffe15 	stw	r4,-8(fp)
  80ae64:	e17fff15 	stw	r5,-4(fp)

  /*
   * This is the most we would ever need to flush.
   */
 
  if (len > NIOS2_ICACHE_SIZE)
  80ae68:	e0bfff17 	ldw	r2,-4(fp)
  80ae6c:	10840070 	cmpltui	r2,r2,4097
  80ae70:	1000021e 	bne	r2,zero,80ae7c <alt_icache_flush+0x28>
  {
    len = NIOS2_ICACHE_SIZE;
  80ae74:	00840004 	movi	r2,4096
  80ae78:	e0bfff15 	stw	r2,-4(fp)
  }

  end = ((char*) start) + len;
  80ae7c:	e0fffe17 	ldw	r3,-8(fp)
  80ae80:	e0bfff17 	ldw	r2,-4(fp)
  80ae84:	1885883a 	add	r2,r3,r2
  80ae88:	e0bffc15 	stw	r2,-16(fp)

  for (i = start; i < end; i+= NIOS2_ICACHE_LINE_SIZE)
  80ae8c:	e0bffe17 	ldw	r2,-8(fp)
  80ae90:	e0bffd15 	stw	r2,-12(fp)
  80ae94:	00000506 	br	80aeac <alt_icache_flush+0x58>
  { 
    __asm__ volatile ("flushi %0" :: "r" (i)); 
  80ae98:	e0bffd17 	ldw	r2,-12(fp)
  80ae9c:	1000603a 	flushi	r2
    len = NIOS2_ICACHE_SIZE;
  }

  end = ((char*) start) + len;

  for (i = start; i < end; i+= NIOS2_ICACHE_LINE_SIZE)
  80aea0:	e0bffd17 	ldw	r2,-12(fp)
  80aea4:	10800804 	addi	r2,r2,32
  80aea8:	e0bffd15 	stw	r2,-12(fp)
  80aeac:	e0fffd17 	ldw	r3,-12(fp)
  80aeb0:	e0bffc17 	ldw	r2,-16(fp)
  80aeb4:	18bff836 	bltu	r3,r2,80ae98 <alt_icache_flush+0x44>
   * For an unaligned flush request, we've got one more line left.
   * Note that this is dependent on NIOS2_ICACHE_LINE_SIZE to be a 
   * multiple of 2 (which it always is).
   */

  if (((alt_u32) start) & (NIOS2_ICACHE_LINE_SIZE - 1))
  80aeb8:	e0bffe17 	ldw	r2,-8(fp)
  80aebc:	108007cc 	andi	r2,r2,31
  80aec0:	1005003a 	cmpeq	r2,r2,zero
  80aec4:	1000021e 	bne	r2,zero,80aed0 <alt_icache_flush+0x7c>
  {
    __asm__ volatile ("flushi %0" :: "r" (i));
  80aec8:	e0bffd17 	ldw	r2,-12(fp)
  80aecc:	1000603a 	flushi	r2
  /* 
   * Having flushed the cache, flush any stale instructions in the 
   * pipeline 
   */

  __asm__ volatile ("flushp");
  80aed0:	0000203a 	flushp

#endif /* NIOS2_ICACHE_SIZE > 0 */
}
  80aed4:	e037883a 	mov	sp,fp
  80aed8:	df000017 	ldw	fp,0(sp)
  80aedc:	dec00104 	addi	sp,sp,4
  80aee0:	f800283a 	ret

0080aee4 <atexit>:
  80aee4:	200b883a 	mov	r5,r4
  80aee8:	000d883a 	mov	r6,zero
  80aeec:	0009883a 	mov	r4,zero
  80aef0:	000f883a 	mov	r7,zero
  80aef4:	080afa41 	jmpi	80afa4 <__register_exitproc>

0080aef8 <exit>:
  80aef8:	defffe04 	addi	sp,sp,-8
  80aefc:	000b883a 	mov	r5,zero
  80af00:	dc000015 	stw	r16,0(sp)
  80af04:	dfc00115 	stw	ra,4(sp)
  80af08:	2021883a 	mov	r16,r4
  80af0c:	080b0dc0 	call	80b0dc <__call_exitprocs>
  80af10:	00802074 	movhi	r2,129
  80af14:	10b52104 	addi	r2,r2,-11132
  80af18:	11000017 	ldw	r4,0(r2)
  80af1c:	20800f17 	ldw	r2,60(r4)
  80af20:	10000126 	beq	r2,zero,80af28 <exit+0x30>
  80af24:	103ee83a 	callr	r2
  80af28:	8009883a 	mov	r4,r16
  80af2c:	080b4180 	call	80b418 <_exit>

0080af30 <memcmp>:
  80af30:	00c000c4 	movi	r3,3
  80af34:	1980032e 	bgeu	r3,r6,80af44 <memcmp+0x14>
  80af38:	2144b03a 	or	r2,r4,r5
  80af3c:	10c4703a 	and	r2,r2,r3
  80af40:	10000f26 	beq	r2,zero,80af80 <memcmp+0x50>
  80af44:	31ffffc4 	addi	r7,r6,-1
  80af48:	3000061e 	bne	r6,zero,80af64 <memcmp+0x34>
  80af4c:	00000a06 	br	80af78 <memcmp+0x48>
  80af50:	39ffffc4 	addi	r7,r7,-1
  80af54:	00bfffc4 	movi	r2,-1
  80af58:	21000044 	addi	r4,r4,1
  80af5c:	29400044 	addi	r5,r5,1
  80af60:	38800526 	beq	r7,r2,80af78 <memcmp+0x48>
  80af64:	20c00003 	ldbu	r3,0(r4)
  80af68:	28800003 	ldbu	r2,0(r5)
  80af6c:	18bff826 	beq	r3,r2,80af50 <memcmp+0x20>
  80af70:	1885c83a 	sub	r2,r3,r2
  80af74:	f800283a 	ret
  80af78:	0005883a 	mov	r2,zero
  80af7c:	f800283a 	ret
  80af80:	180f883a 	mov	r7,r3
  80af84:	20c00017 	ldw	r3,0(r4)
  80af88:	28800017 	ldw	r2,0(r5)
  80af8c:	18bfed1e 	bne	r3,r2,80af44 <memcmp+0x14>
  80af90:	31bfff04 	addi	r6,r6,-4
  80af94:	21000104 	addi	r4,r4,4
  80af98:	29400104 	addi	r5,r5,4
  80af9c:	39bff936 	bltu	r7,r6,80af84 <memcmp+0x54>
  80afa0:	003fe806 	br	80af44 <memcmp+0x14>

0080afa4 <__register_exitproc>:
  80afa4:	defffa04 	addi	sp,sp,-24
  80afa8:	00802074 	movhi	r2,129
  80afac:	10b52104 	addi	r2,r2,-11132
  80afb0:	dc000015 	stw	r16,0(sp)
  80afb4:	14000017 	ldw	r16,0(r2)
  80afb8:	dd000415 	stw	r20,16(sp)
  80afbc:	2829883a 	mov	r20,r5
  80afc0:	81405217 	ldw	r5,328(r16)
  80afc4:	dcc00315 	stw	r19,12(sp)
  80afc8:	dc800215 	stw	r18,8(sp)
  80afcc:	dc400115 	stw	r17,4(sp)
  80afd0:	dfc00515 	stw	ra,20(sp)
  80afd4:	2023883a 	mov	r17,r4
  80afd8:	3027883a 	mov	r19,r6
  80afdc:	3825883a 	mov	r18,r7
  80afe0:	28002526 	beq	r5,zero,80b078 <__register_exitproc+0xd4>
  80afe4:	29000117 	ldw	r4,4(r5)
  80afe8:	008007c4 	movi	r2,31
  80afec:	11002716 	blt	r2,r4,80b08c <__register_exitproc+0xe8>
  80aff0:	8800101e 	bne	r17,zero,80b034 <__register_exitproc+0x90>
  80aff4:	2105883a 	add	r2,r4,r4
  80aff8:	1085883a 	add	r2,r2,r2
  80affc:	20c00044 	addi	r3,r4,1
  80b000:	1145883a 	add	r2,r2,r5
  80b004:	0009883a 	mov	r4,zero
  80b008:	15000215 	stw	r20,8(r2)
  80b00c:	28c00115 	stw	r3,4(r5)
  80b010:	2005883a 	mov	r2,r4
  80b014:	dfc00517 	ldw	ra,20(sp)
  80b018:	dd000417 	ldw	r20,16(sp)
  80b01c:	dcc00317 	ldw	r19,12(sp)
  80b020:	dc800217 	ldw	r18,8(sp)
  80b024:	dc400117 	ldw	r17,4(sp)
  80b028:	dc000017 	ldw	r16,0(sp)
  80b02c:	dec00604 	addi	sp,sp,24
  80b030:	f800283a 	ret
  80b034:	29802204 	addi	r6,r5,136
  80b038:	00800044 	movi	r2,1
  80b03c:	110e983a 	sll	r7,r2,r4
  80b040:	30c04017 	ldw	r3,256(r6)
  80b044:	2105883a 	add	r2,r4,r4
  80b048:	1085883a 	add	r2,r2,r2
  80b04c:	1185883a 	add	r2,r2,r6
  80b050:	19c6b03a 	or	r3,r3,r7
  80b054:	14802015 	stw	r18,128(r2)
  80b058:	14c00015 	stw	r19,0(r2)
  80b05c:	00800084 	movi	r2,2
  80b060:	30c04015 	stw	r3,256(r6)
  80b064:	88bfe31e 	bne	r17,r2,80aff4 <__register_exitproc+0x50>
  80b068:	30804117 	ldw	r2,260(r6)
  80b06c:	11c4b03a 	or	r2,r2,r7
  80b070:	30804115 	stw	r2,260(r6)
  80b074:	003fdf06 	br	80aff4 <__register_exitproc+0x50>
  80b078:	00802074 	movhi	r2,129
  80b07c:	10bd1e04 	addi	r2,r2,-2952
  80b080:	100b883a 	mov	r5,r2
  80b084:	80805215 	stw	r2,328(r16)
  80b088:	003fd606 	br	80afe4 <__register_exitproc+0x40>
  80b08c:	00800034 	movhi	r2,0
  80b090:	10800004 	addi	r2,r2,0
  80b094:	1000021e 	bne	r2,zero,80b0a0 <__register_exitproc+0xfc>
  80b098:	013fffc4 	movi	r4,-1
  80b09c:	003fdc06 	br	80b010 <__register_exitproc+0x6c>
  80b0a0:	01006404 	movi	r4,400
  80b0a4:	103ee83a 	callr	r2
  80b0a8:	1007883a 	mov	r3,r2
  80b0ac:	103ffa26 	beq	r2,zero,80b098 <__register_exitproc+0xf4>
  80b0b0:	80805217 	ldw	r2,328(r16)
  80b0b4:	180b883a 	mov	r5,r3
  80b0b8:	18000115 	stw	zero,4(r3)
  80b0bc:	18800015 	stw	r2,0(r3)
  80b0c0:	80c05215 	stw	r3,328(r16)
  80b0c4:	18006215 	stw	zero,392(r3)
  80b0c8:	18006315 	stw	zero,396(r3)
  80b0cc:	0009883a 	mov	r4,zero
  80b0d0:	883fc826 	beq	r17,zero,80aff4 <__register_exitproc+0x50>
  80b0d4:	003fd706 	br	80b034 <__register_exitproc+0x90>

0080b0d8 <register_fini>:
  80b0d8:	f800283a 	ret

0080b0dc <__call_exitprocs>:
  80b0dc:	00802074 	movhi	r2,129
  80b0e0:	10b52104 	addi	r2,r2,-11132
  80b0e4:	10800017 	ldw	r2,0(r2)
  80b0e8:	defff304 	addi	sp,sp,-52
  80b0ec:	df000b15 	stw	fp,44(sp)
  80b0f0:	d8800115 	stw	r2,4(sp)
  80b0f4:	00800034 	movhi	r2,0
  80b0f8:	10800004 	addi	r2,r2,0
  80b0fc:	1005003a 	cmpeq	r2,r2,zero
  80b100:	d8800215 	stw	r2,8(sp)
  80b104:	d8800117 	ldw	r2,4(sp)
  80b108:	dd400815 	stw	r21,32(sp)
  80b10c:	dd000715 	stw	r20,28(sp)
  80b110:	10805204 	addi	r2,r2,328
  80b114:	dfc00c15 	stw	ra,48(sp)
  80b118:	ddc00a15 	stw	r23,40(sp)
  80b11c:	dd800915 	stw	r22,36(sp)
  80b120:	dcc00615 	stw	r19,24(sp)
  80b124:	dc800515 	stw	r18,20(sp)
  80b128:	dc400415 	stw	r17,16(sp)
  80b12c:	dc000315 	stw	r16,12(sp)
  80b130:	282b883a 	mov	r21,r5
  80b134:	2039883a 	mov	fp,r4
  80b138:	d8800015 	stw	r2,0(sp)
  80b13c:	2829003a 	cmpeq	r20,r5,zero
  80b140:	d8800117 	ldw	r2,4(sp)
  80b144:	14405217 	ldw	r17,328(r2)
  80b148:	88001026 	beq	r17,zero,80b18c <__call_exitprocs+0xb0>
  80b14c:	ddc00017 	ldw	r23,0(sp)
  80b150:	88800117 	ldw	r2,4(r17)
  80b154:	8c802204 	addi	r18,r17,136
  80b158:	143fffc4 	addi	r16,r2,-1
  80b15c:	80000916 	blt	r16,zero,80b184 <__call_exitprocs+0xa8>
  80b160:	05bfffc4 	movi	r22,-1
  80b164:	a000151e 	bne	r20,zero,80b1bc <__call_exitprocs+0xe0>
  80b168:	8409883a 	add	r4,r16,r16
  80b16c:	2105883a 	add	r2,r4,r4
  80b170:	1485883a 	add	r2,r2,r18
  80b174:	10c02017 	ldw	r3,128(r2)
  80b178:	a8c01126 	beq	r21,r3,80b1c0 <__call_exitprocs+0xe4>
  80b17c:	843fffc4 	addi	r16,r16,-1
  80b180:	85bff81e 	bne	r16,r22,80b164 <__call_exitprocs+0x88>
  80b184:	d8800217 	ldw	r2,8(sp)
  80b188:	10003126 	beq	r2,zero,80b250 <__call_exitprocs+0x174>
  80b18c:	dfc00c17 	ldw	ra,48(sp)
  80b190:	df000b17 	ldw	fp,44(sp)
  80b194:	ddc00a17 	ldw	r23,40(sp)
  80b198:	dd800917 	ldw	r22,36(sp)
  80b19c:	dd400817 	ldw	r21,32(sp)
  80b1a0:	dd000717 	ldw	r20,28(sp)
  80b1a4:	dcc00617 	ldw	r19,24(sp)
  80b1a8:	dc800517 	ldw	r18,20(sp)
  80b1ac:	dc400417 	ldw	r17,16(sp)
  80b1b0:	dc000317 	ldw	r16,12(sp)
  80b1b4:	dec00d04 	addi	sp,sp,52
  80b1b8:	f800283a 	ret
  80b1bc:	8409883a 	add	r4,r16,r16
  80b1c0:	88c00117 	ldw	r3,4(r17)
  80b1c4:	2105883a 	add	r2,r4,r4
  80b1c8:	1445883a 	add	r2,r2,r17
  80b1cc:	18ffffc4 	addi	r3,r3,-1
  80b1d0:	11800217 	ldw	r6,8(r2)
  80b1d4:	1c001526 	beq	r3,r16,80b22c <__call_exitprocs+0x150>
  80b1d8:	10000215 	stw	zero,8(r2)
  80b1dc:	303fe726 	beq	r6,zero,80b17c <__call_exitprocs+0xa0>
  80b1e0:	00c00044 	movi	r3,1
  80b1e4:	1c06983a 	sll	r3,r3,r16
  80b1e8:	90804017 	ldw	r2,256(r18)
  80b1ec:	8cc00117 	ldw	r19,4(r17)
  80b1f0:	1884703a 	and	r2,r3,r2
  80b1f4:	10001426 	beq	r2,zero,80b248 <__call_exitprocs+0x16c>
  80b1f8:	90804117 	ldw	r2,260(r18)
  80b1fc:	1884703a 	and	r2,r3,r2
  80b200:	10000c1e 	bne	r2,zero,80b234 <__call_exitprocs+0x158>
  80b204:	2105883a 	add	r2,r4,r4
  80b208:	1485883a 	add	r2,r2,r18
  80b20c:	11400017 	ldw	r5,0(r2)
  80b210:	e009883a 	mov	r4,fp
  80b214:	303ee83a 	callr	r6
  80b218:	88800117 	ldw	r2,4(r17)
  80b21c:	98bfc81e 	bne	r19,r2,80b140 <__call_exitprocs+0x64>
  80b220:	b8800017 	ldw	r2,0(r23)
  80b224:	147fd526 	beq	r2,r17,80b17c <__call_exitprocs+0xa0>
  80b228:	003fc506 	br	80b140 <__call_exitprocs+0x64>
  80b22c:	8c000115 	stw	r16,4(r17)
  80b230:	003fea06 	br	80b1dc <__call_exitprocs+0x100>
  80b234:	2105883a 	add	r2,r4,r4
  80b238:	1485883a 	add	r2,r2,r18
  80b23c:	11000017 	ldw	r4,0(r2)
  80b240:	303ee83a 	callr	r6
  80b244:	003ff406 	br	80b218 <__call_exitprocs+0x13c>
  80b248:	303ee83a 	callr	r6
  80b24c:	003ff206 	br	80b218 <__call_exitprocs+0x13c>
  80b250:	88800117 	ldw	r2,4(r17)
  80b254:	1000081e 	bne	r2,zero,80b278 <__call_exitprocs+0x19c>
  80b258:	89000017 	ldw	r4,0(r17)
  80b25c:	20000726 	beq	r4,zero,80b27c <__call_exitprocs+0x1a0>
  80b260:	b9000015 	stw	r4,0(r23)
  80b264:	8809883a 	mov	r4,r17
  80b268:	00000000 	call	0 <__alt_mem_sdram_controller-0x800000>
  80b26c:	bc400017 	ldw	r17,0(r23)
  80b270:	883fb71e 	bne	r17,zero,80b150 <__call_exitprocs+0x74>
  80b274:	003fc506 	br	80b18c <__call_exitprocs+0xb0>
  80b278:	89000017 	ldw	r4,0(r17)
  80b27c:	882f883a 	mov	r23,r17
  80b280:	2023883a 	mov	r17,r4
  80b284:	883fb21e 	bne	r17,zero,80b150 <__call_exitprocs+0x74>
  80b288:	003fc006 	br	80b18c <__call_exitprocs+0xb0>

0080b28c <udivmodsi4>:
  80b28c:	29001b2e 	bgeu	r5,r4,80b2fc <udivmodsi4+0x70>
  80b290:	28001a16 	blt	r5,zero,80b2fc <udivmodsi4+0x70>
  80b294:	00800044 	movi	r2,1
  80b298:	0007883a 	mov	r3,zero
  80b29c:	01c007c4 	movi	r7,31
  80b2a0:	00000306 	br	80b2b0 <udivmodsi4+0x24>
  80b2a4:	19c01326 	beq	r3,r7,80b2f4 <udivmodsi4+0x68>
  80b2a8:	18c00044 	addi	r3,r3,1
  80b2ac:	28000416 	blt	r5,zero,80b2c0 <udivmodsi4+0x34>
  80b2b0:	294b883a 	add	r5,r5,r5
  80b2b4:	1085883a 	add	r2,r2,r2
  80b2b8:	293ffa36 	bltu	r5,r4,80b2a4 <udivmodsi4+0x18>
  80b2bc:	10000d26 	beq	r2,zero,80b2f4 <udivmodsi4+0x68>
  80b2c0:	0007883a 	mov	r3,zero
  80b2c4:	21400236 	bltu	r4,r5,80b2d0 <udivmodsi4+0x44>
  80b2c8:	2149c83a 	sub	r4,r4,r5
  80b2cc:	1886b03a 	or	r3,r3,r2
  80b2d0:	1004d07a 	srli	r2,r2,1
  80b2d4:	280ad07a 	srli	r5,r5,1
  80b2d8:	103ffa1e 	bne	r2,zero,80b2c4 <udivmodsi4+0x38>
  80b2dc:	30000226 	beq	r6,zero,80b2e8 <udivmodsi4+0x5c>
  80b2e0:	2005883a 	mov	r2,r4
  80b2e4:	f800283a 	ret
  80b2e8:	1809883a 	mov	r4,r3
  80b2ec:	2005883a 	mov	r2,r4
  80b2f0:	f800283a 	ret
  80b2f4:	0007883a 	mov	r3,zero
  80b2f8:	003ff806 	br	80b2dc <udivmodsi4+0x50>
  80b2fc:	00800044 	movi	r2,1
  80b300:	0007883a 	mov	r3,zero
  80b304:	003fef06 	br	80b2c4 <udivmodsi4+0x38>

0080b308 <__divsi3>:
  80b308:	defffe04 	addi	sp,sp,-8
  80b30c:	dc000015 	stw	r16,0(sp)
  80b310:	dfc00115 	stw	ra,4(sp)
  80b314:	0021883a 	mov	r16,zero
  80b318:	20000c16 	blt	r4,zero,80b34c <__divsi3+0x44>
  80b31c:	000d883a 	mov	r6,zero
  80b320:	28000e16 	blt	r5,zero,80b35c <__divsi3+0x54>
  80b324:	080b28c0 	call	80b28c <udivmodsi4>
  80b328:	1007883a 	mov	r3,r2
  80b32c:	8005003a 	cmpeq	r2,r16,zero
  80b330:	1000011e 	bne	r2,zero,80b338 <__divsi3+0x30>
  80b334:	00c7c83a 	sub	r3,zero,r3
  80b338:	1805883a 	mov	r2,r3
  80b33c:	dfc00117 	ldw	ra,4(sp)
  80b340:	dc000017 	ldw	r16,0(sp)
  80b344:	dec00204 	addi	sp,sp,8
  80b348:	f800283a 	ret
  80b34c:	0109c83a 	sub	r4,zero,r4
  80b350:	04000044 	movi	r16,1
  80b354:	000d883a 	mov	r6,zero
  80b358:	283ff20e 	bge	r5,zero,80b324 <__divsi3+0x1c>
  80b35c:	014bc83a 	sub	r5,zero,r5
  80b360:	8021003a 	cmpeq	r16,r16,zero
  80b364:	003fef06 	br	80b324 <__divsi3+0x1c>

0080b368 <__modsi3>:
  80b368:	deffff04 	addi	sp,sp,-4
  80b36c:	dfc00015 	stw	ra,0(sp)
  80b370:	01800044 	movi	r6,1
  80b374:	2807883a 	mov	r3,r5
  80b378:	20000416 	blt	r4,zero,80b38c <__modsi3+0x24>
  80b37c:	28000c16 	blt	r5,zero,80b3b0 <__modsi3+0x48>
  80b380:	dfc00017 	ldw	ra,0(sp)
  80b384:	dec00104 	addi	sp,sp,4
  80b388:	080b28c1 	jmpi	80b28c <udivmodsi4>
  80b38c:	0109c83a 	sub	r4,zero,r4
  80b390:	28000b16 	blt	r5,zero,80b3c0 <__modsi3+0x58>
  80b394:	180b883a 	mov	r5,r3
  80b398:	01800044 	movi	r6,1
  80b39c:	080b28c0 	call	80b28c <udivmodsi4>
  80b3a0:	0085c83a 	sub	r2,zero,r2
  80b3a4:	dfc00017 	ldw	ra,0(sp)
  80b3a8:	dec00104 	addi	sp,sp,4
  80b3ac:	f800283a 	ret
  80b3b0:	014bc83a 	sub	r5,zero,r5
  80b3b4:	dfc00017 	ldw	ra,0(sp)
  80b3b8:	dec00104 	addi	sp,sp,4
  80b3bc:	080b28c1 	jmpi	80b28c <udivmodsi4>
  80b3c0:	0147c83a 	sub	r3,zero,r5
  80b3c4:	003ff306 	br	80b394 <__modsi3+0x2c>

0080b3c8 <__udivsi3>:
  80b3c8:	000d883a 	mov	r6,zero
  80b3cc:	080b28c1 	jmpi	80b28c <udivmodsi4>

0080b3d0 <__umodsi3>:
  80b3d0:	01800044 	movi	r6,1
  80b3d4:	080b28c1 	jmpi	80b28c <udivmodsi4>

0080b3d8 <alt_sim_halt>:

/*
 * Routine called on exit.
 */
static ALT_ALWAYS_INLINE void alt_sim_halt(int exit_code)
{
  80b3d8:	defffd04 	addi	sp,sp,-12
  80b3dc:	df000215 	stw	fp,8(sp)
  80b3e0:	df000204 	addi	fp,sp,8
  80b3e4:	e13fff15 	stw	r4,-4(fp)
  int r2 = exit_code;
  80b3e8:	e0bfff17 	ldw	r2,-4(fp)
  80b3ec:	e0bffe15 	stw	r2,-8(fp)
  __asm__ volatile ("\n0:\n\taddi %0,%0, -1\n\tbgt %0,zero,0b" : : "r" (ALT_CPU_FREQ/100) ); /* Delay for >30ms */

  __asm__ volatile ("break 2" : : "D02"(r2), "D03"(r3) ALT_GMON_DATA );

#else /* !DEBUG_STUB */
  if (r2) {
  80b3f0:	e0bffe17 	ldw	r2,-8(fp)
  80b3f4:	1005003a 	cmpeq	r2,r2,zero
  80b3f8:	1000021e 	bne	r2,zero,80b404 <alt_sim_halt+0x2c>
    ALT_SIM_FAIL();
  80b3fc:	002af070 	cmpltui	zero,zero,43969
  80b400:	00000106 	br	80b408 <alt_sim_halt+0x30>
  } else {
    ALT_SIM_PASS();
  80b404:	002af0b0 	cmpltui	zero,zero,43970
  }
#endif /* DEBUG_STUB */
}
  80b408:	e037883a 	mov	sp,fp
  80b40c:	df000017 	ldw	fp,0(sp)
  80b410:	dec00104 	addi	sp,sp,4
  80b414:	f800283a 	ret

0080b418 <_exit>:
 *
 * ALT_EXIT is mapped onto the _exit() system call in alt_syscall.h
 */

void ALT_EXIT (int exit_code)
{
  80b418:	defffd04 	addi	sp,sp,-12
  80b41c:	dfc00215 	stw	ra,8(sp)
  80b420:	df000115 	stw	fp,4(sp)
  80b424:	df000104 	addi	fp,sp,4
  80b428:	e13fff15 	stw	r4,-4(fp)
  ALT_OS_STOP();

  /* Provide notification to the simulator that we've stopped */

  ALT_LOG_PRINT_BOOT("[alt_exit.c] Calling ALT_SIM_HALT().\r\n");
  ALT_SIM_HALT(exit_code);
  80b42c:	e13fff17 	ldw	r4,-4(fp)
  80b430:	080b3d80 	call	80b3d8 <alt_sim_halt>

  /* spin forever, since there's no where to go back to */

  ALT_LOG_PRINT_BOOT("[alt_exit.c] Spinning forever.\r\n");
  while (1);
  80b434:	003fff06 	br	80b434 <_exit+0x1c>
  80b438:	0080b0d8 	cmpnei	r2,zero,707
