
assignment2.elf:     file format elf32-littlenios2
assignment2.elf
architecture: nios2, flags 0x00000112:
EXEC_P, HAS_SYMS, D_PAGED
start address 0x008001b4

Program Header:
    LOAD off    0x00001000 vaddr 0x00800000 paddr 0x00800000 align 2**12
         filesz 0x00000020 memsz 0x00000020 flags r-x
    LOAD off    0x00001020 vaddr 0x00800020 paddr 0x00800020 align 2**12
         filesz 0x0000a774 memsz 0x0000a774 flags r-x
    LOAD off    0x0000b794 vaddr 0x0080a794 paddr 0x0080c3cc align 2**12
         filesz 0x00001c38 memsz 0x00001c38 flags rw-
    LOAD off    0x0000e004 vaddr 0x0080e004 paddr 0x0080e004 align 2**12
         filesz 0x00000000 memsz 0x000004cc flags rw-

Sections:
Idx Name          Size      VMA       LMA       File off  Algn
  0 .entry        00000020  00800000  00800000  00001000  2**5
                  CONTENTS, ALLOC, LOAD, READONLY, CODE
  1 .exceptions   00000194  00800020  00800020  00001020  2**2
                  CONTENTS, ALLOC, LOAD, READONLY, CODE
  2 .text         0000a174  008001b4  008001b4  000011b4  2**2
                  CONTENTS, ALLOC, LOAD, READONLY, CODE
  3 .rodata       0000046c  0080a328  0080a328  0000b328  2**2
                  CONTENTS, ALLOC, LOAD, READONLY, DATA
  4 .rwdata       00001c38  0080a794  0080c3cc  0000b794  2**2
                  CONTENTS, ALLOC, LOAD, DATA, SMALL_DATA
  5 .bss          000004cc  0080e004  0080e004  0000e004  2**2
                  ALLOC, SMALL_DATA
  6 .comment      00000023  00000000  00000000  0000d3cc  2**0
                  CONTENTS, READONLY
  7 .debug_aranges 00000a38  00000000  00000000  0000d3f0  2**3
                  CONTENTS, READONLY, DEBUGGING
  8 .debug_pubnames 00001c2a  00000000  00000000  0000de28  2**0
                  CONTENTS, READONLY, DEBUGGING
  9 .debug_info   0001eb78  00000000  00000000  0000fa52  2**0
                  CONTENTS, READONLY, DEBUGGING
 10 .debug_abbrev 00005bf4  00000000  00000000  0002e5ca  2**0
                  CONTENTS, READONLY, DEBUGGING
 11 .debug_line   0000f8a7  00000000  00000000  000341be  2**0
                  CONTENTS, READONLY, DEBUGGING
 12 .debug_frame  000016ac  00000000  00000000  00043a68  2**2
                  CONTENTS, READONLY, DEBUGGING
 13 .debug_str    000018ba  00000000  00000000  00045114  2**0
                  CONTENTS, READONLY, DEBUGGING
 14 .debug_loc    0000486e  00000000  00000000  000469ce  2**0
                  CONTENTS, READONLY, DEBUGGING
 15 .debug_alt_sim_info 00000060  00000000  00000000  0004b23c  2**2
                  CONTENTS, READONLY, DEBUGGING
 16 .debug_ranges 000002f8  00000000  00000000  0004b2a0  2**3
                  CONTENTS, READONLY, DEBUGGING
 17 .thread_model 00000003  00000000  00000000  0004fa7a  2**0
                  CONTENTS, READONLY
 18 .cpu          00000003  00000000  00000000  0004fa7d  2**0
                  CONTENTS, READONLY
 19 .qsys         00000001  00000000  00000000  0004fa80  2**0
                  CONTENTS, READONLY
 20 .simulation_enabled 00000001  00000000  00000000  0004fa81  2**0
                  CONTENTS, READONLY
 21 .sysid_hash   00000004  00000000  00000000  0004fa82  2**0
                  CONTENTS, READONLY
 22 .sysid_base   00000004  00000000  00000000  0004fa86  2**0
                  CONTENTS, READONLY
 23 .sysid_time   00000004  00000000  00000000  0004fa8a  2**0
                  CONTENTS, READONLY
 24 .stderr_dev   00000009  00000000  00000000  0004fa8e  2**0
                  CONTENTS, READONLY
 25 .stdin_dev    00000009  00000000  00000000  0004fa97  2**0
                  CONTENTS, READONLY
 26 .stdout_dev   00000009  00000000  00000000  0004faa0  2**0
                  CONTENTS, READONLY
 27 .sopc_system_name 00000006  00000000  00000000  0004faa9  2**0
                  CONTENTS, READONLY
 28 .quartus_project_dir 00000056  00000000  00000000  0004faaf  2**0
                  CONTENTS, READONLY
 29 .sopcinfo     00065aec  00000000  00000000  0004fb05  2**0
                  CONTENTS, READONLY
SYMBOL TABLE:
00800000 l    d  .entry	00000000 .entry
00800020 l    d  .exceptions	00000000 .exceptions
008001b4 l    d  .text	00000000 .text
0080a328 l    d  .rodata	00000000 .rodata
0080a794 l    d  .rwdata	00000000 .rwdata
0080e004 l    d  .bss	00000000 .bss
00000000 l    d  .comment	00000000 .comment
00000000 l    d  .debug_aranges	00000000 .debug_aranges
00000000 l    d  .debug_pubnames	00000000 .debug_pubnames
00000000 l    d  .debug_info	00000000 .debug_info
00000000 l    d  .debug_abbrev	00000000 .debug_abbrev
00000000 l    d  .debug_line	00000000 .debug_line
00000000 l    d  .debug_frame	00000000 .debug_frame
00000000 l    d  .debug_str	00000000 .debug_str
00000000 l    d  .debug_loc	00000000 .debug_loc
00000000 l    d  .debug_alt_sim_info	00000000 .debug_alt_sim_info
00000000 l    d  .debug_ranges	00000000 .debug_ranges
008001fc l       .text	00000000 alt_after_alt_main
00000000 l    df *ABS*	00000000 alt_irq_handler.c
00000000 l    df *ABS*	00000000 hello_world.c
0080c388 l     O .rwdata	00000004 buttonValue
0080e004 l     O .bss	00000004 vpace_LED_on
0080e008 l     O .bss	00000004 apace_LED_on
0080e128 l     O .bss	00000018 avi_timer
0080e140 l     O .bss	00000018 aei_timer
0080e158 l     O .bss	00000018 pvarp_timer
0080e170 l     O .bss	00000018 vrp_timer
0080e188 l     O .bss	00000018 lri_timer
0080e1a0 l     O .bss	00000018 uri_timer
0080e1b8 l     O .bss	00000018 debounce_timer
0080e1d0 l     O .bss	00000018 LED_timer
0080e1e8 l     O .bss	00000018 signal_timer
0080e200 l     O .bss	00000018 aei_signal_timer
00000000 l    df *ABS*	00000000 puts.c
00000000 l    df *ABS*	00000000 strlen.c
00000000 l    df *ABS*	00000000 fvwrite.c
00000000 l    df *ABS*	00000000 impure.c
0080a794 l     O .rwdata	00000400 impure_data
00000000 l    df *ABS*	00000000 mallocr.c
00000000 l    df *ABS*	00000000 memchr.c
00000000 l    df *ABS*	00000000 memcpy.c
00000000 l    df *ABS*	00000000 memmove.c
00000000 l    df *ABS*	00000000 mallocr.c
00000000 l    df *ABS*	00000000 sbrkr.c
00000000 l    df *ABS*	00000000 wsetup.c
00000000 l    df *ABS*	00000000 fflush.c
00000000 l    df *ABS*	00000000 findfp.c
00804b10 l     F .text	00000058 std
00804c1c l     F .text	00000008 __fp_lock
00804c24 l     F .text	00000008 __fp_unlock
00000000 l    df *ABS*	00000000 mallocr.c
00000000 l    df *ABS*	00000000 fwalk.c
00000000 l    df *ABS*	00000000 int_errno.c
00000000 l    df *ABS*	00000000 makebuf.c
00000000 l    df *ABS*	00000000 memset.c
00000000 l    df *ABS*	00000000 stdio.c
00000000 l    df *ABS*	00000000 writer.c
00000000 l    df *ABS*	00000000 closer.c
00000000 l    df *ABS*	00000000 fclose.c
00000000 l    df *ABS*	00000000 fstatr.c
00000000 l    df *ABS*	00000000 isattyr.c
00000000 l    df *ABS*	00000000 lseekr.c
00000000 l    df *ABS*	00000000 readr.c
00000000 l    df *ABS*	00000000 alt_alarm_start.c
00000000 l    df *ABS*	00000000 alt_close.c
00805d38 l     F .text	00000060 alt_get_errno
00000000 l    df *ABS*	00000000 alt_dev.c
00805d98 l     F .text	0000002c alt_dev_null_write
00000000 l    df *ABS*	00000000 alt_errno.c
00000000 l    df *ABS*	00000000 alt_fstat.c
00805e98 l     F .text	00000060 alt_get_errno
00000000 l    df *ABS*	00000000 alt_irq_register.c
00000000 l    df *ABS*	00000000 alt_irq_vars.c
00000000 l    df *ABS*	00000000 alt_isatty.c
00806178 l     F .text	00000060 alt_get_errno
00000000 l    df *ABS*	00000000 alt_load.c
00806258 l     F .text	0000006c alt_load_section
00000000 l    df *ABS*	00000000 alt_lseek.c
008063b4 l     F .text	00000060 alt_get_errno
00000000 l    df *ABS*	00000000 alt_main.c
00000000 l    df *ABS*	00000000 alt_malloc_lock.c
00000000 l    df *ABS*	00000000 alt_read.c
008065e0 l     F .text	00000060 alt_get_errno
00000000 l    df *ABS*	00000000 alt_release_fd.c
00000000 l    df *ABS*	00000000 alt_sbrk.c
0080c3b8 l     O .rwdata	00000004 heap_end
00000000 l    df *ABS*	00000000 alt_tick.c
00000000 l    df *ABS*	00000000 alt_write.c
00806a20 l     F .text	00000060 alt_get_errno
00000000 l    df *ABS*	00000000 alt_sys_init.c
0080b144 l     O .rwdata	00001060 jtag_uart
0080c1a4 l     O .rwdata	00000120 lcd
0080c2c4 l     O .rwdata	000000c4 uart
00806b48 l     F .text	00000038 alt_dev_reg
00000000 l    df *ABS*	00000000 altera_avalon_jtag_uart_fd.c
00000000 l    df *ABS*	00000000 altera_avalon_jtag_uart_init.c
00806d88 l     F .text	00000228 altera_avalon_jtag_uart_irq
00806fb0 l     F .text	000000b0 altera_avalon_jtag_uart_timeout
00000000 l    df *ABS*	00000000 altera_avalon_jtag_uart_ioctl.c
00000000 l    df *ABS*	00000000 altera_avalon_jtag_uart_read.c
00000000 l    df *ABS*	00000000 altera_avalon_jtag_uart_write.c
00000000 l    df *ABS*	00000000 altera_avalon_lcd_16207.c
0080c3c4 l     O .rwdata	00000004 colstart
0080762c l     F .text	000000b8 lcd_write_command
008076e4 l     F .text	000000d4 lcd_write_data
008077b8 l     F .text	000000c4 lcd_clear_screen
0080787c l     F .text	000001ec lcd_repaint_screen
00807a68 l     F .text	000000c8 lcd_scroll_up
00807b30 l     F .text	000002d0 lcd_handle_escape
0080830c l     F .text	000000cc alt_lcd_16207_timeout
00000000 l    df *ABS*	00000000 altera_avalon_lcd_16207_fd.c
00000000 l    df *ABS*	00000000 altera_avalon_timer_sc.c
0080856c l     F .text	00000070 alt_avalon_timer_sc_irq
00000000 l    df *ABS*	00000000 altera_avalon_uart_fd.c
00000000 l    df *ABS*	00000000 altera_avalon_uart_init.c
0080882c l     F .text	0000009c altera_avalon_uart_irq
008088c8 l     F .text	000000e0 altera_avalon_uart_rxirq
008089a8 l     F .text	0000015c altera_avalon_uart_txirq
00000000 l    df *ABS*	00000000 altera_avalon_uart_read.c
00808d94 l     F .text	00000060 alt_get_errno
00000000 l    df *ABS*	00000000 altera_avalon_uart_write.c
00808fbc l     F .text	00000060 alt_get_errno
00000000 l    df *ABS*	00000000 alt_dcache_flush_all.c
00000000 l    df *ABS*	00000000 alt_dev_llist_insert.c
00809114 l     F .text	00000060 alt_get_errno
00000000 l    df *ABS*	00000000 alt_do_ctors.c
00000000 l    df *ABS*	00000000 alt_do_dtors.c
00000000 l    df *ABS*	00000000 alt_icache_flush_all.c
00000000 l    df *ABS*	00000000 alt_iic.c
00000000 l    df *ABS*	00000000 alt_iic_isr_register.c
00000000 l    df *ABS*	00000000 alt_io_redirect.c
00809538 l     F .text	000000c4 alt_open_fd
00000000 l    df *ABS*	00000000 alt_open.c
00809674 l     F .text	000000dc alt_file_locked
008098d8 l     F .text	00000060 alt_get_errno
00000000 l    df *ABS*	00000000 alt_usleep.c
00000000 l    df *ABS*	00000000 altera_nios2_qsys_irq.c
00000000 l    df *ABS*	00000000 alt_busy_sleep.c
00000000 l    df *ABS*	00000000 alt_find_dev.c
00000000 l    df *ABS*	00000000 alt_find_file.c
00000000 l    df *ABS*	00000000 alt_get_fd.c
00000000 l    df *ABS*	00000000 alt_icache_flush.c
00000000 l    df *ABS*	00000000 atexit.c
00000000 l    df *ABS*	00000000 ctype_.c
0080a614 l     O .rodata	00000180 _ctype_b
00000000 l    df *ABS*	00000000 exit.c
00000000 l    df *ABS*	00000000 memcmp.c
00000000 l    df *ABS*	00000000 __atexit.c
00000000 l    df *ABS*	00000000 __call_atexit.c
00809fc4 l     F .text	00000004 register_fini
00000000 l    df *ABS*	00000000 lib2-divmod.c
0080a178 l     F .text	0000007c udivmodsi4
00000000 l    df *ABS*	00000000 alt_exit.c
0080a2c4 l     F .text	00000040 alt_sim_halt
0080e00c g     O .bss	00000001 _cg42
0080e00d g     O .bss	00000001 g83
0080e00e g     O .bss	00000001 g40
0080e00f g     O .bss	00000001 _cg99
00805988 g     F .text	00000070 _isatty_r
0080e010 g     O .bss	00000001 g91
00806414 g     F .text	0000006c alt_main
008031d8 g     F .text	000000a0 _puts_r
0080e011 g     O .bss	00000001 APace
0080e240 g     O .bss	00000100 alt_irq
008059f8 g     F .text	00000078 _lseek_r
0080e012 g     O .bss	00000001 PRE_g95
0080e013 g     O .bss	00000001 g4
0080c3cc g       *ABS*	00000000 __flash_rwdata_start
0080e014 g     O .bss	00000001 g108
0080e015 g     O .bss	00000001 g19
0080e016 g     O .bss	00000001 g111
0080e017 g     O .bss	00000001 g107_fix0
0080e4d0 g       *ABS*	00000000 __alt_heap_start
0080e018 g     O .bss	00000001 g80b
008055c4 g     F .text	00000068 __sseek
00804b78 g     F .text	000000a4 __sinit
0080e019 g     O .bss	00000001 g55
0080e01a g     O .bss	00000001 _cg96
0080e01b g     O .bss	00000001 _cg59
0080e01c g     O .bss	00000001 g27
00804c78 g     F .text	00000068 __sfmoreglue
008064a0 g     F .text	00000020 __malloc_unlock
0080e01d g     O .bss	00000001 PRE_g90
0080e01e g     O .bss	00000001 g111_e2
0080e01f g     O .bss	00000001 _compsys303_a2_local_AEI_start
0080e020 g     O .bss	00000001 g112
0080e021 g     O .bss	00000001 g3
00804060 g     F .text	000000e0 memmove
0080e022 g     O .bss	00000001 g103
0080e023 g     O .bss	00000001 g47
0080e024 g     O .bss	00000001 g85
0080e025 g     O .bss	00000001 g42
00804c68 g     F .text	00000010 _cleanup
00802e00 g     F .text	00000058 initialise_LED_timer
0080e026 g     O .bss	00000001 g9
0080e027 g     O .bss	00000001 LRITO
0080e028 g     O .bss	00000001 _cg7
0080e02c g     O .bss	00000004 _PRE_GO
0080e030 g     O .bss	00000001 _compsys303_a2_local_AEI_ex
0080e031 g     O .bss	00000001 PRE_g3
0080e032 g     O .bss	00000001 g102
00000000  w      *UND*	00000000 __errno
00802ca0 g     F .text	00000058 initialise_vrp_timer
00800000 g     F .entry	0000001c __reset
0080e033 g     O .bss	00000001 _cg52
0080e034 g     O .bss	00000001 PRE_g56
00800020 g       *ABS*	00000000 __flash_exceptions_start
00805914 g     F .text	00000074 _fstat_r
0080e035 g     O .bss	00000001 _compsys303_a2_local_LRI_ex
0080e10c g     O .bss	00000004 errno
0080e036 g     O .bss	00000001 g87
0080e037 g     O .bss	00000001 g44
00800000 g       *ABS*	00000000 __alt_mem_sdram_controller
0080e038 g     O .bss	00000001 _cg75
0080e118 g     O .bss	00000004 alt_argv
00814388 g       *ABS*	00000000 _gp
00809938 g     F .text	00000030 usleep
0080e039 g     O .bss	00000001 _cg45
00800200 g     F .text	00000098 reset
0080e03a g     O .bss	00000001 g85_e9
0080e03b g     O .bss	00000001 g92
0080e03c g     O .bss	00000001 g1
00803190 g     F .text	00000048 aei_signal_isr_function
0080e03d g     O .bss	00000001 g61
0080afc4 g     O .rwdata	00000180 alt_fd_list
0080e03e g     O .bss	00000001 g71
0080e03f g     O .bss	00000001 PRE_g28
0080e040 g     O .bss	00000001 g7b
00809ad4 g     F .text	00000094 alt_find_dev
00803fc0 g     F .text	000000a0 memcpy
00803148 g     F .text	00000048 signal_isr_function
00804c5c g     F .text	0000000c _cleanup_r
00802c48 g     F .text	00000058 initialise_pvarp_timer
0080e041 g     O .bss	00000001 g82
008095fc g     F .text	00000078 alt_io_redirect
0080a328 g       *ABS*	00000000 __DTOR_END__
0080e042 g     O .bss	00000001 _cg98
0080e043 g     O .bss	00000001 g12
00803278 g     F .text	00000014 puts
0080e044 g     O .bss	00000001 g97
0080e045 g     O .bss	00000001 g52
008071c8 g     F .text	00000224 altera_avalon_jtag_uart_read
00000000  w      *UND*	00000000 malloc
0080e046 g     O .bss	00000001 _cg35
0080e047 g     O .bss	00000001 _compsys303_a2_local_AVI_stop
0080a2b4 g     F .text	00000008 __udivsi3
008060b8 g     F .text	000000c0 isatty
0080e048 g     O .bss	00000001 g17
0080e049 g     O .bss	00000001 PRE_g34
00802e58 g     F .text	00000058 initialise_signal_timer
0080e04a g     O .bss	00000001 g76
0080e04b g     O .bss	00000001 g31
00809d40 g     F .text	00000090 alt_icache_flush
0080e04c g     O .bss	00000001 g37
0080e100 g     O .bss	00000004 __malloc_top_pad
0080e04d g     O .bss	00000001 g62
0080e04e g     O .bss	00000001 PRE_g109
00803300 g     F .text	0000049c __sfvwrite_r
00804734 g     F .text	00000070 _sbrk_r
0080e04f g     O .bss	00000001 g84
0080e050 g     O .bss	00000001 g41
0080e051 g     O .bss	00000001 _cg26
00805a70 g     F .text	00000078 _read_r
00802da8 g     F .text	00000058 initialise_debounce_timer
0080e052 g     O .bss	00000001 g29b
0080e053 g     O .bss	00000001 PRE_g49
0080c3ac g     O .rwdata	00000004 alt_max_fd
0080e054 g     O .bss	00000001 PRE_g8
008057f0 g     F .text	00000110 _fclose_r
0080e055 g     O .bss	00000001 PRE_g17
00804adc g     F .text	00000034 fflush
0080e104 g     O .bss	00000004 __malloc_max_sbrked_mem
0080e056 g     O .bss	00000001 _compsys303_a2_local_AVI_ex
0080e057 g     O .bss	00000001 g18
00805ef8 g     F .text	000001c0 alt_irq_register
0080e058 g     O .bss	00000001 PRE_g81
0080e059 g     O .bss	00000001 ASense
0080e05a g     O .bss	00000001 PRE_g104
0080e05b g     O .bss	00000001 _cg101
00802b98 g     F .text	00000058 initialise_avi_timer
008062c4 g     F .text	000000f0 lseek
0080e05c g     O .bss	00000001 g59b
0080c390 g     O .rwdata	00000004 _global_impure_ptr
0080e05d g     O .bss	00000001 g48
00804140 g     F .text	000005f4 _realloc_r
0080e4d0 g       *ABS*	00000000 __bss_end
00809440 g     F .text	000000f8 alt_iic_isr_register
008067f4 g     F .text	0000010c alt_tick
0080e05e g     O .bss	00000001 g38
0080e05f g     O .bss	00000001 g105
00808764 g     F .text	000000c8 altera_avalon_uart_init
0080c3c8 g     O .rwdata	00000004 __ctype_ptr
00804c44 g     F .text	00000018 __fp_lock_all
008093f8 g     F .text	00000048 alt_ic_irq_enabled
0080e060 g     O .bss	00000001 _cg21
0080e061 g     O .bss	00000001 PRE_g87
0080e062 g     O .bss	00000001 g75b
0080675c g     F .text	00000098 alt_alarm_stop
00802eb0 g     F .text	00000058 initialise_aei_signal_timer
0080e110 g     O .bss	00000004 alt_irq_active
0080e063 g     O .bss	00000001 _cg20
01008000 g       *ABS*	00000000 __alt_mem_onchip_mem
008000ec g     F .exceptions	000000c8 alt_irq_handler
0080af9c g     O .rwdata	00000028 alt_dev_null
0080e064 g     O .bss	00000001 g107_fix1
0080e065 g     O .bss	00000001 _cg76
0080e066 g     O .bss	00000001 _cg82
0080e067 g     O .bss	00000001 _compsys303_a2_local_PVARP_stop
0080901c g     F .text	00000044 alt_dcache_flush_all
0080e068 g     O .bss	00000001 g65b
00802a58 g     F .text	0000001c mode1
0080e069 g     O .bss	00000001 g64
0080e06a g     O .bss	00000001 g21
0080e06b g     O .bss	00000001 g39_e4
00803100 g     F .text	00000048 LED_isr_function
0080e06c g     O .bss	00000001 g102_e10
0080e06d g     O .bss	00000001 g79
0080e06e g     O .bss	00000001 g34
0080c3cc g       *ABS*	00000000 __ram_rwdata_end
008030b8 g     F .text	00000048 debounce_isr_function
0080e06f g     O .bss	00000001 g5
0080c3a4 g     O .rwdata	00000008 alt_dev_list
0080e070 g     O .bss	00000001 g94
0080e071 g     O .bss	00000001 g110
0080e072 g     O .bss	00000001 g49
00806900 g     F .text	00000120 write
0080e073 g     O .bss	00000001 g2
0080e074 g     O .bss	00000001 g7
0080e075 g     O .bss	00000001 _compsys303_a2_local_AEI_stop
0080a794 g       *ABS*	00000000 __ram_rodata_end
00805dc4 g     F .text	000000d4 fstat
0080e076 g     O .bss	00000001 g107_e1
0080e077 g     O .bss	00000001 g80
0080e078 g     O .bss	00000001 PRE_g25
0080a2bc g     F .text	00000008 __umodsi3
00803070 g     F .text	00000048 uri_isr_function
00802ad0 g     F .text	000000c8 buttons_isr
0080e4d0 g       *ABS*	00000000 end
0080e079 g     O .bss	00000001 g100
00807e00 g     F .text	0000050c altera_avalon_lcd_16207_write
0080e07a g     O .bss	00000001 g59
0080e07b g     O .bss	00000001 g54
0080e07c g     O .bss	00000001 g99
00808df4 g     F .text	000001c8 altera_avalon_uart_write
0080e07d g     O .bss	00000001 g23
0080e07e g     O .bss	00000001 g66
00806cc8 g     F .text	000000c0 altera_avalon_jtag_uart_init
0080e07f g     O .bss	00000001 _cg83
0080a324 g       *ABS*	00000000 __CTOR_LIST__
01000000 g       *ABS*	00000000 __alt_stack_pointer
0080e080 g     O .bss	00000001 _cg48
008085dc g     F .text	00000090 alt_avalon_timer_sc_init
008086c4 g     F .text	00000058 altera_avalon_uart_write_fd
0080871c g     F .text	00000048 altera_avalon_uart_close_fd
0080e081 g     O .bss	00000001 g107_e1_fix_fix
008073ec g     F .text	00000240 altera_avalon_jtag_uart_write
0080e082 g     O .bss	00000001 PRE_g71
00804b68 g     F .text	00000004 __sfp_lock_acquire
00803edc g     F .text	000000e4 memchr
0080e083 g     O .bss	00000001 g14
0080e084 g     O .bss	00000001 PRE_g79
0080e085 g     O .bss	00000001 PRE_g36
00804efc g     F .text	00000314 _free_r
0080e086 g     O .bss	00000001 _compsys303_a2_local_VRP_stop
00809fc8 g     F .text	000001b0 __call_exitprocs
0080e087 g     O .bss	00000001 g101
00802f08 g     F .text	00000048 avi_isr_function
0080c398 g     O .rwdata	00000004 __malloc_sbrk_base
008001b4 g     F .text	0000004c _start
0080e120 g     O .bss	00000004 _alt_tick_rate
0080e088 g     O .bss	00000001 g56
0080e089 g     O .bss	00000001 g62_e6
0080e08a g     O .bss	00000001 VSense
0080e124 g     O .bss	00000004 _alt_nticks
0080e08b g     O .bss	00000001 PRE_g6
008064c0 g     F .text	00000120 read
00806ab4 g     F .text	00000094 alt_sys_init
0080e08c g     O .bss	00000001 g78
0080e08d g     O .bss	00000001 g33
00809e90 g     F .text	00000134 __register_exitproc
0080e08e g     O .bss	00000001 g35b
00807060 g     F .text	00000074 altera_avalon_jtag_uart_close
0080a794 g       *ABS*	00000000 __ram_rwdata_start
0080a328 g       *ABS*	00000000 __ram_rodata_start
0080e218 g     O .bss	00000028 __malloc_current_mallinfo
0080e08f g     O .bss	00000001 _cg60
0080e090 g     O .bss	00000001 _cg29
00806b80 g     F .text	00000058 altera_avalon_jtag_uart_read_fd
0080e091 g     O .bss	00000001 g35
00809c88 g     F .text	000000b8 alt_get_fd
0080e092 g     O .bss	00000001 g32_e3
00809988 g     F .text	0000014c alt_busy_sleep
0080e093 g     O .bss	00000001 g15
00805780 g     F .text	00000070 _close_r
0080e094 g     O .bss	00000001 g90
0080e095 g     O .bss	00000001 _GO
00809e1c g     F .text	00000074 memcmp
0080e096 g     O .bss	00000001 URITO
00806c30 g     F .text	00000048 altera_avalon_jtag_uart_close_fd
0080e097 g     O .bss	00000001 VRPTO
0080e098 g     O .bss	00000001 PRE_g11
0080e4d0 g       *ABS*	00000000 __alt_stack_base
00806c78 g     F .text	00000050 altera_avalon_jtag_uart_ioctl_fd
008047a4 g     F .text	0000013c __swsetup_r
00800298 g     F .text	00002688 tick
00804ce0 g     F .text	000000f0 __sfp
0080e099 g     O .bss	00000001 g63
0080e09a g     O .bss	00000001 g20
0080e09b g     O .bss	00000001 AVITO
0080e09c g     O .bss	00000001 g60
0080ab94 g     O .rwdata	00000408 __malloc_av_
00804b74 g     F .text	00000004 __sinit_lock_release
0080e09d g     O .bss	00000001 PRE_g19
008056a8 g     F .text	00000060 __sread
00809b68 g     F .text	00000120 alt_find_file
0080e09e g     O .bss	00000001 g93
00809060 g     F .text	000000b4 alt_dev_llist_insert
00806480 g     F .text	00000020 __malloc_lock
008066a0 g     F .text	000000bc sbrk
008048e0 g     F .text	000001fc _fflush_r
00802bf0 g     F .text	00000058 initialise_aei_timer
0080e09f g     O .bss	00000001 PRE_g47
0080e0a0 g     O .bss	00000001 g107_e1_fix
0080e004 g       *ABS*	00000000 __bss_start
0080e0a1 g     O .bss	00000001 g86
0080e0a2 g     O .bss	00000001 g43
00805524 g     F .text	00000098 memset
00802920 g     F .text	0000011c main
0080e0a3 g     O .bss	00000001 _cg65
0080e11c g     O .bss	00000004 alt_envp
0080e108 g     O .bss	00000004 __malloc_max_total_mem
00806bd8 g     F .text	00000058 altera_avalon_jtag_uart_write_fd
0080e0a4 g     O .bss	00000001 PVARPTO
0080e0a5 g     O .bss	00000001 g36
008083d8 g     F .text	0000013c altera_avalon_lcd_16207_init
0080e0a6 g     O .bss	00000001 g89
0080e0a7 g     O .bss	00000001 g46
008055bc g     F .text	00000008 __sclose
01000000 g       *ABS*	00000000 __alt_heap_limit
00805900 g     F .text	00000014 fclose
0080e340 g     O .bss	00000190 _atexit0
0080379c g     F .text	00000740 _malloc_r
0080e0a8 g     O .bss	00000001 g57b
0080c3b0 g     O .rwdata	00000004 alt_errno
008052d8 g     F .text	000000b8 _fwalk
0080e0a9 g     O .bss	00000001 g95
0080e0aa g     O .bss	00000001 g50
0080e0ab g     O .bss	00000001 g96
0080e0ac g     O .bss	00000001 g51
0080a1f4 g     F .text	00000060 __divsi3
00804dd0 g     F .text	0000012c _malloc_trim_r
0080a328 g       *ABS*	00000000 __CTOR_END__
0080e0ad g     O .bss	00000001 _cg37
0080e0ae g     O .bss	00000001 g107
0080e0af g     O .bss	00000001 PRE_g74
0080a328 g       *ABS*	00000000 __flash_rodata_start
0080a328 g       *ABS*	00000000 __DTOR_LIST__
00803028 g     F .text	00000048 lri_isr_function
0080e0b0 g     O .bss	00000001 g54_e5
0080e0b1 g     O .bss	00000001 g107_fix2
0080e0b2 g     O .bss	00000001 _cg80
00806a80 g     F .text	00000034 alt_irq_init
00806640 g     F .text	00000060 alt_release_fd
0080e0b3 g     O .bss	00000001 g104
0080e0b4 g     O .bss	00000001 g13
0080e0b5 g     O .bss	00000001 PRE_g41
00802a3c g     F .text	0000001c mode0
0080e0b6 g     O .bss	00000001 g98
0080e0b7 g     O .bss	00000001 g53
0080e0b8 g     O .bss	00000001 g8
0080e0b9 g     O .bss	00000001 g57
0080e0ba g     O .bss	00000001 PRE_g44
00809dd0 g     F .text	00000014 atexit
00805708 g     F .text	00000078 _write_r
0080e0bb g     O .bss	00000001 _compsys303_a2_local_AVI_start
0080e0bc g     O .bss	00000001 g70
0080e0bd g     O .bss	00000001 g91b
0080c38c g     O .rwdata	00000004 _impure_ptr
0080e114 g     O .bss	00000004 alt_argc
0080e0be g     O .bss	00000001 g6
0080e0bf g     O .bss	00000001 _cg93
008091d8 g     F .text	00000064 _do_dtors
0080e0c0 g     O .bss	00000001 g82b
0080e0c1 g     O .bss	00000001 g72
0080e0c2 g     O .bss	00000001 g81
00800020 g       .exceptions	00000000 alt_irq_entry
0080e0c3 g     O .bss	00000001 g18b
0080e0c4 g     O .bss	00000001 _compsys303_a2_local_PVARP_start
00804c2c g     F .text	00000018 __fp_unlock_all
00808514 g     F .text	00000058 altera_avalon_lcd_16207_write_fd
0080e0c5 g     O .bss	00000001 _cg50
0080e0c6 g     O .bss	00000001 _cg13
0080e0c7 g     O .bss	00000001 _cg9
0080c39c g     O .rwdata	00000008 alt_fs_list
0080e0c8 g     O .bss	00000001 g0
0080e0c9 g     O .bss	00000001 _cg91
0080e0ca g     O .bss	00000001 g75
0080e0cb g     O .bss	00000001 g30
00800020 g       *ABS*	00000000 __ram_exceptions_start
0080e0cc g     O .bss	00000001 PRE_g58
0080e0cd g     O .bss	00000001 PRE_g66
0080e0ce g     O .bss	00000001 _cg30
0080e0cf g     O .bss	00000001 g16
0080926c g     F .text	00000050 alt_ic_isr_register
0080e0d0 g     O .bss	00000001 g58
0080e0d1 g     O .bss	00000001 _compsys303_a2_local_LRI_stop
0080e0d2 g     O .bss	00000001 _cg57
0080e0d3 g     O .bss	00000001 g68
0080e0d4 g     O .bss	00000001 g25
0080c3cc g       *ABS*	00000000 _edata
0080866c g     F .text	00000058 altera_avalon_uart_read_fd
00802f50 g     F .text	00000048 aei_isr_function
0080e4d0 g       *ABS*	00000000 _end
0080e0d5 g     O .bss	00000001 _compsys303_a2_local_LRI_start
0080e0d6 g     O .bss	00000001 g11
008001b4 g       *ABS*	00000000 __ram_exceptions_end
008070d4 g     F .text	000000f4 altera_avalon_jtag_uart_ioctl
0080e0d7 g     O .bss	00000001 g65
0080e0d8 g     O .bss	00000001 g22
0080e0d9 g     O .bss	00000001 g69_e7
0080e0da g     O .bss	00000001 g28
0080e0db g     O .bss	00000001 g73
00809358 g     F .text	000000a0 alt_ic_irq_disable
0080e0dc g     O .bss	00000001 g15_e1
0080562c g     F .text	0000007c __swrite
0080c394 g     O .rwdata	00000004 __malloc_trim_threshold
00809968 g     F .text	00000020 altera_nios2_qsys_irq_init
00809de4 g     F .text	00000038 exit
00805210 g     F .text	000000c8 _fwalk_reent
0080e0dd g     O .bss	00000001 g77
0080e0de g     O .bss	00000001 g32
0080e0df g     O .bss	00000001 _compsys303_a2_local_PVARP_ex
0080a254 g     F .text	00000060 __modsi3
0080e0e0 g     O .bss	00000001 g20b
0080e0e1 g     O .bss	00000001 g88
0080e0e2 g     O .bss	00000001 g45
01000000 g       *ABS*	00000000 __alt_data_end
00800020 g     F .exceptions	00000000 alt_exception
00804b6c g     F .text	00000004 __sfp_lock_release
0080e0e3 g     O .bss	00000001 _compsys303_a2_local_VRP_ex
0080e0e4 g     O .bss	00000001 _compsys303_a2_local_VRP_start
0080e0e5 g     O .bss	00000001 _cg18
0080a510 g     O .rodata	00000101 _ctype_
00802f98 g     F .text	00000048 pvarp_isr_function
00802cf8 g     F .text	00000058 initialise_lri_timer
0080e0e6 g     O .bss	00000001 g106_e11
0080e0e7 g     O .bss	00000001 PRE_g64
0080e0e8 g     O .bss	00000001 g77_e8
00808b04 g     F .text	00000060 altera_avalon_uart_close
00802d50 g     F .text	00000058 initialise_uri_timer
0080a304 g     F .text	00000020 _exit
00805ae8 g     F .text	00000154 alt_alarm_start
00805390 g     F .text	00000194 __smakebuf_r
0080e0e9 g     O .bss	00000001 VPace
0080e0ea g     O .bss	00000001 g12b
0080328c g     F .text	00000074 strlen
0080e0eb g     O .bss	00000001 g39
00809750 g     F .text	00000188 open
0080e0ec g     O .bss	00000001 _cg88
0080923c g     F .text	00000030 alt_icache_flush_all
0080e0ed g     O .bss	00000001 g29
0080e0ee g     O .bss	00000001 g67
0080e0ef g     O .bss	00000001 g24
0080e0f0 g     O .bss	00000001 _cg4
00802fe0 g     F .text	00000048 vrp_isr_function
0080c3b4 g     O .rwdata	00000004 alt_priority_mask
0080e0f1 g     O .bss	00000001 g109
008092bc g     F .text	0000009c alt_ic_irq_enable
00808b64 g     F .text	00000230 altera_avalon_uart_read
0080e0f2 g     O .bss	00000001 PRE_g92
0080e0f3 g     O .bss	00000001 _cg67
0080e0f4 g     O .bss	00000001 g106
0080e0f5 g     O .bss	00000001 _cg31
0080e0f6 g     O .bss	00000001 g10
0080c3bc g     O .rwdata	00000008 alt_alarm_list
0080e0f7 g     O .bss	00000001 g48b
00809174 g     F .text	00000064 _do_ctors
0080e0f8 g     O .bss	00000001 AEITO
0080e0f9 g     O .bss	00000001 g69
0080e0fa g     O .bss	00000001 g26
00805c3c g     F .text	000000fc close
00802a74 g     F .text	0000005c init_buttons_pio
0080e0fb g     O .bss	00000001 g23_e2
008061d8 g     F .text	00000080 alt_load
0080e0fc g     O .bss	00000001 _cg72
00000000  w      *UND*	00000000 free
00804b70 g     F .text	00000004 __sinit_lock_acquire
0080e0fd g     O .bss	00000001 g74



Disassembly of section .entry:

00800000 <__reset>:
#if NIOS2_ICACHE_SIZE > 0 && defined(ALT_ALLOW_CODE_AT_RESET) && !defined(ALT_SIM_OPTIMIZE)
    /* Assume the instruction cache size is always a power of two. */
#if NIOS2_ICACHE_SIZE > 0x8000
    movhi r2, %hi(NIOS2_ICACHE_SIZE)
#else
    movui r2, NIOS2_ICACHE_SIZE
  800000:	00840014 	movui	r2,4096
#endif

0:
    initi r2
  800004:	1001483a 	initi	r2
    addi r2, r2, -NIOS2_ICACHE_LINE_SIZE
  800008:	10bff804 	addi	r2,r2,-32
    bgt r2, zero, 0b
  80000c:	00bffd16 	blt	zero,r2,800004 <__reset+0x4>
 * Jump to the _start entry point in the .text section if reset code
 * is allowed or if optimizing for RTL simulation.
 */
#if defined(ALT_ALLOW_CODE_AT_RESET) || defined(ALT_SIM_OPTIMIZE)
    /* Jump to the _start entry point in the .text section. */
    movhi r1, %hi(_start)
  800010:	00402034 	movhi	at,128
    ori r1, r1, %lo(_start)
  800014:	08406d14 	ori	at,at,436
    jmp r1
  800018:	0800683a 	jmp	at
  80001c:	00000000 	call	0 <__reset-0x800000>

Disassembly of section .exceptions:

00800020 <alt_exception>:
         * Process an exception.  For all exceptions we must preserve all
         * caller saved registers on the stack (See the Nios2 ABI
         * documentation for details).
         */

        addi  sp, sp, -76
  800020:	deffed04 	addi	sp,sp,-76

#endif

#endif

        stw   ra,  0(sp)
  800024:	dfc00015 	stw	ra,0(sp)
        /*
         * Leave a gap in the stack frame at 4(sp) for the muldiv handler to
         * store zero into.
         */

        stw   r1,   8(sp)
  800028:	d8400215 	stw	at,8(sp)
        stw   r2,  12(sp)
  80002c:	d8800315 	stw	r2,12(sp)
        stw   r3,  16(sp)
  800030:	d8c00415 	stw	r3,16(sp)
        stw   r4,  20(sp)
  800034:	d9000515 	stw	r4,20(sp)
        stw   r5,  24(sp)
  800038:	d9400615 	stw	r5,24(sp)
        stw   r6,  28(sp)
  80003c:	d9800715 	stw	r6,28(sp)
        stw   r7,  32(sp)
  800040:	d9c00815 	stw	r7,32(sp)

        rdctl r5, estatus
  800044:	000b307a 	rdctl	r5,estatus

        stw   r8,  36(sp)
  800048:	da000915 	stw	r8,36(sp)
        stw   r9,  40(sp)
  80004c:	da400a15 	stw	r9,40(sp)
        stw   r10, 44(sp)
  800050:	da800b15 	stw	r10,44(sp)
        stw   r11, 48(sp)
  800054:	dac00c15 	stw	r11,48(sp)
        stw   r12, 52(sp)
  800058:	db000d15 	stw	r12,52(sp)
        stw   r13, 56(sp)
  80005c:	db400e15 	stw	r13,56(sp)
        stw   r14, 60(sp)
  800060:	db800f15 	stw	r14,60(sp)
        stw   r15, 64(sp)
  800064:	dbc01015 	stw	r15,64(sp)
        /*
         * ea-4 contains the address of the instruction being executed
         * when the exception occured. For interrupt exceptions, we will
         * will be re-issue the isntruction. Store it in 72(sp)
         */
        stw   r5,  68(sp)  /* estatus */
  800068:	d9401115 	stw	r5,68(sp)
        addi  r15, ea, -4  /* instruction that caused exception */
  80006c:	ebffff04 	addi	r15,ea,-4
        stw   r15,  72(sp)
  800070:	dbc01215 	stw	r15,72(sp)
#else
        /*
         * Test to see if the exception was a software exception or caused 
         * by an external interrupt, and vector accordingly.
         */
        rdctl r4, ipending
  800074:	0009313a 	rdctl	r4,ipending
        andi  r2, r5, 1
  800078:	2880004c 	andi	r2,r5,1
        beq   r2, zero, .Lnot_irq
  80007c:	10000326 	beq	r2,zero,80008c <alt_exception+0x6c>
        beq   r4, zero, .Lnot_irq
  800080:	20000226 	beq	r4,zero,80008c <alt_exception+0x6c>
        /*
         * Now that all necessary registers have been preserved, call 
         * alt_irq_handler() to process the interrupts.
         */

        call alt_irq_handler
  800084:	08000ec0 	call	8000ec <alt_irq_handler>

        .section .exceptions.irqreturn, "xa"

        br    .Lexception_exit
  800088:	00000306 	br	800098 <alt_exception+0x78>
         * upon completion, so we write ea (address of instruction *after*
         * the one where the exception occured) into 72(sp). The actual
         * instruction that caused the exception is written in r2, which these
         * handlers will utilize.
         */
        stw   ea,  72(sp)  /* Don't re-issue */
  80008c:	df401215 	stw	ea,72(sp)
        ldw   r2, -4(ea)   /* Instruction that caused exception */
  800090:	e8bfff17 	ldw	r2,-4(ea)
#ifdef NIOS2_HAS_DEBUG_STUB
       /*
        *  Either tell the user now (if there is a debugger attached) or go into
        *  the debug monitor which will loop until a debugger is attached.
        */
        break
  800094:	003da03a 	break	0
        /* 
         * Restore the saved registers, so that all general purpose registers 
         * have been restored to their state at the time the interrupt occured.
         */

        ldw   r5,  68(sp)
  800098:	d9401117 	ldw	r5,68(sp)
        ldw   ea,  72(sp)  /* This becomes the PC once eret is executed */
  80009c:	df401217 	ldw	ea,72(sp)
        ldw   ra,   0(sp)
  8000a0:	dfc00017 	ldw	ra,0(sp)

        wrctl estatus, r5
  8000a4:	2801707a 	wrctl	estatus,r5

        ldw   r1,   8(sp)
  8000a8:	d8400217 	ldw	at,8(sp)
        ldw   r2,  12(sp)
  8000ac:	d8800317 	ldw	r2,12(sp)
        ldw   r3,  16(sp)
  8000b0:	d8c00417 	ldw	r3,16(sp)
        ldw   r4,  20(sp)
  8000b4:	d9000517 	ldw	r4,20(sp)
        ldw   r5,  24(sp)
  8000b8:	d9400617 	ldw	r5,24(sp)
        ldw   r6,  28(sp)
  8000bc:	d9800717 	ldw	r6,28(sp)
        ldw   r7,  32(sp)
  8000c0:	d9c00817 	ldw	r7,32(sp)
#ifdef ALT_STACK_CHECK
        ldw   et, %gprel(alt_exception_old_stack_limit)(gp)
#endif
#endif

        ldw   r8,  36(sp)
  8000c4:	da000917 	ldw	r8,36(sp)
        ldw   r9,  40(sp)
  8000c8:	da400a17 	ldw	r9,40(sp)
        ldw   r10, 44(sp)
  8000cc:	da800b17 	ldw	r10,44(sp)
        ldw   r11, 48(sp)
  8000d0:	dac00c17 	ldw	r11,48(sp)
        ldw   r12, 52(sp)
  8000d4:	db000d17 	ldw	r12,52(sp)
        ldw   r13, 56(sp)
  8000d8:	db400e17 	ldw	r13,56(sp)
        ldw   r14, 60(sp)
  8000dc:	db800f17 	ldw	r14,60(sp)
        ldw   r15, 64(sp)
  8000e0:	dbc01017 	ldw	r15,64(sp)
#endif

        ldw   sp,  76(sp)

#else
        addi  sp, sp, 76
  8000e4:	dec01304 	addi	sp,sp,76

        /*
         * Return to the interrupted instruction.
         */

        eret
  8000e8:	ef80083a 	eret

008000ec <alt_irq_handler>:
 * instruction is present if the macro ALT_CI_INTERRUPT_VECTOR defined.
 */

void alt_irq_handler (void) __attribute__ ((section (".exceptions")));
void alt_irq_handler (void)
{
  8000ec:	defff904 	addi	sp,sp,-28
  8000f0:	dfc00615 	stw	ra,24(sp)
  8000f4:	df000515 	stw	fp,20(sp)
  8000f8:	df000504 	addi	fp,sp,20
#ifndef NIOS2_EIC_PRESENT
static ALT_INLINE alt_u32 ALT_ALWAYS_INLINE alt_irq_pending (void)
{
  alt_u32 active;

  NIOS2_READ_IPENDING (active);
  8000fc:	0005313a 	rdctl	r2,ipending
  800100:	e0bffc15 	stw	r2,-16(fp)

  return active;
  800104:	e0bffc17 	ldw	r2,-16(fp)
   * Consider the case where the high priority interupt is asserted during
   * the interrupt entry sequence for a lower priority interrupt to see why
   * this is the case.
   */

  active = alt_irq_pending ();
  800108:	e0bfff15 	stw	r2,-4(fp)

  do
  {
    i = 0;
  80010c:	e03ffd15 	stw	zero,-12(fp)
    mask = 1;
  800110:	00800044 	movi	r2,1
  800114:	e0bffe15 	stw	r2,-8(fp)
     * called to clear the interrupt condition.
     */

    do
    {
      if (active & mask)
  800118:	e0ffff17 	ldw	r3,-4(fp)
  80011c:	e0bffe17 	ldw	r2,-8(fp)
  800120:	1884703a 	and	r2,r3,r2
  800124:	1005003a 	cmpeq	r2,r2,zero
  800128:	1000161e 	bne	r2,zero,800184 <alt_irq_handler+0x98>
      { 
#ifdef ALT_ENHANCED_INTERRUPT_API_PRESENT
        alt_irq[i].handler(alt_irq[i].context); 
  80012c:	e0bffd17 	ldw	r2,-12(fp)
  800130:	00c02074 	movhi	r3,129
  800134:	18f89004 	addi	r3,r3,-7616
  800138:	100490fa 	slli	r2,r2,3
  80013c:	10c5883a 	add	r2,r2,r3
  800140:	11400017 	ldw	r5,0(r2)
  800144:	e0bffd17 	ldw	r2,-12(fp)
  800148:	00c02074 	movhi	r3,129
  80014c:	18f89004 	addi	r3,r3,-7616
  800150:	100490fa 	slli	r2,r2,3
  800154:	10c5883a 	add	r2,r2,r3
  800158:	10800104 	addi	r2,r2,4
  80015c:	11000017 	ldw	r4,0(r2)
  800160:	283ee83a 	callr	r5
#ifndef NIOS2_EIC_PRESENT
static ALT_INLINE alt_u32 ALT_ALWAYS_INLINE alt_irq_pending (void)
{
  alt_u32 active;

  NIOS2_READ_IPENDING (active);
  800164:	0005313a 	rdctl	r2,ipending
  800168:	e0bffb15 	stw	r2,-20(fp)

  return active;
  80016c:	e0bffb17 	ldw	r2,-20(fp)
      mask <<= 1;
      i++;

    } while (1);

    active = alt_irq_pending ();
  800170:	e0bfff15 	stw	r2,-4(fp)
    
  } while (active);
  800174:	e0bfff17 	ldw	r2,-4(fp)
  800178:	1004c03a 	cmpne	r2,r2,zero
  80017c:	103fe31e 	bne	r2,zero,80010c <alt_irq_handler+0x20>
  800180:	00000706 	br	8001a0 <alt_irq_handler+0xb4>
#else
        alt_irq[i].handler(alt_irq[i].context, i); 
#endif
        break;
      }
      mask <<= 1;
  800184:	e0bffe17 	ldw	r2,-8(fp)
  800188:	1085883a 	add	r2,r2,r2
  80018c:	e0bffe15 	stw	r2,-8(fp)
      i++;
  800190:	e0bffd17 	ldw	r2,-12(fp)
  800194:	10800044 	addi	r2,r2,1
  800198:	e0bffd15 	stw	r2,-12(fp)

    } while (1);
  80019c:	003fde06 	br	800118 <alt_irq_handler+0x2c>
  /*
   * Notify the operating system that interrupt processing is complete.
   */ 

  ALT_OS_INT_EXIT();
}
  8001a0:	e037883a 	mov	sp,fp
  8001a4:	dfc00117 	ldw	ra,4(sp)
  8001a8:	df000017 	ldw	fp,0(sp)
  8001ac:	dec00204 	addi	sp,sp,8
  8001b0:	f800283a 	ret

Disassembly of section .text:

008001b4 <_start>:

    /* Assume the data cache size is always a power of two. */
#if NIOS2_DCACHE_SIZE > 0x8000
    movhi r2, %hi(NIOS2_DCACHE_SIZE)
#else
    movui r2, NIOS2_DCACHE_SIZE
  8001b4:	00820014 	movui	r2,2048
#endif

0:
    initd 0(r2)
  8001b8:	10000033 	initd	0(r2)
    addi r2, r2, -NIOS2_DCACHE_LINE_SIZE
  8001bc:	10bff804 	addi	r2,r2,-32
    bgt r2, zero, 0b
  8001c0:	00bffd16 	blt	zero,r2,8001b8 <_start+0x4>
#if (NIOS2_NUM_OF_SHADOW_REG_SETS == 0)    
    /*
     * Now that the caches are initialized, set up the stack pointer.
     * The value provided by the linker is assumed to be correctly aligned.
     */
    movhi sp, %hi(__alt_stack_pointer)
  8001c4:	06c04034 	movhi	sp,256
    ori sp, sp, %lo(__alt_stack_pointer)
  8001c8:	dec00014 	ori	sp,sp,0

    /* Set up the global pointer. */
    movhi gp, %hi(_gp)
  8001cc:	06802074 	movhi	gp,129
    ori gp, gp, %lo(_gp)
  8001d0:	d690e214 	ori	gp,gp,17288
 */
#ifndef ALT_SIM_OPTIMIZE
    /* Log that the BSS is about to be cleared. */
    ALT_LOG_PUTS(alt_log_msg_bss)

    movhi r2, %hi(__bss_start)
  8001d4:	00802034 	movhi	r2,128
    ori r2, r2, %lo(__bss_start)
  8001d8:	10b80114 	ori	r2,r2,57348

    movhi r3, %hi(__bss_end)
  8001dc:	00c02034 	movhi	r3,128
    ori r3, r3, %lo(__bss_end)
  8001e0:	18f93414 	ori	r3,r3,58576

    beq r2, r3, 1f
  8001e4:	10c00326 	beq	r2,r3,8001f4 <_start+0x40>

0:
    stw zero, (r2)
  8001e8:	10000015 	stw	zero,0(r2)
    addi r2, r2, 4
  8001ec:	10800104 	addi	r2,r2,4
    bltu r2, r3, 0b
  8001f0:	10fffd36 	bltu	r2,r3,8001e8 <_start+0x34>
     * section aren't defined until alt_load() has been called).
     */
    mov   et, zero
#endif

    call alt_load
  8001f4:	08061d80 	call	8061d8 <alt_load>

    /* Log that alt_main is about to be called. */
    ALT_LOG_PUTS(alt_log_msg_alt_main)

    /* Call the C entry point. It should never return. */
    call alt_main
  8001f8:	08064140 	call	806414 <alt_main>

008001fc <alt_after_alt_main>:

    /* Wait in infinite loop in case alt_main does return. */
alt_after_alt_main:
    br alt_after_alt_main
  8001fc:	003fff06 	br	8001fc <alt_after_alt_main>

00800200 <reset>:
char g107_e1_fix_fix;
char g107_e1_fix;
char g107_e1;
char g111_e2;
int _PRE_GO;
void reset(){
  800200:	deffff04 	addi	sp,sp,-4
  800204:	df000015 	stw	fp,0(sp)
  800208:	d839883a 	mov	fp,sp
   _GO = 1;
  80020c:	00800044 	movi	r2,1
  800210:	d0a74345 	stb	r2,-25331(gp)
   _PRE_GO = 0;
  800214:	d0272915 	stw	zero,-25436(gp)
   PRE_g3 = 0;
  800218:	d0272a45 	stb	zero,-25431(gp)
   PRE_g6 = 0;
  80021c:	d02740c5 	stb	zero,-25341(gp)
   PRE_g8 = 0;
  800220:	d0273305 	stb	zero,-25396(gp)
   PRE_g11 = 0;
  800224:	d0274405 	stb	zero,-25328(gp)
   PRE_g17 = 0;
  800228:	d0273345 	stb	zero,-25395(gp)
   PRE_g19 = 0;
  80022c:	d0274545 	stb	zero,-25323(gp)
   PRE_g25 = 0;
  800230:	d0273c05 	stb	zero,-25360(gp)
   PRE_g28 = 0;
  800234:	d0272dc5 	stb	zero,-25417(gp)
   PRE_g34 = 0;
  800238:	d0273045 	stb	zero,-25407(gp)
   PRE_g36 = 0;
  80023c:	d0273f45 	stb	zero,-25347(gp)
   PRE_g41 = 0;
  800240:	d0274b45 	stb	zero,-25299(gp)
   PRE_g44 = 0;
  800244:	d0274c85 	stb	zero,-25294(gp)
   PRE_g47 = 0;
  800248:	d02745c5 	stb	zero,-25321(gp)
   PRE_g49 = 0;
  80024c:	d02732c5 	stb	zero,-25397(gp)
   PRE_g56 = 0;
  800250:	d0272b05 	stb	zero,-25428(gp)
   PRE_g58 = 0;
  800254:	d0275105 	stb	zero,-25276(gp)
   PRE_g64 = 0;
  800258:	d02757c5 	stb	zero,-25249(gp)
   PRE_g66 = 0;
  80025c:	d0275145 	stb	zero,-25275(gp)
   PRE_g71 = 0;
  800260:	d0273e85 	stb	zero,-25350(gp)
   PRE_g74 = 0;
  800264:	d02749c5 	stb	zero,-25305(gp)
   PRE_g79 = 0;
  800268:	d0273f05 	stb	zero,-25348(gp)
   PRE_g81 = 0;
  80026c:	d0273405 	stb	zero,-25392(gp)
   PRE_g87 = 0;
  800270:	d0273645 	stb	zero,-25383(gp)
   PRE_g90 = 0;
  800274:	d0272545 	stb	zero,-25451(gp)
   PRE_g92 = 0;
  800278:	d0275a85 	stb	zero,-25238(gp)
   PRE_g95 = 0;
  80027c:	d0272285 	stb	zero,-25462(gp)
   PRE_g104 = 0;
  800280:	d0273485 	stb	zero,-25390(gp)
   PRE_g109 = 0;
  800284:	d0273185 	stb	zero,-25402(gp)
   return;
}
  800288:	e037883a 	mov	sp,fp
  80028c:	df000017 	ldw	fp,0(sp)
  800290:	dec00104 	addi	sp,sp,4
  800294:	f800283a 	ret

00800298 <tick>:
void tick(){
  800298:	deffb604 	addi	sp,sp,-296
  80029c:	df004915 	stw	fp,292(sp)
  8002a0:	df004904 	addi	fp,sp,292
   if(_PRE_GO == 1){
  8002a4:	d0a72917 	ldw	r2,-25436(gp)
  8002a8:	10800058 	cmpnei	r2,r2,1
  8002ac:	1000011e 	bne	r2,zero,8002b4 <tick+0x1c>
      _GO = 0;
  8002b0:	d0274345 	stb	zero,-25331(gp)
   }
   {
      g0 = _GO;
  8002b4:	d0a74343 	ldbu	r2,-25331(gp)
  8002b8:	d0a75005 	stb	r2,-25280(gp)
      g1 = g0;
  8002bc:	d0a75003 	ldbu	r2,-25280(gp)
  8002c0:	d0a72d05 	stb	r2,-25420(gp)
      g2 = g1;
  8002c4:	d0a72d03 	ldbu	r2,-25420(gp)
  8002c8:	d0a73ac5 	stb	r2,-25365(gp)
      g4 =(PRE_g3);
  8002cc:	d0a72a43 	ldbu	r2,-25431(gp)
  8002d0:	d0a722c5 	stb	r2,-25461(gp)
      _cg4 = VSense;
  8002d4:	d0a74083 	ldbu	r2,-25342(gp)
  8002d8:	d0a75a05 	stb	r2,-25240(gp)
      g3 =(g2||(g4&&(!(_cg4))));
  8002dc:	d0a73ac3 	ldbu	r2,-25365(gp)
  8002e0:	10803fcc 	andi	r2,r2,255
  8002e4:	1080201c 	xori	r2,r2,128
  8002e8:	10bfe004 	addi	r2,r2,-128
  8002ec:	1004c03a 	cmpne	r2,r2,zero
  8002f0:	10000c1e 	bne	r2,zero,800324 <tick+0x8c>
  8002f4:	d0a722c3 	ldbu	r2,-25461(gp)
  8002f8:	10803fcc 	andi	r2,r2,255
  8002fc:	1080201c 	xori	r2,r2,128
  800300:	10bfe004 	addi	r2,r2,-128
  800304:	1005003a 	cmpeq	r2,r2,zero
  800308:	1000091e 	bne	r2,zero,800330 <tick+0x98>
  80030c:	d0a75a03 	ldbu	r2,-25240(gp)
  800310:	10803fcc 	andi	r2,r2,255
  800314:	1080201c 	xori	r2,r2,128
  800318:	10bfe004 	addi	r2,r2,-128
  80031c:	1004c03a 	cmpne	r2,r2,zero
  800320:	1000031e 	bne	r2,zero,800330 <tick+0x98>
  800324:	00800044 	movi	r2,1
  800328:	e0bfff15 	stw	r2,-4(fp)
  80032c:	00000106 	br	800334 <tick+0x9c>
  800330:	e03fff15 	stw	zero,-4(fp)
  800334:	e0ffff17 	ldw	r3,-4(fp)
  800338:	1805883a 	mov	r2,r3
  80033c:	d0a72645 	stb	r2,-25447(gp)
      g103 = g1;
  800340:	d0a72d03 	ldbu	r2,-25420(gp)
  800344:	d0a72685 	stb	r2,-25446(gp)
      g105 =(PRE_g104);
  800348:	d0a73483 	ldbu	r2,-25390(gp)
  80034c:	d0a735c5 	stb	r2,-25385(gp)
      g104 =(g103||g105);
  800350:	d0a72683 	ldbu	r2,-25446(gp)
  800354:	10803fcc 	andi	r2,r2,255
  800358:	1080201c 	xori	r2,r2,128
  80035c:	10bfe004 	addi	r2,r2,-128
  800360:	1004c03a 	cmpne	r2,r2,zero
  800364:	1000061e 	bne	r2,zero,800380 <tick+0xe8>
  800368:	d0a735c3 	ldbu	r2,-25385(gp)
  80036c:	10803fcc 	andi	r2,r2,255
  800370:	1080201c 	xori	r2,r2,128
  800374:	10bfe004 	addi	r2,r2,-128
  800378:	1005003a 	cmpeq	r2,r2,zero
  80037c:	1000031e 	bne	r2,zero,80038c <tick+0xf4>
  800380:	00800044 	movi	r2,1
  800384:	e0bffe15 	stw	r2,-8(fp)
  800388:	00000106 	br	800390 <tick+0xf8>
  80038c:	e03ffe15 	stw	zero,-8(fp)
  800390:	e0fffe17 	ldw	r3,-8(fp)
  800394:	1805883a 	mov	r2,r3
  800398:	d0a74ac5 	stb	r2,-25301(gp)
      if(g104){
  80039c:	d0a74ac3 	ldbu	r2,-25301(gp)
  8003a0:	10803fcc 	andi	r2,r2,255
  8003a4:	1080201c 	xori	r2,r2,128
  8003a8:	10bfe004 	addi	r2,r2,-128
  8003ac:	1005003a 	cmpeq	r2,r2,zero
  8003b0:	10000f1e 	bne	r2,zero,8003f0 <tick+0x158>
         _compsys303_a2_local_LRI_start = 0;
  8003b4:	d0275345 	stb	zero,-25267(gp)
         _compsys303_a2_local_LRI_ex = 0;
  8003b8:	d0272b45 	stb	zero,-25427(gp)
         _compsys303_a2_local_LRI_stop = 0;
  8003bc:	d0275245 	stb	zero,-25271(gp)
         _compsys303_a2_local_VRP_start = 0;
  8003c0:	d0275705 	stb	zero,-25252(gp)
         _compsys303_a2_local_VRP_ex = 0;
  8003c4:	d02756c5 	stb	zero,-25253(gp)
         _compsys303_a2_local_VRP_stop = 0;
  8003c8:	d0273f85 	stb	zero,-25346(gp)
         _compsys303_a2_local_AVI_start = 0;
  8003cc:	d0274cc5 	stb	zero,-25293(gp)
         _compsys303_a2_local_AVI_ex = 0;
  8003d0:	d0273385 	stb	zero,-25394(gp)
         _compsys303_a2_local_AVI_stop = 0;
  8003d4:	d0272fc5 	stb	zero,-25409(gp)
         _compsys303_a2_local_PVARP_start = 0;
  8003d8:	d0274f05 	stb	zero,-25284(gp)
         _compsys303_a2_local_PVARP_ex = 0;
  8003dc:	d02755c5 	stb	zero,-25257(gp)
         _compsys303_a2_local_PVARP_stop = 0;
  8003e0:	d02737c5 	stb	zero,-25377(gp)
         _compsys303_a2_local_AEI_start = 0;
  8003e4:	d02725c5 	stb	zero,-25449(gp)
         _compsys303_a2_local_AEI_ex = 0;
  8003e8:	d0272a05 	stb	zero,-25432(gp)
         _compsys303_a2_local_AEI_stop = 0;
  8003ec:	d0273b45 	stb	zero,-25363(gp)
      }
      g5 =(g4&&_cg4);
  8003f0:	d0a722c3 	ldbu	r2,-25461(gp)
  8003f4:	10803fcc 	andi	r2,r2,255
  8003f8:	1080201c 	xori	r2,r2,128
  8003fc:	10bfe004 	addi	r2,r2,-128
  800400:	1005003a 	cmpeq	r2,r2,zero
  800404:	1000091e 	bne	r2,zero,80042c <tick+0x194>
  800408:	d0a75a03 	ldbu	r2,-25240(gp)
  80040c:	10803fcc 	andi	r2,r2,255
  800410:	1080201c 	xori	r2,r2,128
  800414:	10bfe004 	addi	r2,r2,-128
  800418:	1005003a 	cmpeq	r2,r2,zero
  80041c:	1000031e 	bne	r2,zero,80042c <tick+0x194>
  800420:	00800044 	movi	r2,1
  800424:	e0bffd15 	stw	r2,-12(fp)
  800428:	00000106 	br	800430 <tick+0x198>
  80042c:	e03ffd15 	stw	zero,-12(fp)
  800430:	e0fffd17 	ldw	r3,-12(fp)
  800434:	1805883a 	mov	r2,r3
  800438:	d0a739c5 	stb	r2,-25369(gp)
      if(g5){
  80043c:	d0a739c3 	ldbu	r2,-25369(gp)
  800440:	10803fcc 	andi	r2,r2,255
  800444:	1080201c 	xori	r2,r2,128
  800448:	10bfe004 	addi	r2,r2,-128
  80044c:	1005003a 	cmpeq	r2,r2,zero
  800450:	1000021e 	bne	r2,zero,80045c <tick+0x1c4>
         _compsys303_a2_local_LRI_start =(_compsys303_a2_local_LRI_start||1);
  800454:	00800044 	movi	r2,1
  800458:	d0a75345 	stb	r2,-25267(gp)
      }
      g12 =(PRE_g11);
  80045c:	d0a74403 	ldbu	r2,-25328(gp)
  800460:	d0a72ec5 	stb	r2,-25413(gp)
      g12b = g12;
  800464:	d0a72ec3 	ldbu	r2,-25413(gp)
  800468:	d0a75885 	stb	r2,-25246(gp)
      if(g12b){
  80046c:	d0a75883 	ldbu	r2,-25246(gp)
  800470:	10803fcc 	andi	r2,r2,255
  800474:	1080201c 	xori	r2,r2,128
  800478:	10bfe004 	addi	r2,r2,-128
  80047c:	1005003a 	cmpeq	r2,r2,zero
  800480:	1000021e 	bne	r2,zero,80048c <tick+0x1f4>
         _compsys303_a2_local_LRI_start =(_compsys303_a2_local_LRI_start||1);
  800484:	00800044 	movi	r2,1
  800488:	d0a75345 	stb	r2,-25267(gp)
      }
      g37 =(PRE_g36);
  80048c:	d0a73f43 	ldbu	r2,-25347(gp)
  800490:	d0a73105 	stb	r2,-25404(gp)
      _cg37 = VRPTO;
  800494:	d0a743c3 	ldbu	r2,-25329(gp)
  800498:	d0a74945 	stb	r2,-25307(gp)
      g38 =(g37&&_cg37);
  80049c:	d0a73103 	ldbu	r2,-25404(gp)
  8004a0:	10803fcc 	andi	r2,r2,255
  8004a4:	1080201c 	xori	r2,r2,128
  8004a8:	10bfe004 	addi	r2,r2,-128
  8004ac:	1005003a 	cmpeq	r2,r2,zero
  8004b0:	1000091e 	bne	r2,zero,8004d8 <tick+0x240>
  8004b4:	d0a74943 	ldbu	r2,-25307(gp)
  8004b8:	10803fcc 	andi	r2,r2,255
  8004bc:	1080201c 	xori	r2,r2,128
  8004c0:	10bfe004 	addi	r2,r2,-128
  8004c4:	1005003a 	cmpeq	r2,r2,zero
  8004c8:	1000031e 	bne	r2,zero,8004d8 <tick+0x240>
  8004cc:	00800044 	movi	r2,1
  8004d0:	e0bffc15 	stw	r2,-16(fp)
  8004d4:	00000106 	br	8004dc <tick+0x244>
  8004d8:	e03ffc15 	stw	zero,-16(fp)
  8004dc:	e0fffc17 	ldw	r3,-16(fp)
  8004e0:	1805883a 	mov	r2,r3
  8004e4:	d0a73585 	stb	r2,-25386(gp)
      if(g38){
  8004e8:	d0a73583 	ldbu	r2,-25386(gp)
  8004ec:	10803fcc 	andi	r2,r2,255
  8004f0:	1080201c 	xori	r2,r2,128
  8004f4:	10bfe004 	addi	r2,r2,-128
  8004f8:	1005003a 	cmpeq	r2,r2,zero
  8004fc:	1000021e 	bne	r2,zero,800508 <tick+0x270>
         _compsys303_a2_local_VRP_ex =(_compsys303_a2_local_VRP_ex||1);
  800500:	00800044 	movi	r2,1
  800504:	d0a756c5 	stb	r2,-25253(gp)
      }
      g7 =(PRE_g6);
  800508:	d0a740c3 	ldbu	r2,-25341(gp)
  80050c:	d0a73b05 	stb	r2,-25364(gp)
      g7b = g7;
  800510:	d0a73b03 	ldbu	r2,-25364(gp)
  800514:	d0a72e05 	stb	r2,-25416(gp)
      _cg7 = _compsys303_a2_local_VRP_ex;
  800518:	d0a756c3 	ldbu	r2,-25253(gp)
  80051c:	d0a72805 	stb	r2,-25440(gp)
      g6 =(g12b||(g7b&&(!(_cg7)))||g5);
  800520:	d0a75883 	ldbu	r2,-25246(gp)
  800524:	10803fcc 	andi	r2,r2,255
  800528:	1080201c 	xori	r2,r2,128
  80052c:	10bfe004 	addi	r2,r2,-128
  800530:	1004c03a 	cmpne	r2,r2,zero
  800534:	1000121e 	bne	r2,zero,800580 <tick+0x2e8>
  800538:	d0a72e03 	ldbu	r2,-25416(gp)
  80053c:	10803fcc 	andi	r2,r2,255
  800540:	1080201c 	xori	r2,r2,128
  800544:	10bfe004 	addi	r2,r2,-128
  800548:	1005003a 	cmpeq	r2,r2,zero
  80054c:	1000061e 	bne	r2,zero,800568 <tick+0x2d0>
  800550:	d0a72803 	ldbu	r2,-25440(gp)
  800554:	10803fcc 	andi	r2,r2,255
  800558:	1080201c 	xori	r2,r2,128
  80055c:	10bfe004 	addi	r2,r2,-128
  800560:	1005003a 	cmpeq	r2,r2,zero
  800564:	1000061e 	bne	r2,zero,800580 <tick+0x2e8>
  800568:	d0a739c3 	ldbu	r2,-25369(gp)
  80056c:	10803fcc 	andi	r2,r2,255
  800570:	1080201c 	xori	r2,r2,128
  800574:	10bfe004 	addi	r2,r2,-128
  800578:	1005003a 	cmpeq	r2,r2,zero
  80057c:	1000031e 	bne	r2,zero,80058c <tick+0x2f4>
  800580:	00800044 	movi	r2,1
  800584:	e0bffb15 	stw	r2,-20(fp)
  800588:	00000106 	br	800590 <tick+0x2f8>
  80058c:	e03ffb15 	stw	zero,-20(fp)
  800590:	e0fffb17 	ldw	r3,-20(fp)
  800594:	1805883a 	mov	r2,r3
  800598:	d0a74d85 	stb	r2,-25290(gp)
      g9 =(PRE_g8);
  80059c:	d0a73303 	ldbu	r2,-25396(gp)
  8005a0:	d0a72785 	stb	r2,-25442(gp)
      _cg9 = VSense;
  8005a4:	d0a74083 	ldbu	r2,-25342(gp)
  8005a8:	d0a74fc5 	stb	r2,-25281(gp)
      g10 =(g9&&_cg9);
  8005ac:	d0a72783 	ldbu	r2,-25442(gp)
  8005b0:	10803fcc 	andi	r2,r2,255
  8005b4:	1080201c 	xori	r2,r2,128
  8005b8:	10bfe004 	addi	r2,r2,-128
  8005bc:	1005003a 	cmpeq	r2,r2,zero
  8005c0:	1000091e 	bne	r2,zero,8005e8 <tick+0x350>
  8005c4:	d0a74fc3 	ldbu	r2,-25281(gp)
  8005c8:	10803fcc 	andi	r2,r2,255
  8005cc:	1080201c 	xori	r2,r2,128
  8005d0:	10bfe004 	addi	r2,r2,-128
  8005d4:	1005003a 	cmpeq	r2,r2,zero
  8005d8:	1000031e 	bne	r2,zero,8005e8 <tick+0x350>
  8005dc:	00800044 	movi	r2,1
  8005e0:	e0bffa15 	stw	r2,-24(fp)
  8005e4:	00000106 	br	8005ec <tick+0x354>
  8005e8:	e03ffa15 	stw	zero,-24(fp)
  8005ec:	e0fffa17 	ldw	r3,-24(fp)
  8005f0:	1805883a 	mov	r2,r3
  8005f4:	d0a75b85 	stb	r2,-25234(gp)
      if(g10){
  8005f8:	d0a75b83 	ldbu	r2,-25234(gp)
  8005fc:	10803fcc 	andi	r2,r2,255
  800600:	1080201c 	xori	r2,r2,128
  800604:	10bfe004 	addi	r2,r2,-128
  800608:	1005003a 	cmpeq	r2,r2,zero
  80060c:	1000021e 	bne	r2,zero,800618 <tick+0x380>
         _compsys303_a2_local_LRI_stop =(_compsys303_a2_local_LRI_stop||1);
  800610:	00800044 	movi	r2,1
  800614:	d0a75245 	stb	r2,-25271(gp)
      }
      g20 =(PRE_g19);
  800618:	d0a74543 	ldbu	r2,-25323(gp)
  80061c:	d0a74485 	stb	r2,-25326(gp)
      g20b = g20;
  800620:	d0a74483 	ldbu	r2,-25326(gp)
  800624:	d0a75605 	stb	r2,-25256(gp)
      _cg20 = _compsys303_a2_local_LRI_stop;
  800628:	d0a75243 	ldbu	r2,-25271(gp)
  80062c:	d0a736c5 	stb	r2,-25381(gp)
      g21 =(g20b&&(!(_cg20)));
  800630:	d0a75603 	ldbu	r2,-25256(gp)
  800634:	10803fcc 	andi	r2,r2,255
  800638:	1080201c 	xori	r2,r2,128
  80063c:	10bfe004 	addi	r2,r2,-128
  800640:	1005003a 	cmpeq	r2,r2,zero
  800644:	1000091e 	bne	r2,zero,80066c <tick+0x3d4>
  800648:	d0a736c3 	ldbu	r2,-25381(gp)
  80064c:	10803fcc 	andi	r2,r2,255
  800650:	1080201c 	xori	r2,r2,128
  800654:	10bfe004 	addi	r2,r2,-128
  800658:	1004c03a 	cmpne	r2,r2,zero
  80065c:	1000031e 	bne	r2,zero,80066c <tick+0x3d4>
  800660:	00800044 	movi	r2,1
  800664:	e0bff915 	stw	r2,-28(fp)
  800668:	00000106 	br	800670 <tick+0x3d8>
  80066c:	e03ff915 	stw	zero,-28(fp)
  800670:	e0fff917 	ldw	r3,-28(fp)
  800674:	1805883a 	mov	r2,r3
  800678:	d0a73885 	stb	r2,-25374(gp)
      _cg21 = LRITO;
  80067c:	d0a727c3 	ldbu	r2,-25441(gp)
  800680:	d0a73605 	stb	r2,-25384(gp)
      g22 =(g21&&_cg21);
  800684:	d0a73883 	ldbu	r2,-25374(gp)
  800688:	10803fcc 	andi	r2,r2,255
  80068c:	1080201c 	xori	r2,r2,128
  800690:	10bfe004 	addi	r2,r2,-128
  800694:	1005003a 	cmpeq	r2,r2,zero
  800698:	1000091e 	bne	r2,zero,8006c0 <tick+0x428>
  80069c:	d0a73603 	ldbu	r2,-25384(gp)
  8006a0:	10803fcc 	andi	r2,r2,255
  8006a4:	1080201c 	xori	r2,r2,128
  8006a8:	10bfe004 	addi	r2,r2,-128
  8006ac:	1005003a 	cmpeq	r2,r2,zero
  8006b0:	1000031e 	bne	r2,zero,8006c0 <tick+0x428>
  8006b4:	00800044 	movi	r2,1
  8006b8:	e0bff815 	stw	r2,-32(fp)
  8006bc:	00000106 	br	8006c4 <tick+0x42c>
  8006c0:	e03ff815 	stw	zero,-32(fp)
  8006c4:	e0fff817 	ldw	r3,-32(fp)
  8006c8:	1805883a 	mov	r2,r3
  8006cc:	d0a75405 	stb	r2,-25264(gp)
      if(g22){
  8006d0:	d0a75403 	ldbu	r2,-25264(gp)
  8006d4:	10803fcc 	andi	r2,r2,255
  8006d8:	1080201c 	xori	r2,r2,128
  8006dc:	10bfe004 	addi	r2,r2,-128
  8006e0:	1005003a 	cmpeq	r2,r2,zero
  8006e4:	1000021e 	bne	r2,zero,8006f0 <tick+0x458>
         _compsys303_a2_local_LRI_ex =(_compsys303_a2_local_LRI_ex||1);
  8006e8:	00800044 	movi	r2,1
  8006ec:	d0a72b45 	stb	r2,-25427(gp)
      }
      g13 =(g9&&(!(_cg9)));
  8006f0:	d0a72783 	ldbu	r2,-25442(gp)
  8006f4:	10803fcc 	andi	r2,r2,255
  8006f8:	1080201c 	xori	r2,r2,128
  8006fc:	10bfe004 	addi	r2,r2,-128
  800700:	1005003a 	cmpeq	r2,r2,zero
  800704:	1000091e 	bne	r2,zero,80072c <tick+0x494>
  800708:	d0a74fc3 	ldbu	r2,-25281(gp)
  80070c:	10803fcc 	andi	r2,r2,255
  800710:	1080201c 	xori	r2,r2,128
  800714:	10bfe004 	addi	r2,r2,-128
  800718:	1004c03a 	cmpne	r2,r2,zero
  80071c:	1000031e 	bne	r2,zero,80072c <tick+0x494>
  800720:	00800044 	movi	r2,1
  800724:	e0bff715 	stw	r2,-36(fp)
  800728:	00000106 	br	800730 <tick+0x498>
  80072c:	e03ff715 	stw	zero,-36(fp)
  800730:	e0fff717 	ldw	r3,-36(fp)
  800734:	1805883a 	mov	r2,r3
  800738:	d0a74b05 	stb	r2,-25300(gp)
      _cg13 = _compsys303_a2_local_LRI_ex;
  80073c:	d0a72b43 	ldbu	r2,-25427(gp)
  800740:	d0a74f85 	stb	r2,-25282(gp)
      g8 =((g7b&&_cg7)||(g13&&(!(_cg13))));
  800744:	d0a72e03 	ldbu	r2,-25416(gp)
  800748:	10803fcc 	andi	r2,r2,255
  80074c:	1080201c 	xori	r2,r2,128
  800750:	10bfe004 	addi	r2,r2,-128
  800754:	1005003a 	cmpeq	r2,r2,zero
  800758:	1000061e 	bne	r2,zero,800774 <tick+0x4dc>
  80075c:	d0a72803 	ldbu	r2,-25440(gp)
  800760:	10803fcc 	andi	r2,r2,255
  800764:	1080201c 	xori	r2,r2,128
  800768:	10bfe004 	addi	r2,r2,-128
  80076c:	1004c03a 	cmpne	r2,r2,zero
  800770:	10000c1e 	bne	r2,zero,8007a4 <tick+0x50c>
  800774:	d0a74b03 	ldbu	r2,-25300(gp)
  800778:	10803fcc 	andi	r2,r2,255
  80077c:	1080201c 	xori	r2,r2,128
  800780:	10bfe004 	addi	r2,r2,-128
  800784:	1005003a 	cmpeq	r2,r2,zero
  800788:	1000091e 	bne	r2,zero,8007b0 <tick+0x518>
  80078c:	d0a74f83 	ldbu	r2,-25282(gp)
  800790:	10803fcc 	andi	r2,r2,255
  800794:	1080201c 	xori	r2,r2,128
  800798:	10bfe004 	addi	r2,r2,-128
  80079c:	1004c03a 	cmpne	r2,r2,zero
  8007a0:	1000031e 	bne	r2,zero,8007b0 <tick+0x518>
  8007a4:	00800044 	movi	r2,1
  8007a8:	e0bff615 	stw	r2,-40(fp)
  8007ac:	00000106 	br	8007b4 <tick+0x51c>
  8007b0:	e03ff615 	stw	zero,-40(fp)
  8007b4:	e0fff617 	ldw	r3,-40(fp)
  8007b8:	1805883a 	mov	r2,r3
  8007bc:	d0a74c05 	stb	r2,-25296(gp)
      g108 = g0;
  8007c0:	d0a75003 	ldbu	r2,-25280(gp)
  8007c4:	d0a72305 	stb	r2,-25460(gp)
      g110 =(PRE_g109);
  8007c8:	d0a73183 	ldbu	r2,-25402(gp)
  8007cc:	d0a73a45 	stb	r2,-25367(gp)
      g109 =(g108||g110);
  8007d0:	d0a72303 	ldbu	r2,-25460(gp)
  8007d4:	10803fcc 	andi	r2,r2,255
  8007d8:	1080201c 	xori	r2,r2,128
  8007dc:	10bfe004 	addi	r2,r2,-128
  8007e0:	1004c03a 	cmpne	r2,r2,zero
  8007e4:	1000061e 	bne	r2,zero,800800 <tick+0x568>
  8007e8:	d0a73a43 	ldbu	r2,-25367(gp)
  8007ec:	10803fcc 	andi	r2,r2,255
  8007f0:	1080201c 	xori	r2,r2,128
  8007f4:	10bfe004 	addi	r2,r2,-128
  8007f8:	1005003a 	cmpeq	r2,r2,zero
  8007fc:	1000031e 	bne	r2,zero,80080c <tick+0x574>
  800800:	00800044 	movi	r2,1
  800804:	e0bff515 	stw	r2,-44(fp)
  800808:	00000106 	br	800810 <tick+0x578>
  80080c:	e03ff515 	stw	zero,-44(fp)
  800810:	e0fff517 	ldw	r3,-44(fp)
  800814:	1805883a 	mov	r2,r3
  800818:	d0a75a45 	stb	r2,-25239(gp)
      if(g109){
  80081c:	d0a75a43 	ldbu	r2,-25239(gp)
  800820:	10803fcc 	andi	r2,r2,255
  800824:	1080201c 	xori	r2,r2,128
  800828:	10bfe004 	addi	r2,r2,-128
  80082c:	1005003a 	cmpeq	r2,r2,zero
  800830:	1000021e 	bne	r2,zero,80083c <tick+0x5a4>
         VPace = 0;
  800834:	d0275845 	stb	zero,-25247(gp)
         APace = 0;
  800838:	d0272245 	stb	zero,-25463(gp)
      }
      g14 =(g13&&_cg13);
  80083c:	d0a74b03 	ldbu	r2,-25300(gp)
  800840:	10803fcc 	andi	r2,r2,255
  800844:	1080201c 	xori	r2,r2,128
  800848:	10bfe004 	addi	r2,r2,-128
  80084c:	1005003a 	cmpeq	r2,r2,zero
  800850:	1000091e 	bne	r2,zero,800878 <tick+0x5e0>
  800854:	d0a74f83 	ldbu	r2,-25282(gp)
  800858:	10803fcc 	andi	r2,r2,255
  80085c:	1080201c 	xori	r2,r2,128
  800860:	10bfe004 	addi	r2,r2,-128
  800864:	1005003a 	cmpeq	r2,r2,zero
  800868:	1000031e 	bne	r2,zero,800878 <tick+0x5e0>
  80086c:	00800044 	movi	r2,1
  800870:	e0bff415 	stw	r2,-48(fp)
  800874:	00000106 	br	80087c <tick+0x5e4>
  800878:	e03ff415 	stw	zero,-48(fp)
  80087c:	e0fff417 	ldw	r3,-48(fp)
  800880:	1805883a 	mov	r2,r3
  800884:	d0a73ec5 	stb	r2,-25349(gp)
      if(g14){
  800888:	d0a73ec3 	ldbu	r2,-25349(gp)
  80088c:	10803fcc 	andi	r2,r2,255
  800890:	1080201c 	xori	r2,r2,128
  800894:	10bfe004 	addi	r2,r2,-128
  800898:	1005003a 	cmpeq	r2,r2,zero
  80089c:	1000021e 	bne	r2,zero,8008a8 <tick+0x610>
         VPace =(VPace||1);
  8008a0:	00800044 	movi	r2,1
  8008a4:	d0a75845 	stb	r2,-25247(gp)
      }
      g11 =(g10||g14);
  8008a8:	d0a75b83 	ldbu	r2,-25234(gp)
  8008ac:	10803fcc 	andi	r2,r2,255
  8008b0:	1080201c 	xori	r2,r2,128
  8008b4:	10bfe004 	addi	r2,r2,-128
  8008b8:	1004c03a 	cmpne	r2,r2,zero
  8008bc:	1000061e 	bne	r2,zero,8008d8 <tick+0x640>
  8008c0:	d0a73ec3 	ldbu	r2,-25349(gp)
  8008c4:	10803fcc 	andi	r2,r2,255
  8008c8:	1080201c 	xori	r2,r2,128
  8008cc:	10bfe004 	addi	r2,r2,-128
  8008d0:	1005003a 	cmpeq	r2,r2,zero
  8008d4:	1000031e 	bne	r2,zero,8008e4 <tick+0x64c>
  8008d8:	00800044 	movi	r2,1
  8008dc:	e0bff315 	stw	r2,-52(fp)
  8008e0:	00000106 	br	8008e8 <tick+0x650>
  8008e4:	e03ff315 	stw	zero,-52(fp)
  8008e8:	e0fff317 	ldw	r3,-52(fp)
  8008ec:	1805883a 	mov	r2,r3
  8008f0:	d0a75385 	stb	r2,-25266(gp)
      g16 = g1;
  8008f4:	d0a72d03 	ldbu	r2,-25420(gp)
  8008f8:	d0a751c5 	stb	r2,-25273(gp)
      g18 =(PRE_g17);
  8008fc:	d0a73343 	ldbu	r2,-25395(gp)
  800900:	d0a733c5 	stb	r2,-25393(gp)
      g18b = g18;
  800904:	d0a733c3 	ldbu	r2,-25393(gp)
  800908:	d0a74ec5 	stb	r2,-25285(gp)
      _cg18 = _compsys303_a2_local_LRI_start;
  80090c:	d0a75343 	ldbu	r2,-25267(gp)
  800910:	d0a75745 	stb	r2,-25251(gp)
      g17 =((g18b&&(!(_cg18)))||g22||(g20b&&_cg20)||g16);
  800914:	d0a74ec3 	ldbu	r2,-25285(gp)
  800918:	10803fcc 	andi	r2,r2,255
  80091c:	1080201c 	xori	r2,r2,128
  800920:	10bfe004 	addi	r2,r2,-128
  800924:	1005003a 	cmpeq	r2,r2,zero
  800928:	1000061e 	bne	r2,zero,800944 <tick+0x6ac>
  80092c:	d0a75743 	ldbu	r2,-25251(gp)
  800930:	10803fcc 	andi	r2,r2,255
  800934:	1080201c 	xori	r2,r2,128
  800938:	10bfe004 	addi	r2,r2,-128
  80093c:	1005003a 	cmpeq	r2,r2,zero
  800940:	1000181e 	bne	r2,zero,8009a4 <tick+0x70c>
  800944:	d0a75403 	ldbu	r2,-25264(gp)
  800948:	10803fcc 	andi	r2,r2,255
  80094c:	1080201c 	xori	r2,r2,128
  800950:	10bfe004 	addi	r2,r2,-128
  800954:	1004c03a 	cmpne	r2,r2,zero
  800958:	1000121e 	bne	r2,zero,8009a4 <tick+0x70c>
  80095c:	d0a75603 	ldbu	r2,-25256(gp)
  800960:	10803fcc 	andi	r2,r2,255
  800964:	1080201c 	xori	r2,r2,128
  800968:	10bfe004 	addi	r2,r2,-128
  80096c:	1005003a 	cmpeq	r2,r2,zero
  800970:	1000061e 	bne	r2,zero,80098c <tick+0x6f4>
  800974:	d0a736c3 	ldbu	r2,-25381(gp)
  800978:	10803fcc 	andi	r2,r2,255
  80097c:	1080201c 	xori	r2,r2,128
  800980:	10bfe004 	addi	r2,r2,-128
  800984:	1004c03a 	cmpne	r2,r2,zero
  800988:	1000061e 	bne	r2,zero,8009a4 <tick+0x70c>
  80098c:	d0a751c3 	ldbu	r2,-25273(gp)
  800990:	10803fcc 	andi	r2,r2,255
  800994:	1080201c 	xori	r2,r2,128
  800998:	10bfe004 	addi	r2,r2,-128
  80099c:	1005003a 	cmpeq	r2,r2,zero
  8009a0:	1000031e 	bne	r2,zero,8009b0 <tick+0x718>
  8009a4:	00800044 	movi	r2,1
  8009a8:	e0bff215 	stw	r2,-56(fp)
  8009ac:	00000106 	br	8009b4 <tick+0x71c>
  8009b0:	e03ff215 	stw	zero,-56(fp)
  8009b4:	e0fff217 	ldw	r3,-56(fp)
  8009b8:	1805883a 	mov	r2,r3
  8009bc:	d0a73005 	stb	r2,-25408(gp)
      g19 =((g21&&(!(_cg21)))||(g18b&&_cg18));
  8009c0:	d0a73883 	ldbu	r2,-25374(gp)
  8009c4:	10803fcc 	andi	r2,r2,255
  8009c8:	1080201c 	xori	r2,r2,128
  8009cc:	10bfe004 	addi	r2,r2,-128
  8009d0:	1005003a 	cmpeq	r2,r2,zero
  8009d4:	1000061e 	bne	r2,zero,8009f0 <tick+0x758>
  8009d8:	d0a73603 	ldbu	r2,-25384(gp)
  8009dc:	10803fcc 	andi	r2,r2,255
  8009e0:	1080201c 	xori	r2,r2,128
  8009e4:	10bfe004 	addi	r2,r2,-128
  8009e8:	1005003a 	cmpeq	r2,r2,zero
  8009ec:	10000c1e 	bne	r2,zero,800a20 <tick+0x788>
  8009f0:	d0a74ec3 	ldbu	r2,-25285(gp)
  8009f4:	10803fcc 	andi	r2,r2,255
  8009f8:	1080201c 	xori	r2,r2,128
  8009fc:	10bfe004 	addi	r2,r2,-128
  800a00:	1005003a 	cmpeq	r2,r2,zero
  800a04:	1000091e 	bne	r2,zero,800a2c <tick+0x794>
  800a08:	d0a75743 	ldbu	r2,-25251(gp)
  800a0c:	10803fcc 	andi	r2,r2,255
  800a10:	1080201c 	xori	r2,r2,128
  800a14:	10bfe004 	addi	r2,r2,-128
  800a18:	1005003a 	cmpeq	r2,r2,zero
  800a1c:	1000031e 	bne	r2,zero,800a2c <tick+0x794>
  800a20:	00800044 	movi	r2,1
  800a24:	e0bff115 	stw	r2,-60(fp)
  800a28:	00000106 	br	800a30 <tick+0x798>
  800a2c:	e03ff115 	stw	zero,-60(fp)
  800a30:	e0fff117 	ldw	r3,-60(fp)
  800a34:	1805883a 	mov	r2,r3
  800a38:	d0a72345 	stb	r2,-25459(gp)
      g24 = g1;
  800a3c:	d0a72d03 	ldbu	r2,-25420(gp)
  800a40:	d0a759c5 	stb	r2,-25241(gp)
      g45 =(PRE_g44);
  800a44:	d0a74c83 	ldbu	r2,-25294(gp)
  800a48:	d0a75685 	stb	r2,-25254(gp)
      _cg45 = VSense;
  800a4c:	d0a74083 	ldbu	r2,-25342(gp)
  800a50:	d0a72c45 	stb	r2,-25423(gp)
      g46 =(g45&&_cg45);
  800a54:	d0a75683 	ldbu	r2,-25254(gp)
  800a58:	10803fcc 	andi	r2,r2,255
  800a5c:	1080201c 	xori	r2,r2,128
  800a60:	10bfe004 	addi	r2,r2,-128
  800a64:	1005003a 	cmpeq	r2,r2,zero
  800a68:	1000091e 	bne	r2,zero,800a90 <tick+0x7f8>
  800a6c:	d0a72c43 	ldbu	r2,-25423(gp)
  800a70:	10803fcc 	andi	r2,r2,255
  800a74:	1080201c 	xori	r2,r2,128
  800a78:	10bfe004 	addi	r2,r2,-128
  800a7c:	1005003a 	cmpeq	r2,r2,zero
  800a80:	1000031e 	bne	r2,zero,800a90 <tick+0x7f8>
  800a84:	00800044 	movi	r2,1
  800a88:	e0bff015 	stw	r2,-64(fp)
  800a8c:	00000106 	br	800a94 <tick+0x7fc>
  800a90:	e03ff015 	stw	zero,-64(fp)
  800a94:	e0fff017 	ldw	r3,-64(fp)
  800a98:	1805883a 	mov	r2,r3
  800a9c:	d0a747c5 	stb	r2,-25313(gp)
      if(g46){
  800aa0:	d0a747c3 	ldbu	r2,-25313(gp)
  800aa4:	10803fcc 	andi	r2,r2,255
  800aa8:	1080201c 	xori	r2,r2,128
  800aac:	10bfe004 	addi	r2,r2,-128
  800ab0:	1005003a 	cmpeq	r2,r2,zero
  800ab4:	1000021e 	bne	r2,zero,800ac0 <tick+0x828>
         _compsys303_a2_local_AVI_stop =(_compsys303_a2_local_AVI_stop||1);
  800ab8:	00800044 	movi	r2,1
  800abc:	d0a72fc5 	stb	r2,-25409(gp)
      }
      g59 =(PRE_g58);
  800ac0:	d0a75103 	ldbu	r2,-25276(gp)
  800ac4:	d0a73c85 	stb	r2,-25358(gp)
      g59b = g59;
  800ac8:	d0a73c83 	ldbu	r2,-25358(gp)
  800acc:	d0a73505 	stb	r2,-25388(gp)
      _cg59 = _compsys303_a2_local_AVI_stop;
  800ad0:	d0a72fc3 	ldbu	r2,-25409(gp)
  800ad4:	d0a724c5 	stb	r2,-25453(gp)
      g60 =(g59b&&(!(_cg59)));
  800ad8:	d0a73503 	ldbu	r2,-25388(gp)
  800adc:	10803fcc 	andi	r2,r2,255
  800ae0:	1080201c 	xori	r2,r2,128
  800ae4:	10bfe004 	addi	r2,r2,-128
  800ae8:	1005003a 	cmpeq	r2,r2,zero
  800aec:	1000091e 	bne	r2,zero,800b14 <tick+0x87c>
  800af0:	d0a724c3 	ldbu	r2,-25453(gp)
  800af4:	10803fcc 	andi	r2,r2,255
  800af8:	1080201c 	xori	r2,r2,128
  800afc:	10bfe004 	addi	r2,r2,-128
  800b00:	1004c03a 	cmpne	r2,r2,zero
  800b04:	1000031e 	bne	r2,zero,800b14 <tick+0x87c>
  800b08:	00800044 	movi	r2,1
  800b0c:	e0bfef15 	stw	r2,-68(fp)
  800b10:	00000106 	br	800b18 <tick+0x880>
  800b14:	e03fef15 	stw	zero,-68(fp)
  800b18:	e0ffef17 	ldw	r3,-68(fp)
  800b1c:	1805883a 	mov	r2,r3
  800b20:	d0a74505 	stb	r2,-25324(gp)
      _cg60 = AVITO;
  800b24:	d0a744c3 	ldbu	r2,-25325(gp)
  800b28:	d0a741c5 	stb	r2,-25337(gp)
      g61 =(g60&&_cg60);
  800b2c:	d0a74503 	ldbu	r2,-25324(gp)
  800b30:	10803fcc 	andi	r2,r2,255
  800b34:	1080201c 	xori	r2,r2,128
  800b38:	10bfe004 	addi	r2,r2,-128
  800b3c:	1005003a 	cmpeq	r2,r2,zero
  800b40:	1000091e 	bne	r2,zero,800b68 <tick+0x8d0>
  800b44:	d0a741c3 	ldbu	r2,-25337(gp)
  800b48:	10803fcc 	andi	r2,r2,255
  800b4c:	1080201c 	xori	r2,r2,128
  800b50:	10bfe004 	addi	r2,r2,-128
  800b54:	1005003a 	cmpeq	r2,r2,zero
  800b58:	1000031e 	bne	r2,zero,800b68 <tick+0x8d0>
  800b5c:	00800044 	movi	r2,1
  800b60:	e0bfee15 	stw	r2,-72(fp)
  800b64:	00000106 	br	800b6c <tick+0x8d4>
  800b68:	e03fee15 	stw	zero,-72(fp)
  800b6c:	e0ffee17 	ldw	r3,-72(fp)
  800b70:	1805883a 	mov	r2,r3
  800b74:	d0a72d45 	stb	r2,-25419(gp)
      if(g61){
  800b78:	d0a72d43 	ldbu	r2,-25419(gp)
  800b7c:	10803fcc 	andi	r2,r2,255
  800b80:	1080201c 	xori	r2,r2,128
  800b84:	10bfe004 	addi	r2,r2,-128
  800b88:	1005003a 	cmpeq	r2,r2,zero
  800b8c:	1000021e 	bne	r2,zero,800b98 <tick+0x900>
         _compsys303_a2_local_AVI_ex =(_compsys303_a2_local_AVI_ex||1);
  800b90:	00800044 	movi	r2,1
  800b94:	d0a73385 	stb	r2,-25394(gp)
      }
      g52 =(g45&&(!(_cg45)));
  800b98:	d0a75683 	ldbu	r2,-25254(gp)
  800b9c:	10803fcc 	andi	r2,r2,255
  800ba0:	1080201c 	xori	r2,r2,128
  800ba4:	10bfe004 	addi	r2,r2,-128
  800ba8:	1005003a 	cmpeq	r2,r2,zero
  800bac:	1000091e 	bne	r2,zero,800bd4 <tick+0x93c>
  800bb0:	d0a72c43 	ldbu	r2,-25423(gp)
  800bb4:	10803fcc 	andi	r2,r2,255
  800bb8:	1080201c 	xori	r2,r2,128
  800bbc:	10bfe004 	addi	r2,r2,-128
  800bc0:	1004c03a 	cmpne	r2,r2,zero
  800bc4:	1000031e 	bne	r2,zero,800bd4 <tick+0x93c>
  800bc8:	00800044 	movi	r2,1
  800bcc:	e0bfed15 	stw	r2,-76(fp)
  800bd0:	00000106 	br	800bd8 <tick+0x940>
  800bd4:	e03fed15 	stw	zero,-76(fp)
  800bd8:	e0ffed17 	ldw	r3,-76(fp)
  800bdc:	1805883a 	mov	r2,r3
  800be0:	d0a72f45 	stb	r2,-25411(gp)
      _cg52 = _compsys303_a2_local_AVI_ex;
  800be4:	d0a73383 	ldbu	r2,-25394(gp)
  800be8:	d0a72ac5 	stb	r2,-25429(gp)
      g53 =(g52&&_cg52);
  800bec:	d0a72f43 	ldbu	r2,-25411(gp)
  800bf0:	10803fcc 	andi	r2,r2,255
  800bf4:	1080201c 	xori	r2,r2,128
  800bf8:	10bfe004 	addi	r2,r2,-128
  800bfc:	1005003a 	cmpeq	r2,r2,zero
  800c00:	1000091e 	bne	r2,zero,800c28 <tick+0x990>
  800c04:	d0a72ac3 	ldbu	r2,-25429(gp)
  800c08:	10803fcc 	andi	r2,r2,255
  800c0c:	1080201c 	xori	r2,r2,128
  800c10:	10bfe004 	addi	r2,r2,-128
  800c14:	1005003a 	cmpeq	r2,r2,zero
  800c18:	1000031e 	bne	r2,zero,800c28 <tick+0x990>
  800c1c:	00800044 	movi	r2,1
  800c20:	e0bfec15 	stw	r2,-80(fp)
  800c24:	00000106 	br	800c2c <tick+0x994>
  800c28:	e03fec15 	stw	zero,-80(fp)
  800c2c:	e0ffec17 	ldw	r3,-80(fp)
  800c30:	1805883a 	mov	r2,r3
  800c34:	d0a74bc5 	stb	r2,-25297(gp)
      if(g53){
  800c38:	d0a74bc3 	ldbu	r2,-25297(gp)
  800c3c:	10803fcc 	andi	r2,r2,255
  800c40:	1080201c 	xori	r2,r2,128
  800c44:	10bfe004 	addi	r2,r2,-128
  800c48:	1005003a 	cmpeq	r2,r2,zero
  800c4c:	1000021e 	bne	r2,zero,800c58 <tick+0x9c0>
         VPace =(VPace||1);
  800c50:	00800044 	movi	r2,1
  800c54:	d0a75845 	stb	r2,-25247(gp)
      }
      g26 =(PRE_g25);
  800c58:	d0a73c03 	ldbu	r2,-25360(gp)
  800c5c:	d0a75c85 	stb	r2,-25230(gp)
      _cg26 = VSense;
  800c60:	d0a74083 	ldbu	r2,-25342(gp)
  800c64:	d0a73245 	stb	r2,-25399(gp)
      g31 =(g26&&(!(_cg26)));
  800c68:	d0a75c83 	ldbu	r2,-25230(gp)
  800c6c:	10803fcc 	andi	r2,r2,255
  800c70:	1080201c 	xori	r2,r2,128
  800c74:	10bfe004 	addi	r2,r2,-128
  800c78:	1005003a 	cmpeq	r2,r2,zero
  800c7c:	1000091e 	bne	r2,zero,800ca4 <tick+0xa0c>
  800c80:	d0a73243 	ldbu	r2,-25399(gp)
  800c84:	10803fcc 	andi	r2,r2,255
  800c88:	1080201c 	xori	r2,r2,128
  800c8c:	10bfe004 	addi	r2,r2,-128
  800c90:	1004c03a 	cmpne	r2,r2,zero
  800c94:	1000031e 	bne	r2,zero,800ca4 <tick+0xa0c>
  800c98:	00800044 	movi	r2,1
  800c9c:	e0bfeb15 	stw	r2,-84(fp)
  800ca0:	00000106 	br	800ca8 <tick+0xa10>
  800ca4:	e03feb15 	stw	zero,-84(fp)
  800ca8:	e0ffeb17 	ldw	r3,-84(fp)
  800cac:	1805883a 	mov	r2,r3
  800cb0:	d0a730c5 	stb	r2,-25405(gp)
      _cg31 = VPace;
  800cb4:	d0a75843 	ldbu	r2,-25247(gp)
  800cb8:	d0a75b45 	stb	r2,-25235(gp)
      g29 =(PRE_g28);
  800cbc:	d0a72dc3 	ldbu	r2,-25417(gp)
  800cc0:	d0a75945 	stb	r2,-25243(gp)
      g29b = g29;
  800cc4:	d0a75943 	ldbu	r2,-25243(gp)
  800cc8:	d0a73285 	stb	r2,-25398(gp)
      _cg29 = _compsys303_a2_local_VRP_ex;
  800ccc:	d0a756c3 	ldbu	r2,-25253(gp)
  800cd0:	d0a74205 	stb	r2,-25336(gp)
      g25 =(g24||(g31&&(!(_cg31)))||(g29b&&_cg29));
  800cd4:	d0a759c3 	ldbu	r2,-25241(gp)
  800cd8:	10803fcc 	andi	r2,r2,255
  800cdc:	1080201c 	xori	r2,r2,128
  800ce0:	10bfe004 	addi	r2,r2,-128
  800ce4:	1004c03a 	cmpne	r2,r2,zero
  800ce8:	1000181e 	bne	r2,zero,800d4c <tick+0xab4>
  800cec:	d0a730c3 	ldbu	r2,-25405(gp)
  800cf0:	10803fcc 	andi	r2,r2,255
  800cf4:	1080201c 	xori	r2,r2,128
  800cf8:	10bfe004 	addi	r2,r2,-128
  800cfc:	1005003a 	cmpeq	r2,r2,zero
  800d00:	1000061e 	bne	r2,zero,800d1c <tick+0xa84>
  800d04:	d0a75b43 	ldbu	r2,-25235(gp)
  800d08:	10803fcc 	andi	r2,r2,255
  800d0c:	1080201c 	xori	r2,r2,128
  800d10:	10bfe004 	addi	r2,r2,-128
  800d14:	1005003a 	cmpeq	r2,r2,zero
  800d18:	10000c1e 	bne	r2,zero,800d4c <tick+0xab4>
  800d1c:	d0a73283 	ldbu	r2,-25398(gp)
  800d20:	10803fcc 	andi	r2,r2,255
  800d24:	1080201c 	xori	r2,r2,128
  800d28:	10bfe004 	addi	r2,r2,-128
  800d2c:	1005003a 	cmpeq	r2,r2,zero
  800d30:	1000091e 	bne	r2,zero,800d58 <tick+0xac0>
  800d34:	d0a74203 	ldbu	r2,-25336(gp)
  800d38:	10803fcc 	andi	r2,r2,255
  800d3c:	1080201c 	xori	r2,r2,128
  800d40:	10bfe004 	addi	r2,r2,-128
  800d44:	1005003a 	cmpeq	r2,r2,zero
  800d48:	1000031e 	bne	r2,zero,800d58 <tick+0xac0>
  800d4c:	00800044 	movi	r2,1
  800d50:	e0bfea15 	stw	r2,-88(fp)
  800d54:	00000106 	br	800d5c <tick+0xac4>
  800d58:	e03fea15 	stw	zero,-88(fp)
  800d5c:	e0ffea17 	ldw	r3,-88(fp)
  800d60:	1805883a 	mov	r2,r3
  800d64:	d0a75305 	stb	r2,-25268(gp)
      g27 =((g26&&_cg26)||(g31&&_cg31));
  800d68:	d0a75c83 	ldbu	r2,-25230(gp)
  800d6c:	10803fcc 	andi	r2,r2,255
  800d70:	1080201c 	xori	r2,r2,128
  800d74:	10bfe004 	addi	r2,r2,-128
  800d78:	1005003a 	cmpeq	r2,r2,zero
  800d7c:	1000061e 	bne	r2,zero,800d98 <tick+0xb00>
  800d80:	d0a73243 	ldbu	r2,-25399(gp)
  800d84:	10803fcc 	andi	r2,r2,255
  800d88:	1080201c 	xori	r2,r2,128
  800d8c:	10bfe004 	addi	r2,r2,-128
  800d90:	1004c03a 	cmpne	r2,r2,zero
  800d94:	10000c1e 	bne	r2,zero,800dc8 <tick+0xb30>
  800d98:	d0a730c3 	ldbu	r2,-25405(gp)
  800d9c:	10803fcc 	andi	r2,r2,255
  800da0:	1080201c 	xori	r2,r2,128
  800da4:	10bfe004 	addi	r2,r2,-128
  800da8:	1005003a 	cmpeq	r2,r2,zero
  800dac:	1000091e 	bne	r2,zero,800dd4 <tick+0xb3c>
  800db0:	d0a75b43 	ldbu	r2,-25235(gp)
  800db4:	10803fcc 	andi	r2,r2,255
  800db8:	1080201c 	xori	r2,r2,128
  800dbc:	10bfe004 	addi	r2,r2,-128
  800dc0:	1005003a 	cmpeq	r2,r2,zero
  800dc4:	1000031e 	bne	r2,zero,800dd4 <tick+0xb3c>
  800dc8:	00800044 	movi	r2,1
  800dcc:	e0bfe915 	stw	r2,-92(fp)
  800dd0:	00000106 	br	800dd8 <tick+0xb40>
  800dd4:	e03fe915 	stw	zero,-92(fp)
  800dd8:	e0ffe917 	ldw	r3,-92(fp)
  800ddc:	1805883a 	mov	r2,r3
  800de0:	d0a72505 	stb	r2,-25452(gp)
      if(g27){
  800de4:	d0a72503 	ldbu	r2,-25452(gp)
  800de8:	10803fcc 	andi	r2,r2,255
  800dec:	1080201c 	xori	r2,r2,128
  800df0:	10bfe004 	addi	r2,r2,-128
  800df4:	1005003a 	cmpeq	r2,r2,zero
  800df8:	1000021e 	bne	r2,zero,800e04 <tick+0xb6c>
         _compsys303_a2_local_VRP_start =(_compsys303_a2_local_VRP_start||1);
  800dfc:	00800044 	movi	r2,1
  800e00:	d0a75705 	stb	r2,-25252(gp)
      }
      g30 =(g29b&&(!(_cg29)));
  800e04:	d0a73283 	ldbu	r2,-25398(gp)
  800e08:	10803fcc 	andi	r2,r2,255
  800e0c:	1080201c 	xori	r2,r2,128
  800e10:	10bfe004 	addi	r2,r2,-128
  800e14:	1005003a 	cmpeq	r2,r2,zero
  800e18:	1000091e 	bne	r2,zero,800e40 <tick+0xba8>
  800e1c:	d0a74203 	ldbu	r2,-25336(gp)
  800e20:	10803fcc 	andi	r2,r2,255
  800e24:	1080201c 	xori	r2,r2,128
  800e28:	10bfe004 	addi	r2,r2,-128
  800e2c:	1004c03a 	cmpne	r2,r2,zero
  800e30:	1000031e 	bne	r2,zero,800e40 <tick+0xba8>
  800e34:	00800044 	movi	r2,1
  800e38:	e0bfe815 	stw	r2,-96(fp)
  800e3c:	00000106 	br	800e44 <tick+0xbac>
  800e40:	e03fe815 	stw	zero,-96(fp)
  800e44:	e0ffe817 	ldw	r3,-96(fp)
  800e48:	1805883a 	mov	r2,r3
  800e4c:	d0a750c5 	stb	r2,-25277(gp)
      _cg30 = VSense;
  800e50:	d0a74083 	ldbu	r2,-25342(gp)
  800e54:	d0a75185 	stb	r2,-25274(gp)
      g28 =(g27||(g30&&_cg30)||(g30&&_cg30));
  800e58:	d0a72503 	ldbu	r2,-25452(gp)
  800e5c:	10803fcc 	andi	r2,r2,255
  800e60:	1080201c 	xori	r2,r2,128
  800e64:	10bfe004 	addi	r2,r2,-128
  800e68:	1004c03a 	cmpne	r2,r2,zero
  800e6c:	1000181e 	bne	r2,zero,800ed0 <tick+0xc38>
  800e70:	d0a750c3 	ldbu	r2,-25277(gp)
  800e74:	10803fcc 	andi	r2,r2,255
  800e78:	1080201c 	xori	r2,r2,128
  800e7c:	10bfe004 	addi	r2,r2,-128
  800e80:	1005003a 	cmpeq	r2,r2,zero
  800e84:	1000061e 	bne	r2,zero,800ea0 <tick+0xc08>
  800e88:	d0a75183 	ldbu	r2,-25274(gp)
  800e8c:	10803fcc 	andi	r2,r2,255
  800e90:	1080201c 	xori	r2,r2,128
  800e94:	10bfe004 	addi	r2,r2,-128
  800e98:	1004c03a 	cmpne	r2,r2,zero
  800e9c:	10000c1e 	bne	r2,zero,800ed0 <tick+0xc38>
  800ea0:	d0a750c3 	ldbu	r2,-25277(gp)
  800ea4:	10803fcc 	andi	r2,r2,255
  800ea8:	1080201c 	xori	r2,r2,128
  800eac:	10bfe004 	addi	r2,r2,-128
  800eb0:	1005003a 	cmpeq	r2,r2,zero
  800eb4:	1000091e 	bne	r2,zero,800edc <tick+0xc44>
  800eb8:	d0a75183 	ldbu	r2,-25274(gp)
  800ebc:	10803fcc 	andi	r2,r2,255
  800ec0:	1080201c 	xori	r2,r2,128
  800ec4:	10bfe004 	addi	r2,r2,-128
  800ec8:	1005003a 	cmpeq	r2,r2,zero
  800ecc:	1000031e 	bne	r2,zero,800edc <tick+0xc44>
  800ed0:	00800044 	movi	r2,1
  800ed4:	e0bfe715 	stw	r2,-100(fp)
  800ed8:	00000106 	br	800ee0 <tick+0xc48>
  800edc:	e03fe715 	stw	zero,-100(fp)
  800ee0:	e0ffe717 	ldw	r3,-100(fp)
  800ee4:	1805883a 	mov	r2,r3
  800ee8:	d0a75485 	stb	r2,-25262(gp)
      g33 = g1;
  800eec:	d0a72d03 	ldbu	r2,-25420(gp)
  800ef0:	d0a74145 	stb	r2,-25339(gp)
      g35 =(PRE_g34);
  800ef4:	d0a73043 	ldbu	r2,-25407(gp)
  800ef8:	d0a74245 	stb	r2,-25335(gp)
      g35b = g35;
  800efc:	d0a74243 	ldbu	r2,-25335(gp)
  800f00:	d0a74185 	stb	r2,-25338(gp)
      _cg35 = _compsys303_a2_local_VRP_start;
  800f04:	d0a75703 	ldbu	r2,-25252(gp)
  800f08:	d0a72f85 	stb	r2,-25410(gp)
      g34 =(g33||g38||(g35b&&(!(_cg35))));
  800f0c:	d0a74143 	ldbu	r2,-25339(gp)
  800f10:	10803fcc 	andi	r2,r2,255
  800f14:	1080201c 	xori	r2,r2,128
  800f18:	10bfe004 	addi	r2,r2,-128
  800f1c:	1004c03a 	cmpne	r2,r2,zero
  800f20:	1000121e 	bne	r2,zero,800f6c <tick+0xcd4>
  800f24:	d0a73583 	ldbu	r2,-25386(gp)
  800f28:	10803fcc 	andi	r2,r2,255
  800f2c:	1080201c 	xori	r2,r2,128
  800f30:	10bfe004 	addi	r2,r2,-128
  800f34:	1004c03a 	cmpne	r2,r2,zero
  800f38:	10000c1e 	bne	r2,zero,800f6c <tick+0xcd4>
  800f3c:	d0a74183 	ldbu	r2,-25338(gp)
  800f40:	10803fcc 	andi	r2,r2,255
  800f44:	1080201c 	xori	r2,r2,128
  800f48:	10bfe004 	addi	r2,r2,-128
  800f4c:	1005003a 	cmpeq	r2,r2,zero
  800f50:	1000091e 	bne	r2,zero,800f78 <tick+0xce0>
  800f54:	d0a72f83 	ldbu	r2,-25410(gp)
  800f58:	10803fcc 	andi	r2,r2,255
  800f5c:	1080201c 	xori	r2,r2,128
  800f60:	10bfe004 	addi	r2,r2,-128
  800f64:	1004c03a 	cmpne	r2,r2,zero
  800f68:	1000031e 	bne	r2,zero,800f78 <tick+0xce0>
  800f6c:	00800044 	movi	r2,1
  800f70:	e0bfe615 	stw	r2,-104(fp)
  800f74:	00000106 	br	800f7c <tick+0xce4>
  800f78:	e03fe615 	stw	zero,-104(fp)
  800f7c:	e0ffe617 	ldw	r3,-104(fp)
  800f80:	1805883a 	mov	r2,r3
  800f84:	d0a73985 	stb	r2,-25370(gp)
      g36 =((g37&&(!(_cg37)))||(g35b&&_cg35));
  800f88:	d0a73103 	ldbu	r2,-25404(gp)
  800f8c:	10803fcc 	andi	r2,r2,255
  800f90:	1080201c 	xori	r2,r2,128
  800f94:	10bfe004 	addi	r2,r2,-128
  800f98:	1005003a 	cmpeq	r2,r2,zero
  800f9c:	1000061e 	bne	r2,zero,800fb8 <tick+0xd20>
  800fa0:	d0a74943 	ldbu	r2,-25307(gp)
  800fa4:	10803fcc 	andi	r2,r2,255
  800fa8:	1080201c 	xori	r2,r2,128
  800fac:	10bfe004 	addi	r2,r2,-128
  800fb0:	1005003a 	cmpeq	r2,r2,zero
  800fb4:	10000c1e 	bne	r2,zero,800fe8 <tick+0xd50>
  800fb8:	d0a74183 	ldbu	r2,-25338(gp)
  800fbc:	10803fcc 	andi	r2,r2,255
  800fc0:	1080201c 	xori	r2,r2,128
  800fc4:	10bfe004 	addi	r2,r2,-128
  800fc8:	1005003a 	cmpeq	r2,r2,zero
  800fcc:	1000091e 	bne	r2,zero,800ff4 <tick+0xd5c>
  800fd0:	d0a72f83 	ldbu	r2,-25410(gp)
  800fd4:	10803fcc 	andi	r2,r2,255
  800fd8:	1080201c 	xori	r2,r2,128
  800fdc:	10bfe004 	addi	r2,r2,-128
  800fe0:	1005003a 	cmpeq	r2,r2,zero
  800fe4:	1000031e 	bne	r2,zero,800ff4 <tick+0xd5c>
  800fe8:	00800044 	movi	r2,1
  800fec:	e0bfe515 	stw	r2,-108(fp)
  800ff0:	00000106 	br	800ff8 <tick+0xd60>
  800ff4:	e03fe515 	stw	zero,-108(fp)
  800ff8:	e0ffe517 	ldw	r3,-108(fp)
  800ffc:	1805883a 	mov	r2,r3
  801000:	d0a74745 	stb	r2,-25315(gp)
      g40 = g1;
  801004:	d0a72d03 	ldbu	r2,-25420(gp)
  801008:	d0a72185 	stb	r2,-25466(gp)
      g42 =(PRE_g41);
  80100c:	d0a74b43 	ldbu	r2,-25299(gp)
  801010:	d0a72745 	stb	r2,-25443(gp)
      _cg42 = ASense;
  801014:	d0a73443 	ldbu	r2,-25391(gp)
  801018:	d0a72105 	stb	r2,-25468(gp)
      g41 =(g40||(g42&&(!(_cg42))));
  80101c:	d0a72183 	ldbu	r2,-25466(gp)
  801020:	10803fcc 	andi	r2,r2,255
  801024:	1080201c 	xori	r2,r2,128
  801028:	10bfe004 	addi	r2,r2,-128
  80102c:	1004c03a 	cmpne	r2,r2,zero
  801030:	10000c1e 	bne	r2,zero,801064 <tick+0xdcc>
  801034:	d0a72743 	ldbu	r2,-25443(gp)
  801038:	10803fcc 	andi	r2,r2,255
  80103c:	1080201c 	xori	r2,r2,128
  801040:	10bfe004 	addi	r2,r2,-128
  801044:	1005003a 	cmpeq	r2,r2,zero
  801048:	1000091e 	bne	r2,zero,801070 <tick+0xdd8>
  80104c:	d0a72103 	ldbu	r2,-25468(gp)
  801050:	10803fcc 	andi	r2,r2,255
  801054:	1080201c 	xori	r2,r2,128
  801058:	10bfe004 	addi	r2,r2,-128
  80105c:	1004c03a 	cmpne	r2,r2,zero
  801060:	1000031e 	bne	r2,zero,801070 <tick+0xdd8>
  801064:	00800044 	movi	r2,1
  801068:	e0bfe415 	stw	r2,-112(fp)
  80106c:	00000106 	br	801074 <tick+0xddc>
  801070:	e03fe415 	stw	zero,-112(fp)
  801074:	e0ffe417 	ldw	r3,-112(fp)
  801078:	1805883a 	mov	r2,r3
  80107c:	d0a73205 	stb	r2,-25400(gp)
      g43 =(g42&&_cg42);
  801080:	d0a72743 	ldbu	r2,-25443(gp)
  801084:	10803fcc 	andi	r2,r2,255
  801088:	1080201c 	xori	r2,r2,128
  80108c:	10bfe004 	addi	r2,r2,-128
  801090:	1005003a 	cmpeq	r2,r2,zero
  801094:	1000091e 	bne	r2,zero,8010bc <tick+0xe24>
  801098:	d0a72103 	ldbu	r2,-25468(gp)
  80109c:	10803fcc 	andi	r2,r2,255
  8010a0:	1080201c 	xori	r2,r2,128
  8010a4:	10bfe004 	addi	r2,r2,-128
  8010a8:	1005003a 	cmpeq	r2,r2,zero
  8010ac:	1000031e 	bne	r2,zero,8010bc <tick+0xe24>
  8010b0:	00800044 	movi	r2,1
  8010b4:	e0bfe315 	stw	r2,-116(fp)
  8010b8:	00000106 	br	8010c0 <tick+0xe28>
  8010bc:	e03fe315 	stw	zero,-116(fp)
  8010c0:	e0ffe317 	ldw	r3,-116(fp)
  8010c4:	1805883a 	mov	r2,r3
  8010c8:	d0a74685 	stb	r2,-25318(gp)
      if(g43){
  8010cc:	d0a74683 	ldbu	r2,-25318(gp)
  8010d0:	10803fcc 	andi	r2,r2,255
  8010d4:	1080201c 	xori	r2,r2,128
  8010d8:	10bfe004 	addi	r2,r2,-128
  8010dc:	1005003a 	cmpeq	r2,r2,zero
  8010e0:	1000021e 	bne	r2,zero,8010ec <tick+0xe54>
         _compsys303_a2_local_AVI_start =(_compsys303_a2_local_AVI_start||1);
  8010e4:	00800044 	movi	r2,1
  8010e8:	d0a74cc5 	stb	r2,-25293(gp)
      }
      g50 =(PRE_g49);
  8010ec:	d0a732c3 	ldbu	r2,-25397(gp)
  8010f0:	d0a74885 	stb	r2,-25310(gp)
      _cg50 = ASense;
  8010f4:	d0a73443 	ldbu	r2,-25391(gp)
  8010f8:	d0a74f45 	stb	r2,-25283(gp)
      g51 =(g50&&_cg50);
  8010fc:	d0a74883 	ldbu	r2,-25310(gp)
  801100:	10803fcc 	andi	r2,r2,255
  801104:	1080201c 	xori	r2,r2,128
  801108:	10bfe004 	addi	r2,r2,-128
  80110c:	1005003a 	cmpeq	r2,r2,zero
  801110:	1000091e 	bne	r2,zero,801138 <tick+0xea0>
  801114:	d0a74f43 	ldbu	r2,-25283(gp)
  801118:	10803fcc 	andi	r2,r2,255
  80111c:	1080201c 	xori	r2,r2,128
  801120:	10bfe004 	addi	r2,r2,-128
  801124:	1005003a 	cmpeq	r2,r2,zero
  801128:	1000031e 	bne	r2,zero,801138 <tick+0xea0>
  80112c:	00800044 	movi	r2,1
  801130:	e0bfe215 	stw	r2,-120(fp)
  801134:	00000106 	br	80113c <tick+0xea4>
  801138:	e03fe215 	stw	zero,-120(fp)
  80113c:	e0ffe217 	ldw	r3,-120(fp)
  801140:	1805883a 	mov	r2,r3
  801144:	d0a74905 	stb	r2,-25308(gp)
      if(g51){
  801148:	d0a74903 	ldbu	r2,-25308(gp)
  80114c:	10803fcc 	andi	r2,r2,255
  801150:	1080201c 	xori	r2,r2,128
  801154:	10bfe004 	addi	r2,r2,-128
  801158:	1005003a 	cmpeq	r2,r2,zero
  80115c:	1000021e 	bne	r2,zero,801168 <tick+0xed0>
         _compsys303_a2_local_AVI_start =(_compsys303_a2_local_AVI_start||1);
  801160:	00800044 	movi	r2,1
  801164:	d0a74cc5 	stb	r2,-25293(gp)
      }
      g44 =(g43||(g52&&(!(_cg52)))||g51);
  801168:	d0a74683 	ldbu	r2,-25318(gp)
  80116c:	10803fcc 	andi	r2,r2,255
  801170:	1080201c 	xori	r2,r2,128
  801174:	10bfe004 	addi	r2,r2,-128
  801178:	1004c03a 	cmpne	r2,r2,zero
  80117c:	1000121e 	bne	r2,zero,8011c8 <tick+0xf30>
  801180:	d0a72f43 	ldbu	r2,-25411(gp)
  801184:	10803fcc 	andi	r2,r2,255
  801188:	1080201c 	xori	r2,r2,128
  80118c:	10bfe004 	addi	r2,r2,-128
  801190:	1005003a 	cmpeq	r2,r2,zero
  801194:	1000061e 	bne	r2,zero,8011b0 <tick+0xf18>
  801198:	d0a72ac3 	ldbu	r2,-25429(gp)
  80119c:	10803fcc 	andi	r2,r2,255
  8011a0:	1080201c 	xori	r2,r2,128
  8011a4:	10bfe004 	addi	r2,r2,-128
  8011a8:	1005003a 	cmpeq	r2,r2,zero
  8011ac:	1000061e 	bne	r2,zero,8011c8 <tick+0xf30>
  8011b0:	d0a74903 	ldbu	r2,-25308(gp)
  8011b4:	10803fcc 	andi	r2,r2,255
  8011b8:	1080201c 	xori	r2,r2,128
  8011bc:	10bfe004 	addi	r2,r2,-128
  8011c0:	1005003a 	cmpeq	r2,r2,zero
  8011c4:	1000031e 	bne	r2,zero,8011d4 <tick+0xf3c>
  8011c8:	00800044 	movi	r2,1
  8011cc:	e0bfe115 	stw	r2,-124(fp)
  8011d0:	00000106 	br	8011d8 <tick+0xf40>
  8011d4:	e03fe115 	stw	zero,-124(fp)
  8011d8:	e0ffe117 	ldw	r3,-124(fp)
  8011dc:	1805883a 	mov	r2,r3
  8011e0:	d0a72bc5 	stb	r2,-25425(gp)
      g67 =(PRE_g66);
  8011e4:	d0a75143 	ldbu	r2,-25275(gp)
  8011e8:	d0a75985 	stb	r2,-25242(gp)
      _cg67 = PVARPTO;
  8011ec:	d0a74703 	ldbu	r2,-25316(gp)
  8011f0:	d0a75ac5 	stb	r2,-25237(gp)
      g68 =(g67&&_cg67);
  8011f4:	d0a75983 	ldbu	r2,-25242(gp)
  8011f8:	10803fcc 	andi	r2,r2,255
  8011fc:	1080201c 	xori	r2,r2,128
  801200:	10bfe004 	addi	r2,r2,-128
  801204:	1005003a 	cmpeq	r2,r2,zero
  801208:	1000091e 	bne	r2,zero,801230 <tick+0xf98>
  80120c:	d0a75ac3 	ldbu	r2,-25237(gp)
  801210:	10803fcc 	andi	r2,r2,255
  801214:	1080201c 	xori	r2,r2,128
  801218:	10bfe004 	addi	r2,r2,-128
  80121c:	1005003a 	cmpeq	r2,r2,zero
  801220:	1000031e 	bne	r2,zero,801230 <tick+0xf98>
  801224:	00800044 	movi	r2,1
  801228:	e0bfe015 	stw	r2,-128(fp)
  80122c:	00000106 	br	801234 <tick+0xf9c>
  801230:	e03fe015 	stw	zero,-128(fp)
  801234:	e0ffe017 	ldw	r3,-128(fp)
  801238:	1805883a 	mov	r2,r3
  80123c:	d0a752c5 	stb	r2,-25269(gp)
      if(g68){
  801240:	d0a752c3 	ldbu	r2,-25269(gp)
  801244:	10803fcc 	andi	r2,r2,255
  801248:	1080201c 	xori	r2,r2,128
  80124c:	10bfe004 	addi	r2,r2,-128
  801250:	1005003a 	cmpeq	r2,r2,zero
  801254:	1000021e 	bne	r2,zero,801260 <tick+0xfc8>
         _compsys303_a2_local_PVARP_ex =(_compsys303_a2_local_PVARP_ex||1);
  801258:	00800044 	movi	r2,1
  80125c:	d0a755c5 	stb	r2,-25257(gp)
      }
      g48 =(PRE_g47);
  801260:	d0a745c3 	ldbu	r2,-25321(gp)
  801264:	d0a73545 	stb	r2,-25387(gp)
      g48b = g48;
  801268:	d0a73543 	ldbu	r2,-25387(gp)
  80126c:	d0a75bc5 	stb	r2,-25233(gp)
      _cg48 = _compsys303_a2_local_PVARP_ex;
  801270:	d0a755c3 	ldbu	r2,-25257(gp)
  801274:	d0a73e05 	stb	r2,-25352(gp)
      g47 =(g46||(g48b&&(!(_cg48))));
  801278:	d0a747c3 	ldbu	r2,-25313(gp)
  80127c:	10803fcc 	andi	r2,r2,255
  801280:	1080201c 	xori	r2,r2,128
  801284:	10bfe004 	addi	r2,r2,-128
  801288:	1004c03a 	cmpne	r2,r2,zero
  80128c:	10000c1e 	bne	r2,zero,8012c0 <tick+0x1028>
  801290:	d0a75bc3 	ldbu	r2,-25233(gp)
  801294:	10803fcc 	andi	r2,r2,255
  801298:	1080201c 	xori	r2,r2,128
  80129c:	10bfe004 	addi	r2,r2,-128
  8012a0:	1005003a 	cmpeq	r2,r2,zero
  8012a4:	1000091e 	bne	r2,zero,8012cc <tick+0x1034>
  8012a8:	d0a73e03 	ldbu	r2,-25352(gp)
  8012ac:	10803fcc 	andi	r2,r2,255
  8012b0:	1080201c 	xori	r2,r2,128
  8012b4:	10bfe004 	addi	r2,r2,-128
  8012b8:	1004c03a 	cmpne	r2,r2,zero
  8012bc:	1000031e 	bne	r2,zero,8012cc <tick+0x1034>
  8012c0:	00800044 	movi	r2,1
  8012c4:	e0bfdf15 	stw	r2,-132(fp)
  8012c8:	00000106 	br	8012d0 <tick+0x1038>
  8012cc:	e03fdf15 	stw	zero,-132(fp)
  8012d0:	e0ffdf17 	ldw	r3,-132(fp)
  8012d4:	1805883a 	mov	r2,r3
  8012d8:	d0a726c5 	stb	r2,-25445(gp)
      g49 =(g53||(g48b&&_cg48)||(g50&&(!(_cg50))));
  8012dc:	d0a74bc3 	ldbu	r2,-25297(gp)
  8012e0:	10803fcc 	andi	r2,r2,255
  8012e4:	1080201c 	xori	r2,r2,128
  8012e8:	10bfe004 	addi	r2,r2,-128
  8012ec:	1004c03a 	cmpne	r2,r2,zero
  8012f0:	1000181e 	bne	r2,zero,801354 <tick+0x10bc>
  8012f4:	d0a75bc3 	ldbu	r2,-25233(gp)
  8012f8:	10803fcc 	andi	r2,r2,255
  8012fc:	1080201c 	xori	r2,r2,128
  801300:	10bfe004 	addi	r2,r2,-128
  801304:	1005003a 	cmpeq	r2,r2,zero
  801308:	1000061e 	bne	r2,zero,801324 <tick+0x108c>
  80130c:	d0a73e03 	ldbu	r2,-25352(gp)
  801310:	10803fcc 	andi	r2,r2,255
  801314:	1080201c 	xori	r2,r2,128
  801318:	10bfe004 	addi	r2,r2,-128
  80131c:	1004c03a 	cmpne	r2,r2,zero
  801320:	10000c1e 	bne	r2,zero,801354 <tick+0x10bc>
  801324:	d0a74883 	ldbu	r2,-25310(gp)
  801328:	10803fcc 	andi	r2,r2,255
  80132c:	1080201c 	xori	r2,r2,128
  801330:	10bfe004 	addi	r2,r2,-128
  801334:	1005003a 	cmpeq	r2,r2,zero
  801338:	1000091e 	bne	r2,zero,801360 <tick+0x10c8>
  80133c:	d0a74f43 	ldbu	r2,-25283(gp)
  801340:	10803fcc 	andi	r2,r2,255
  801344:	1080201c 	xori	r2,r2,128
  801348:	10bfe004 	addi	r2,r2,-128
  80134c:	1004c03a 	cmpne	r2,r2,zero
  801350:	1000031e 	bne	r2,zero,801360 <tick+0x10c8>
  801354:	00800044 	movi	r2,1
  801358:	e0bfde15 	stw	r2,-136(fp)
  80135c:	00000106 	br	801364 <tick+0x10cc>
  801360:	e03fde15 	stw	zero,-136(fp)
  801364:	e0ffde17 	ldw	r3,-136(fp)
  801368:	1805883a 	mov	r2,r3
  80136c:	d0a73a85 	stb	r2,-25366(gp)
      g55 = g1;
  801370:	d0a72d03 	ldbu	r2,-25420(gp)
  801374:	d0a72445 	stb	r2,-25455(gp)
      g57 =(PRE_g56);
  801378:	d0a72b03 	ldbu	r2,-25428(gp)
  80137c:	d0a74c45 	stb	r2,-25295(gp)
      g57b = g57;
  801380:	d0a74c43 	ldbu	r2,-25295(gp)
  801384:	d0a74805 	stb	r2,-25312(gp)
      _cg57 = _compsys303_a2_local_AVI_start;
  801388:	d0a74cc3 	ldbu	r2,-25293(gp)
  80138c:	d0a75285 	stb	r2,-25270(gp)
      g56 =(g61||(g57b&&(!(_cg57)))||g55||(g59b&&_cg59));
  801390:	d0a72d43 	ldbu	r2,-25419(gp)
  801394:	10803fcc 	andi	r2,r2,255
  801398:	1080201c 	xori	r2,r2,128
  80139c:	10bfe004 	addi	r2,r2,-128
  8013a0:	1004c03a 	cmpne	r2,r2,zero
  8013a4:	10001e1e 	bne	r2,zero,801420 <tick+0x1188>
  8013a8:	d0a74803 	ldbu	r2,-25312(gp)
  8013ac:	10803fcc 	andi	r2,r2,255
  8013b0:	1080201c 	xori	r2,r2,128
  8013b4:	10bfe004 	addi	r2,r2,-128
  8013b8:	1005003a 	cmpeq	r2,r2,zero
  8013bc:	1000061e 	bne	r2,zero,8013d8 <tick+0x1140>
  8013c0:	d0a75283 	ldbu	r2,-25270(gp)
  8013c4:	10803fcc 	andi	r2,r2,255
  8013c8:	1080201c 	xori	r2,r2,128
  8013cc:	10bfe004 	addi	r2,r2,-128
  8013d0:	1005003a 	cmpeq	r2,r2,zero
  8013d4:	1000121e 	bne	r2,zero,801420 <tick+0x1188>
  8013d8:	d0a72443 	ldbu	r2,-25455(gp)
  8013dc:	10803fcc 	andi	r2,r2,255
  8013e0:	1080201c 	xori	r2,r2,128
  8013e4:	10bfe004 	addi	r2,r2,-128
  8013e8:	1004c03a 	cmpne	r2,r2,zero
  8013ec:	10000c1e 	bne	r2,zero,801420 <tick+0x1188>
  8013f0:	d0a73503 	ldbu	r2,-25388(gp)
  8013f4:	10803fcc 	andi	r2,r2,255
  8013f8:	1080201c 	xori	r2,r2,128
  8013fc:	10bfe004 	addi	r2,r2,-128
  801400:	1005003a 	cmpeq	r2,r2,zero
  801404:	1000091e 	bne	r2,zero,80142c <tick+0x1194>
  801408:	d0a724c3 	ldbu	r2,-25453(gp)
  80140c:	10803fcc 	andi	r2,r2,255
  801410:	1080201c 	xori	r2,r2,128
  801414:	10bfe004 	addi	r2,r2,-128
  801418:	1005003a 	cmpeq	r2,r2,zero
  80141c:	1000031e 	bne	r2,zero,80142c <tick+0x1194>
  801420:	00800044 	movi	r2,1
  801424:	e0bfdd15 	stw	r2,-140(fp)
  801428:	00000106 	br	801430 <tick+0x1198>
  80142c:	e03fdd15 	stw	zero,-140(fp)
  801430:	e0ffdd17 	ldw	r3,-140(fp)
  801434:	1805883a 	mov	r2,r3
  801438:	d0a74005 	stb	r2,-25344(gp)
      g58 =((g57b&&_cg57)||(g60&&(!(_cg60))));
  80143c:	d0a74803 	ldbu	r2,-25312(gp)
  801440:	10803fcc 	andi	r2,r2,255
  801444:	1080201c 	xori	r2,r2,128
  801448:	10bfe004 	addi	r2,r2,-128
  80144c:	1005003a 	cmpeq	r2,r2,zero
  801450:	1000061e 	bne	r2,zero,80146c <tick+0x11d4>
  801454:	d0a75283 	ldbu	r2,-25270(gp)
  801458:	10803fcc 	andi	r2,r2,255
  80145c:	1080201c 	xori	r2,r2,128
  801460:	10bfe004 	addi	r2,r2,-128
  801464:	1004c03a 	cmpne	r2,r2,zero
  801468:	10000c1e 	bne	r2,zero,80149c <tick+0x1204>
  80146c:	d0a74503 	ldbu	r2,-25324(gp)
  801470:	10803fcc 	andi	r2,r2,255
  801474:	1080201c 	xori	r2,r2,128
  801478:	10bfe004 	addi	r2,r2,-128
  80147c:	1005003a 	cmpeq	r2,r2,zero
  801480:	1000091e 	bne	r2,zero,8014a8 <tick+0x1210>
  801484:	d0a741c3 	ldbu	r2,-25337(gp)
  801488:	10803fcc 	andi	r2,r2,255
  80148c:	1080201c 	xori	r2,r2,128
  801490:	10bfe004 	addi	r2,r2,-128
  801494:	1004c03a 	cmpne	r2,r2,zero
  801498:	1000031e 	bne	r2,zero,8014a8 <tick+0x1210>
  80149c:	00800044 	movi	r2,1
  8014a0:	e0bfdc15 	stw	r2,-144(fp)
  8014a4:	00000106 	br	8014ac <tick+0x1214>
  8014a8:	e03fdc15 	stw	zero,-144(fp)
  8014ac:	e0ffdc17 	ldw	r3,-144(fp)
  8014b0:	1805883a 	mov	r2,r3
  8014b4:	d0a75205 	stb	r2,-25272(gp)
      g63 = g1;
  8014b8:	d0a72d03 	ldbu	r2,-25420(gp)
  8014bc:	d0a74445 	stb	r2,-25327(gp)
      g72 =(PRE_g71);
  8014c0:	d0a73e83 	ldbu	r2,-25350(gp)
  8014c4:	d0a74e45 	stb	r2,-25287(gp)
      _cg72 = VSense;
  8014c8:	d0a74083 	ldbu	r2,-25342(gp)
  8014cc:	d0a75d05 	stb	r2,-25228(gp)
      g73 =(g72&&_cg72);
  8014d0:	d0a74e43 	ldbu	r2,-25287(gp)
  8014d4:	10803fcc 	andi	r2,r2,255
  8014d8:	1080201c 	xori	r2,r2,128
  8014dc:	10bfe004 	addi	r2,r2,-128
  8014e0:	1005003a 	cmpeq	r2,r2,zero
  8014e4:	1000091e 	bne	r2,zero,80150c <tick+0x1274>
  8014e8:	d0a75d03 	ldbu	r2,-25228(gp)
  8014ec:	10803fcc 	andi	r2,r2,255
  8014f0:	1080201c 	xori	r2,r2,128
  8014f4:	10bfe004 	addi	r2,r2,-128
  8014f8:	1005003a 	cmpeq	r2,r2,zero
  8014fc:	1000031e 	bne	r2,zero,80150c <tick+0x1274>
  801500:	00800044 	movi	r2,1
  801504:	e0bfdb15 	stw	r2,-148(fp)
  801508:	00000106 	br	801510 <tick+0x1278>
  80150c:	e03fdb15 	stw	zero,-148(fp)
  801510:	e0ffdb17 	ldw	r3,-148(fp)
  801514:	1805883a 	mov	r2,r3
  801518:	d0a754c5 	stb	r2,-25261(gp)
      if(g73){
  80151c:	d0a754c3 	ldbu	r2,-25261(gp)
  801520:	10803fcc 	andi	r2,r2,255
  801524:	1080201c 	xori	r2,r2,128
  801528:	10bfe004 	addi	r2,r2,-128
  80152c:	1005003a 	cmpeq	r2,r2,zero
  801530:	1000021e 	bne	r2,zero,80153c <tick+0x12a4>
         _compsys303_a2_local_PVARP_start =(_compsys303_a2_local_PVARP_start||1);
  801534:	00800044 	movi	r2,1
  801538:	d0a74f05 	stb	r2,-25284(gp)
      }
      g65 =(PRE_g64);
  80153c:	d0a757c3 	ldbu	r2,-25249(gp)
  801540:	d0a753c5 	stb	r2,-25265(gp)
      g65b = g65;
  801544:	d0a753c3 	ldbu	r2,-25265(gp)
  801548:	d0a73805 	stb	r2,-25376(gp)
      _cg65 = _compsys303_a2_local_PVARP_start;
  80154c:	d0a74f03 	ldbu	r2,-25284(gp)
  801550:	d0a746c5 	stb	r2,-25317(gp)
      g64 =((g65b&&(!(_cg65)))||g63||g68);
  801554:	d0a73803 	ldbu	r2,-25376(gp)
  801558:	10803fcc 	andi	r2,r2,255
  80155c:	1080201c 	xori	r2,r2,128
  801560:	10bfe004 	addi	r2,r2,-128
  801564:	1005003a 	cmpeq	r2,r2,zero
  801568:	1000061e 	bne	r2,zero,801584 <tick+0x12ec>
  80156c:	d0a746c3 	ldbu	r2,-25317(gp)
  801570:	10803fcc 	andi	r2,r2,255
  801574:	1080201c 	xori	r2,r2,128
  801578:	10bfe004 	addi	r2,r2,-128
  80157c:	1005003a 	cmpeq	r2,r2,zero
  801580:	10000c1e 	bne	r2,zero,8015b4 <tick+0x131c>
  801584:	d0a74443 	ldbu	r2,-25327(gp)
  801588:	10803fcc 	andi	r2,r2,255
  80158c:	1080201c 	xori	r2,r2,128
  801590:	10bfe004 	addi	r2,r2,-128
  801594:	1004c03a 	cmpne	r2,r2,zero
  801598:	1000061e 	bne	r2,zero,8015b4 <tick+0x131c>
  80159c:	d0a752c3 	ldbu	r2,-25269(gp)
  8015a0:	10803fcc 	andi	r2,r2,255
  8015a4:	1080201c 	xori	r2,r2,128
  8015a8:	10bfe004 	addi	r2,r2,-128
  8015ac:	1005003a 	cmpeq	r2,r2,zero
  8015b0:	1000031e 	bne	r2,zero,8015c0 <tick+0x1328>
  8015b4:	00800044 	movi	r2,1
  8015b8:	e0bfda15 	stw	r2,-152(fp)
  8015bc:	00000106 	br	8015c4 <tick+0x132c>
  8015c0:	e03fda15 	stw	zero,-152(fp)
  8015c4:	e0ffda17 	ldw	r3,-152(fp)
  8015c8:	1805883a 	mov	r2,r3
  8015cc:	d0a73845 	stb	r2,-25375(gp)
      g66 =((g67&&(!(_cg67)))||(g65b&&_cg65));
  8015d0:	d0a75983 	ldbu	r2,-25242(gp)
  8015d4:	10803fcc 	andi	r2,r2,255
  8015d8:	1080201c 	xori	r2,r2,128
  8015dc:	10bfe004 	addi	r2,r2,-128
  8015e0:	1005003a 	cmpeq	r2,r2,zero
  8015e4:	1000061e 	bne	r2,zero,801600 <tick+0x1368>
  8015e8:	d0a75ac3 	ldbu	r2,-25237(gp)
  8015ec:	10803fcc 	andi	r2,r2,255
  8015f0:	1080201c 	xori	r2,r2,128
  8015f4:	10bfe004 	addi	r2,r2,-128
  8015f8:	1005003a 	cmpeq	r2,r2,zero
  8015fc:	10000c1e 	bne	r2,zero,801630 <tick+0x1398>
  801600:	d0a73803 	ldbu	r2,-25376(gp)
  801604:	10803fcc 	andi	r2,r2,255
  801608:	1080201c 	xori	r2,r2,128
  80160c:	10bfe004 	addi	r2,r2,-128
  801610:	1005003a 	cmpeq	r2,r2,zero
  801614:	1000091e 	bne	r2,zero,80163c <tick+0x13a4>
  801618:	d0a746c3 	ldbu	r2,-25317(gp)
  80161c:	10803fcc 	andi	r2,r2,255
  801620:	1080201c 	xori	r2,r2,128
  801624:	10bfe004 	addi	r2,r2,-128
  801628:	1005003a 	cmpeq	r2,r2,zero
  80162c:	1000031e 	bne	r2,zero,80163c <tick+0x13a4>
  801630:	00800044 	movi	r2,1
  801634:	e0bfd915 	stw	r2,-156(fp)
  801638:	00000106 	br	801640 <tick+0x13a8>
  80163c:	e03fd915 	stw	zero,-156(fp)
  801640:	e0ffd917 	ldw	r3,-156(fp)
  801644:	1805883a 	mov	r2,r3
  801648:	d0a73d85 	stb	r2,-25354(gp)
      g70 = g1;
  80164c:	d0a72d03 	ldbu	r2,-25420(gp)
  801650:	d0a74d05 	stb	r2,-25292(gp)
      g75 =(PRE_g74);
  801654:	d0a749c3 	ldbu	r2,-25305(gp)
  801658:	d0a75085 	stb	r2,-25278(gp)
      g75b = g75;
  80165c:	d0a75083 	ldbu	r2,-25278(gp)
  801660:	d0a73685 	stb	r2,-25382(gp)
      _cg75 = _compsys303_a2_local_PVARP_ex;
  801664:	d0a755c3 	ldbu	r2,-25257(gp)
  801668:	d0a72c05 	stb	r2,-25424(gp)
      g71 =((g75b&&_cg75)||(g72&&(!(_cg72)))||g70);
  80166c:	d0a73683 	ldbu	r2,-25382(gp)
  801670:	10803fcc 	andi	r2,r2,255
  801674:	1080201c 	xori	r2,r2,128
  801678:	10bfe004 	addi	r2,r2,-128
  80167c:	1005003a 	cmpeq	r2,r2,zero
  801680:	1000061e 	bne	r2,zero,80169c <tick+0x1404>
  801684:	d0a72c03 	ldbu	r2,-25424(gp)
  801688:	10803fcc 	andi	r2,r2,255
  80168c:	1080201c 	xori	r2,r2,128
  801690:	10bfe004 	addi	r2,r2,-128
  801694:	1004c03a 	cmpne	r2,r2,zero
  801698:	1000121e 	bne	r2,zero,8016e4 <tick+0x144c>
  80169c:	d0a74e43 	ldbu	r2,-25287(gp)
  8016a0:	10803fcc 	andi	r2,r2,255
  8016a4:	1080201c 	xori	r2,r2,128
  8016a8:	10bfe004 	addi	r2,r2,-128
  8016ac:	1005003a 	cmpeq	r2,r2,zero
  8016b0:	1000061e 	bne	r2,zero,8016cc <tick+0x1434>
  8016b4:	d0a75d03 	ldbu	r2,-25228(gp)
  8016b8:	10803fcc 	andi	r2,r2,255
  8016bc:	1080201c 	xori	r2,r2,128
  8016c0:	10bfe004 	addi	r2,r2,-128
  8016c4:	1005003a 	cmpeq	r2,r2,zero
  8016c8:	1000061e 	bne	r2,zero,8016e4 <tick+0x144c>
  8016cc:	d0a74d03 	ldbu	r2,-25292(gp)
  8016d0:	10803fcc 	andi	r2,r2,255
  8016d4:	1080201c 	xori	r2,r2,128
  8016d8:	10bfe004 	addi	r2,r2,-128
  8016dc:	1005003a 	cmpeq	r2,r2,zero
  8016e0:	1000031e 	bne	r2,zero,8016f0 <tick+0x1458>
  8016e4:	00800044 	movi	r2,1
  8016e8:	e0bfd815 	stw	r2,-160(fp)
  8016ec:	00000106 	br	8016f4 <tick+0x145c>
  8016f0:	e03fd815 	stw	zero,-160(fp)
  8016f4:	e0ffd817 	ldw	r3,-160(fp)
  8016f8:	1805883a 	mov	r2,r3
  8016fc:	d0a72d85 	stb	r2,-25418(gp)
      g76 =(g75b&&(!(_cg75)));
  801700:	d0a73683 	ldbu	r2,-25382(gp)
  801704:	10803fcc 	andi	r2,r2,255
  801708:	1080201c 	xori	r2,r2,128
  80170c:	10bfe004 	addi	r2,r2,-128
  801710:	1005003a 	cmpeq	r2,r2,zero
  801714:	1000091e 	bne	r2,zero,80173c <tick+0x14a4>
  801718:	d0a72c03 	ldbu	r2,-25424(gp)
  80171c:	10803fcc 	andi	r2,r2,255
  801720:	1080201c 	xori	r2,r2,128
  801724:	10bfe004 	addi	r2,r2,-128
  801728:	1004c03a 	cmpne	r2,r2,zero
  80172c:	1000031e 	bne	r2,zero,80173c <tick+0x14a4>
  801730:	00800044 	movi	r2,1
  801734:	e0bfd715 	stw	r2,-164(fp)
  801738:	00000106 	br	801740 <tick+0x14a8>
  80173c:	e03fd715 	stw	zero,-164(fp)
  801740:	e0ffd717 	ldw	r3,-164(fp)
  801744:	1805883a 	mov	r2,r3
  801748:	d0a73085 	stb	r2,-25406(gp)
      _cg76 = ASense;
  80174c:	d0a73443 	ldbu	r2,-25391(gp)
  801750:	d0a73745 	stb	r2,-25379(gp)
      g74 =(g73||(g76&&_cg76)||(g76&&_cg76));
  801754:	d0a754c3 	ldbu	r2,-25261(gp)
  801758:	10803fcc 	andi	r2,r2,255
  80175c:	1080201c 	xori	r2,r2,128
  801760:	10bfe004 	addi	r2,r2,-128
  801764:	1004c03a 	cmpne	r2,r2,zero
  801768:	1000181e 	bne	r2,zero,8017cc <tick+0x1534>
  80176c:	d0a73083 	ldbu	r2,-25406(gp)
  801770:	10803fcc 	andi	r2,r2,255
  801774:	1080201c 	xori	r2,r2,128
  801778:	10bfe004 	addi	r2,r2,-128
  80177c:	1005003a 	cmpeq	r2,r2,zero
  801780:	1000061e 	bne	r2,zero,80179c <tick+0x1504>
  801784:	d0a73743 	ldbu	r2,-25379(gp)
  801788:	10803fcc 	andi	r2,r2,255
  80178c:	1080201c 	xori	r2,r2,128
  801790:	10bfe004 	addi	r2,r2,-128
  801794:	1004c03a 	cmpne	r2,r2,zero
  801798:	10000c1e 	bne	r2,zero,8017cc <tick+0x1534>
  80179c:	d0a73083 	ldbu	r2,-25406(gp)
  8017a0:	10803fcc 	andi	r2,r2,255
  8017a4:	1080201c 	xori	r2,r2,128
  8017a8:	10bfe004 	addi	r2,r2,-128
  8017ac:	1005003a 	cmpeq	r2,r2,zero
  8017b0:	1000091e 	bne	r2,zero,8017d8 <tick+0x1540>
  8017b4:	d0a73743 	ldbu	r2,-25379(gp)
  8017b8:	10803fcc 	andi	r2,r2,255
  8017bc:	1080201c 	xori	r2,r2,128
  8017c0:	10bfe004 	addi	r2,r2,-128
  8017c4:	1005003a 	cmpeq	r2,r2,zero
  8017c8:	1000031e 	bne	r2,zero,8017d8 <tick+0x1540>
  8017cc:	00800044 	movi	r2,1
  8017d0:	e0bfd615 	stw	r2,-168(fp)
  8017d4:	00000106 	br	8017dc <tick+0x1544>
  8017d8:	e03fd615 	stw	zero,-168(fp)
  8017dc:	e0ffd617 	ldw	r3,-168(fp)
  8017e0:	1805883a 	mov	r2,r3
  8017e4:	d0a75d45 	stb	r2,-25227(gp)
      g78 = g1;
  8017e8:	d0a72d03 	ldbu	r2,-25420(gp)
  8017ec:	d0a74105 	stb	r2,-25340(gp)
      g93 =(PRE_g92);
  8017f0:	d0a75a83 	ldbu	r2,-25238(gp)
  8017f4:	d0a74585 	stb	r2,-25322(gp)
      _cg93 = ASense;
  8017f8:	d0a73443 	ldbu	r2,-25391(gp)
  8017fc:	d0a74dc5 	stb	r2,-25289(gp)
      g94 =(g93&&_cg93);
  801800:	d0a74583 	ldbu	r2,-25322(gp)
  801804:	10803fcc 	andi	r2,r2,255
  801808:	1080201c 	xori	r2,r2,128
  80180c:	10bfe004 	addi	r2,r2,-128
  801810:	1005003a 	cmpeq	r2,r2,zero
  801814:	1000091e 	bne	r2,zero,80183c <tick+0x15a4>
  801818:	d0a74dc3 	ldbu	r2,-25289(gp)
  80181c:	10803fcc 	andi	r2,r2,255
  801820:	1080201c 	xori	r2,r2,128
  801824:	10bfe004 	addi	r2,r2,-128
  801828:	1005003a 	cmpeq	r2,r2,zero
  80182c:	1000031e 	bne	r2,zero,80183c <tick+0x15a4>
  801830:	00800044 	movi	r2,1
  801834:	e0bfd515 	stw	r2,-172(fp)
  801838:	00000106 	br	801840 <tick+0x15a8>
  80183c:	e03fd515 	stw	zero,-172(fp)
  801840:	e0ffd517 	ldw	r3,-172(fp)
  801844:	1805883a 	mov	r2,r3
  801848:	d0a73a05 	stb	r2,-25368(gp)
      if(g94){
  80184c:	d0a73a03 	ldbu	r2,-25368(gp)
  801850:	10803fcc 	andi	r2,r2,255
  801854:	1080201c 	xori	r2,r2,128
  801858:	10bfe004 	addi	r2,r2,-128
  80185c:	1005003a 	cmpeq	r2,r2,zero
  801860:	1000021e 	bne	r2,zero,80186c <tick+0x15d4>
         _compsys303_a2_local_AEI_stop =(_compsys303_a2_local_AEI_stop||1);
  801864:	00800044 	movi	r2,1
  801868:	d0a73b45 	stb	r2,-25363(gp)
      }
      g82 =(PRE_g81);
  80186c:	d0a73403 	ldbu	r2,-25392(gp)
  801870:	d0a72e45 	stb	r2,-25415(gp)
      g82b = g82;
  801874:	d0a72e43 	ldbu	r2,-25415(gp)
  801878:	d0a74e05 	stb	r2,-25288(gp)
      _cg82 = _compsys303_a2_local_AEI_stop;
  80187c:	d0a73b43 	ldbu	r2,-25363(gp)
  801880:	d0a73785 	stb	r2,-25378(gp)
      g83 =(g82b&&(!(_cg82)));
  801884:	d0a74e03 	ldbu	r2,-25288(gp)
  801888:	10803fcc 	andi	r2,r2,255
  80188c:	1080201c 	xori	r2,r2,128
  801890:	10bfe004 	addi	r2,r2,-128
  801894:	1005003a 	cmpeq	r2,r2,zero
  801898:	1000091e 	bne	r2,zero,8018c0 <tick+0x1628>
  80189c:	d0a73783 	ldbu	r2,-25378(gp)
  8018a0:	10803fcc 	andi	r2,r2,255
  8018a4:	1080201c 	xori	r2,r2,128
  8018a8:	10bfe004 	addi	r2,r2,-128
  8018ac:	1004c03a 	cmpne	r2,r2,zero
  8018b0:	1000031e 	bne	r2,zero,8018c0 <tick+0x1628>
  8018b4:	00800044 	movi	r2,1
  8018b8:	e0bfd415 	stw	r2,-176(fp)
  8018bc:	00000106 	br	8018c4 <tick+0x162c>
  8018c0:	e03fd415 	stw	zero,-176(fp)
  8018c4:	e0ffd417 	ldw	r3,-176(fp)
  8018c8:	1805883a 	mov	r2,r3
  8018cc:	d0a72145 	stb	r2,-25467(gp)
      _cg83 = AEITO;
  8018d0:	d0a75c03 	ldbu	r2,-25232(gp)
  8018d4:	d0a73dc5 	stb	r2,-25353(gp)
      g84 =(g83&&_cg83);
  8018d8:	d0a72143 	ldbu	r2,-25467(gp)
  8018dc:	10803fcc 	andi	r2,r2,255
  8018e0:	1080201c 	xori	r2,r2,128
  8018e4:	10bfe004 	addi	r2,r2,-128
  8018e8:	1005003a 	cmpeq	r2,r2,zero
  8018ec:	1000091e 	bne	r2,zero,801914 <tick+0x167c>
  8018f0:	d0a73dc3 	ldbu	r2,-25353(gp)
  8018f4:	10803fcc 	andi	r2,r2,255
  8018f8:	1080201c 	xori	r2,r2,128
  8018fc:	10bfe004 	addi	r2,r2,-128
  801900:	1005003a 	cmpeq	r2,r2,zero
  801904:	1000031e 	bne	r2,zero,801914 <tick+0x167c>
  801908:	00800044 	movi	r2,1
  80190c:	e0bfd315 	stw	r2,-180(fp)
  801910:	00000106 	br	801918 <tick+0x1680>
  801914:	e03fd315 	stw	zero,-180(fp)
  801918:	e0ffd317 	ldw	r3,-180(fp)
  80191c:	1805883a 	mov	r2,r3
  801920:	d0a731c5 	stb	r2,-25401(gp)
      if(g84){
  801924:	d0a731c3 	ldbu	r2,-25401(gp)
  801928:	10803fcc 	andi	r2,r2,255
  80192c:	1080201c 	xori	r2,r2,128
  801930:	10bfe004 	addi	r2,r2,-128
  801934:	1005003a 	cmpeq	r2,r2,zero
  801938:	1000021e 	bne	r2,zero,801944 <tick+0x16ac>
         _compsys303_a2_local_AEI_ex =(_compsys303_a2_local_AEI_ex||1);
  80193c:	00800044 	movi	r2,1
  801940:	d0a72a05 	stb	r2,-25432(gp)
      }
      g88 =(PRE_g87);
  801944:	d0a73643 	ldbu	r2,-25383(gp)
  801948:	d0a75645 	stb	r2,-25255(gp)
      _cg88 = VSense;
  80194c:	d0a74083 	ldbu	r2,-25342(gp)
  801950:	d0a75905 	stb	r2,-25244(gp)
      g101 =(g88&&(!(_cg88)));
  801954:	d0a75643 	ldbu	r2,-25255(gp)
  801958:	10803fcc 	andi	r2,r2,255
  80195c:	1080201c 	xori	r2,r2,128
  801960:	10bfe004 	addi	r2,r2,-128
  801964:	1005003a 	cmpeq	r2,r2,zero
  801968:	1000091e 	bne	r2,zero,801990 <tick+0x16f8>
  80196c:	d0a75903 	ldbu	r2,-25244(gp)
  801970:	10803fcc 	andi	r2,r2,255
  801974:	1080201c 	xori	r2,r2,128
  801978:	10bfe004 	addi	r2,r2,-128
  80197c:	1004c03a 	cmpne	r2,r2,zero
  801980:	1000031e 	bne	r2,zero,801990 <tick+0x16f8>
  801984:	00800044 	movi	r2,1
  801988:	e0bfd215 	stw	r2,-184(fp)
  80198c:	00000106 	br	801994 <tick+0x16fc>
  801990:	e03fd215 	stw	zero,-184(fp)
  801994:	e0ffd217 	ldw	r3,-184(fp)
  801998:	1805883a 	mov	r2,r3
  80199c:	d0a73fc5 	stb	r2,-25345(gp)
      _cg101 = VPace;
  8019a0:	d0a75843 	ldbu	r2,-25247(gp)
  8019a4:	d0a734c5 	stb	r2,-25389(gp)
      g89 =((g88&&_cg88)||(g101&&_cg101));
  8019a8:	d0a75643 	ldbu	r2,-25255(gp)
  8019ac:	10803fcc 	andi	r2,r2,255
  8019b0:	1080201c 	xori	r2,r2,128
  8019b4:	10bfe004 	addi	r2,r2,-128
  8019b8:	1005003a 	cmpeq	r2,r2,zero
  8019bc:	1000061e 	bne	r2,zero,8019d8 <tick+0x1740>
  8019c0:	d0a75903 	ldbu	r2,-25244(gp)
  8019c4:	10803fcc 	andi	r2,r2,255
  8019c8:	1080201c 	xori	r2,r2,128
  8019cc:	10bfe004 	addi	r2,r2,-128
  8019d0:	1004c03a 	cmpne	r2,r2,zero
  8019d4:	10000c1e 	bne	r2,zero,801a08 <tick+0x1770>
  8019d8:	d0a73fc3 	ldbu	r2,-25345(gp)
  8019dc:	10803fcc 	andi	r2,r2,255
  8019e0:	1080201c 	xori	r2,r2,128
  8019e4:	10bfe004 	addi	r2,r2,-128
  8019e8:	1005003a 	cmpeq	r2,r2,zero
  8019ec:	1000091e 	bne	r2,zero,801a14 <tick+0x177c>
  8019f0:	d0a734c3 	ldbu	r2,-25389(gp)
  8019f4:	10803fcc 	andi	r2,r2,255
  8019f8:	1080201c 	xori	r2,r2,128
  8019fc:	10bfe004 	addi	r2,r2,-128
  801a00:	1005003a 	cmpeq	r2,r2,zero
  801a04:	1000031e 	bne	r2,zero,801a14 <tick+0x177c>
  801a08:	00800044 	movi	r2,1
  801a0c:	e0bfd115 	stw	r2,-188(fp)
  801a10:	00000106 	br	801a18 <tick+0x1780>
  801a14:	e03fd115 	stw	zero,-188(fp)
  801a18:	e0ffd117 	ldw	r3,-188(fp)
  801a1c:	1805883a 	mov	r2,r3
  801a20:	d0a74785 	stb	r2,-25314(gp)
      if(g89){
  801a24:	d0a74783 	ldbu	r2,-25314(gp)
  801a28:	10803fcc 	andi	r2,r2,255
  801a2c:	1080201c 	xori	r2,r2,128
  801a30:	10bfe004 	addi	r2,r2,-128
  801a34:	1005003a 	cmpeq	r2,r2,zero
  801a38:	1000021e 	bne	r2,zero,801a44 <tick+0x17ac>
         _compsys303_a2_local_AEI_start =(_compsys303_a2_local_AEI_start||1);
  801a3c:	00800044 	movi	r2,1
  801a40:	d0a725c5 	stb	r2,-25449(gp)
      }
      g96 =(PRE_g95);
  801a44:	d0a72283 	ldbu	r2,-25462(gp)
  801a48:	d0a748c5 	stb	r2,-25309(gp)
      _cg96 = VSense;
  801a4c:	d0a74083 	ldbu	r2,-25342(gp)
  801a50:	d0a72485 	stb	r2,-25454(gp)
      g98 =(g96&&(!(_cg96)));
  801a54:	d0a748c3 	ldbu	r2,-25309(gp)
  801a58:	10803fcc 	andi	r2,r2,255
  801a5c:	1080201c 	xori	r2,r2,128
  801a60:	10bfe004 	addi	r2,r2,-128
  801a64:	1005003a 	cmpeq	r2,r2,zero
  801a68:	1000091e 	bne	r2,zero,801a90 <tick+0x17f8>
  801a6c:	d0a72483 	ldbu	r2,-25454(gp)
  801a70:	10803fcc 	andi	r2,r2,255
  801a74:	1080201c 	xori	r2,r2,128
  801a78:	10bfe004 	addi	r2,r2,-128
  801a7c:	1004c03a 	cmpne	r2,r2,zero
  801a80:	1000031e 	bne	r2,zero,801a90 <tick+0x17f8>
  801a84:	00800044 	movi	r2,1
  801a88:	e0bfd015 	stw	r2,-192(fp)
  801a8c:	00000106 	br	801a94 <tick+0x17fc>
  801a90:	e03fd015 	stw	zero,-192(fp)
  801a94:	e0ffd017 	ldw	r3,-192(fp)
  801a98:	1805883a 	mov	r2,r3
  801a9c:	d0a74b85 	stb	r2,-25298(gp)
      _cg98 = VPace;
  801aa0:	d0a75843 	ldbu	r2,-25247(gp)
  801aa4:	d0a72e85 	stb	r2,-25414(gp)
      g97 =((g96&&_cg96)||(g98&&_cg98));
  801aa8:	d0a748c3 	ldbu	r2,-25309(gp)
  801aac:	10803fcc 	andi	r2,r2,255
  801ab0:	1080201c 	xori	r2,r2,128
  801ab4:	10bfe004 	addi	r2,r2,-128
  801ab8:	1005003a 	cmpeq	r2,r2,zero
  801abc:	1000061e 	bne	r2,zero,801ad8 <tick+0x1840>
  801ac0:	d0a72483 	ldbu	r2,-25454(gp)
  801ac4:	10803fcc 	andi	r2,r2,255
  801ac8:	1080201c 	xori	r2,r2,128
  801acc:	10bfe004 	addi	r2,r2,-128
  801ad0:	1004c03a 	cmpne	r2,r2,zero
  801ad4:	10000c1e 	bne	r2,zero,801b08 <tick+0x1870>
  801ad8:	d0a74b83 	ldbu	r2,-25298(gp)
  801adc:	10803fcc 	andi	r2,r2,255
  801ae0:	1080201c 	xori	r2,r2,128
  801ae4:	10bfe004 	addi	r2,r2,-128
  801ae8:	1005003a 	cmpeq	r2,r2,zero
  801aec:	1000091e 	bne	r2,zero,801b14 <tick+0x187c>
  801af0:	d0a72e83 	ldbu	r2,-25414(gp)
  801af4:	10803fcc 	andi	r2,r2,255
  801af8:	1080201c 	xori	r2,r2,128
  801afc:	10bfe004 	addi	r2,r2,-128
  801b00:	1005003a 	cmpeq	r2,r2,zero
  801b04:	1000031e 	bne	r2,zero,801b14 <tick+0x187c>
  801b08:	00800044 	movi	r2,1
  801b0c:	e0bfcf15 	stw	r2,-196(fp)
  801b10:	00000106 	br	801b18 <tick+0x1880>
  801b14:	e03fcf15 	stw	zero,-196(fp)
  801b18:	e0ffcf17 	ldw	r3,-196(fp)
  801b1c:	1805883a 	mov	r2,r3
  801b20:	d0a72f05 	stb	r2,-25412(gp)
      if(g97){
  801b24:	d0a72f03 	ldbu	r2,-25412(gp)
  801b28:	10803fcc 	andi	r2,r2,255
  801b2c:	1080201c 	xori	r2,r2,128
  801b30:	10bfe004 	addi	r2,r2,-128
  801b34:	1005003a 	cmpeq	r2,r2,zero
  801b38:	1000021e 	bne	r2,zero,801b44 <tick+0x18ac>
         _compsys303_a2_local_AEI_start =(_compsys303_a2_local_AEI_start||1);
  801b3c:	00800044 	movi	r2,1
  801b40:	d0a725c5 	stb	r2,-25449(gp)
      }
      g80 =(PRE_g79);
  801b44:	d0a73f03 	ldbu	r2,-25348(gp)
  801b48:	d0a73bc5 	stb	r2,-25361(gp)
      g80b = g80;
  801b4c:	d0a73bc3 	ldbu	r2,-25361(gp)
  801b50:	d0a72405 	stb	r2,-25456(gp)
      _cg80 = _compsys303_a2_local_AEI_start;
  801b54:	d0a725c3 	ldbu	r2,-25449(gp)
  801b58:	d0a74a85 	stb	r2,-25302(gp)
      g79 =(g84||(g82b&&_cg82)||(g80b&&(!(_cg80)))||g78);
  801b5c:	d0a731c3 	ldbu	r2,-25401(gp)
  801b60:	10803fcc 	andi	r2,r2,255
  801b64:	1080201c 	xori	r2,r2,128
  801b68:	10bfe004 	addi	r2,r2,-128
  801b6c:	1004c03a 	cmpne	r2,r2,zero
  801b70:	10001e1e 	bne	r2,zero,801bec <tick+0x1954>
  801b74:	d0a74e03 	ldbu	r2,-25288(gp)
  801b78:	10803fcc 	andi	r2,r2,255
  801b7c:	1080201c 	xori	r2,r2,128
  801b80:	10bfe004 	addi	r2,r2,-128
  801b84:	1005003a 	cmpeq	r2,r2,zero
  801b88:	1000061e 	bne	r2,zero,801ba4 <tick+0x190c>
  801b8c:	d0a73783 	ldbu	r2,-25378(gp)
  801b90:	10803fcc 	andi	r2,r2,255
  801b94:	1080201c 	xori	r2,r2,128
  801b98:	10bfe004 	addi	r2,r2,-128
  801b9c:	1004c03a 	cmpne	r2,r2,zero
  801ba0:	1000121e 	bne	r2,zero,801bec <tick+0x1954>
  801ba4:	d0a72403 	ldbu	r2,-25456(gp)
  801ba8:	10803fcc 	andi	r2,r2,255
  801bac:	1080201c 	xori	r2,r2,128
  801bb0:	10bfe004 	addi	r2,r2,-128
  801bb4:	1005003a 	cmpeq	r2,r2,zero
  801bb8:	1000061e 	bne	r2,zero,801bd4 <tick+0x193c>
  801bbc:	d0a74a83 	ldbu	r2,-25302(gp)
  801bc0:	10803fcc 	andi	r2,r2,255
  801bc4:	1080201c 	xori	r2,r2,128
  801bc8:	10bfe004 	addi	r2,r2,-128
  801bcc:	1005003a 	cmpeq	r2,r2,zero
  801bd0:	1000061e 	bne	r2,zero,801bec <tick+0x1954>
  801bd4:	d0a74103 	ldbu	r2,-25340(gp)
  801bd8:	10803fcc 	andi	r2,r2,255
  801bdc:	1080201c 	xori	r2,r2,128
  801be0:	10bfe004 	addi	r2,r2,-128
  801be4:	1005003a 	cmpeq	r2,r2,zero
  801be8:	1000031e 	bne	r2,zero,801bf8 <tick+0x1960>
  801bec:	00800044 	movi	r2,1
  801bf0:	e0bfce15 	stw	r2,-200(fp)
  801bf4:	00000106 	br	801bfc <tick+0x1964>
  801bf8:	e03fce15 	stw	zero,-200(fp)
  801bfc:	e0ffce17 	ldw	r3,-200(fp)
  801c00:	1805883a 	mov	r2,r3
  801c04:	d0a73945 	stb	r2,-25371(gp)
      g81 =((g80b&&_cg80)||(g83&&(!(_cg83))));
  801c08:	d0a72403 	ldbu	r2,-25456(gp)
  801c0c:	10803fcc 	andi	r2,r2,255
  801c10:	1080201c 	xori	r2,r2,128
  801c14:	10bfe004 	addi	r2,r2,-128
  801c18:	1005003a 	cmpeq	r2,r2,zero
  801c1c:	1000061e 	bne	r2,zero,801c38 <tick+0x19a0>
  801c20:	d0a74a83 	ldbu	r2,-25302(gp)
  801c24:	10803fcc 	andi	r2,r2,255
  801c28:	1080201c 	xori	r2,r2,128
  801c2c:	10bfe004 	addi	r2,r2,-128
  801c30:	1004c03a 	cmpne	r2,r2,zero
  801c34:	10000c1e 	bne	r2,zero,801c68 <tick+0x19d0>
  801c38:	d0a72143 	ldbu	r2,-25467(gp)
  801c3c:	10803fcc 	andi	r2,r2,255
  801c40:	1080201c 	xori	r2,r2,128
  801c44:	10bfe004 	addi	r2,r2,-128
  801c48:	1005003a 	cmpeq	r2,r2,zero
  801c4c:	1000091e 	bne	r2,zero,801c74 <tick+0x19dc>
  801c50:	d0a73dc3 	ldbu	r2,-25353(gp)
  801c54:	10803fcc 	andi	r2,r2,255
  801c58:	1080201c 	xori	r2,r2,128
  801c5c:	10bfe004 	addi	r2,r2,-128
  801c60:	1004c03a 	cmpne	r2,r2,zero
  801c64:	1000031e 	bne	r2,zero,801c74 <tick+0x19dc>
  801c68:	00800044 	movi	r2,1
  801c6c:	e0bfcd15 	stw	r2,-204(fp)
  801c70:	00000106 	br	801c78 <tick+0x19e0>
  801c74:	e03fcd15 	stw	zero,-204(fp)
  801c78:	e0ffcd17 	ldw	r3,-204(fp)
  801c7c:	1805883a 	mov	r2,r3
  801c80:	d0a74e85 	stb	r2,-25286(gp)
      g86 = g1;
  801c84:	d0a72d03 	ldbu	r2,-25420(gp)
  801c88:	d0a74645 	stb	r2,-25319(gp)
      g87 =(g86||(g101&&(!(_cg101))));
  801c8c:	d0a74643 	ldbu	r2,-25319(gp)
  801c90:	10803fcc 	andi	r2,r2,255
  801c94:	1080201c 	xori	r2,r2,128
  801c98:	10bfe004 	addi	r2,r2,-128
  801c9c:	1004c03a 	cmpne	r2,r2,zero
  801ca0:	10000c1e 	bne	r2,zero,801cd4 <tick+0x1a3c>
  801ca4:	d0a73fc3 	ldbu	r2,-25345(gp)
  801ca8:	10803fcc 	andi	r2,r2,255
  801cac:	1080201c 	xori	r2,r2,128
  801cb0:	10bfe004 	addi	r2,r2,-128
  801cb4:	1005003a 	cmpeq	r2,r2,zero
  801cb8:	1000091e 	bne	r2,zero,801ce0 <tick+0x1a48>
  801cbc:	d0a734c3 	ldbu	r2,-25389(gp)
  801cc0:	10803fcc 	andi	r2,r2,255
  801cc4:	1080201c 	xori	r2,r2,128
  801cc8:	10bfe004 	addi	r2,r2,-128
  801ccc:	1004c03a 	cmpne	r2,r2,zero
  801cd0:	1000031e 	bne	r2,zero,801ce0 <tick+0x1a48>
  801cd4:	00800044 	movi	r2,1
  801cd8:	e0bfcc15 	stw	r2,-208(fp)
  801cdc:	00000106 	br	801ce4 <tick+0x1a4c>
  801ce0:	e03fcc15 	stw	zero,-208(fp)
  801ce4:	e0ffcc17 	ldw	r3,-208(fp)
  801ce8:	1805883a 	mov	r2,r3
  801cec:	d0a72b85 	stb	r2,-25426(gp)
      g91 =(PRE_g90);
  801cf0:	d0a72543 	ldbu	r2,-25451(gp)
  801cf4:	d0a72205 	stb	r2,-25464(gp)
      g91b = g91;
  801cf8:	d0a72203 	ldbu	r2,-25464(gp)
  801cfc:	d0a74d45 	stb	r2,-25291(gp)
      _cg91 = _compsys303_a2_local_PVARP_ex;
  801d00:	d0a755c3 	ldbu	r2,-25257(gp)
  801d04:	d0a75045 	stb	r2,-25279(gp)
      g90 =(g97||(g91b&&(!(_cg91)))||g89);
  801d08:	d0a72f03 	ldbu	r2,-25412(gp)
  801d0c:	10803fcc 	andi	r2,r2,255
  801d10:	1080201c 	xori	r2,r2,128
  801d14:	10bfe004 	addi	r2,r2,-128
  801d18:	1004c03a 	cmpne	r2,r2,zero
  801d1c:	1000121e 	bne	r2,zero,801d68 <tick+0x1ad0>
  801d20:	d0a74d43 	ldbu	r2,-25291(gp)
  801d24:	10803fcc 	andi	r2,r2,255
  801d28:	1080201c 	xori	r2,r2,128
  801d2c:	10bfe004 	addi	r2,r2,-128
  801d30:	1005003a 	cmpeq	r2,r2,zero
  801d34:	1000061e 	bne	r2,zero,801d50 <tick+0x1ab8>
  801d38:	d0a75043 	ldbu	r2,-25279(gp)
  801d3c:	10803fcc 	andi	r2,r2,255
  801d40:	1080201c 	xori	r2,r2,128
  801d44:	10bfe004 	addi	r2,r2,-128
  801d48:	1005003a 	cmpeq	r2,r2,zero
  801d4c:	1000061e 	bne	r2,zero,801d68 <tick+0x1ad0>
  801d50:	d0a74783 	ldbu	r2,-25314(gp)
  801d54:	10803fcc 	andi	r2,r2,255
  801d58:	1080201c 	xori	r2,r2,128
  801d5c:	10bfe004 	addi	r2,r2,-128
  801d60:	1005003a 	cmpeq	r2,r2,zero
  801d64:	1000031e 	bne	r2,zero,801d74 <tick+0x1adc>
  801d68:	00800044 	movi	r2,1
  801d6c:	e0bfcb15 	stw	r2,-212(fp)
  801d70:	00000106 	br	801d78 <tick+0x1ae0>
  801d74:	e03fcb15 	stw	zero,-212(fp)
  801d78:	e0ffcb17 	ldw	r3,-212(fp)
  801d7c:	1805883a 	mov	r2,r3
  801d80:	d0a74305 	stb	r2,-25332(gp)
      g99 =(g93&&(!(_cg93)));
  801d84:	d0a74583 	ldbu	r2,-25322(gp)
  801d88:	10803fcc 	andi	r2,r2,255
  801d8c:	1080201c 	xori	r2,r2,128
  801d90:	10bfe004 	addi	r2,r2,-128
  801d94:	1005003a 	cmpeq	r2,r2,zero
  801d98:	1000091e 	bne	r2,zero,801dc0 <tick+0x1b28>
  801d9c:	d0a74dc3 	ldbu	r2,-25289(gp)
  801da0:	10803fcc 	andi	r2,r2,255
  801da4:	1080201c 	xori	r2,r2,128
  801da8:	10bfe004 	addi	r2,r2,-128
  801dac:	1004c03a 	cmpne	r2,r2,zero
  801db0:	1000031e 	bne	r2,zero,801dc0 <tick+0x1b28>
  801db4:	00800044 	movi	r2,1
  801db8:	e0bfca15 	stw	r2,-216(fp)
  801dbc:	00000106 	br	801dc4 <tick+0x1b2c>
  801dc0:	e03fca15 	stw	zero,-216(fp)
  801dc4:	e0ffca17 	ldw	r3,-216(fp)
  801dc8:	1805883a 	mov	r2,r3
  801dcc:	d0a73d05 	stb	r2,-25356(gp)
      _cg99 = _compsys303_a2_local_AEI_ex;
  801dd0:	d0a72a03 	ldbu	r2,-25432(gp)
  801dd4:	d0a721c5 	stb	r2,-25465(gp)
      g92 =((g99&&(!(_cg99)))||(g91b&&_cg91));
  801dd8:	d0a73d03 	ldbu	r2,-25356(gp)
  801ddc:	10803fcc 	andi	r2,r2,255
  801de0:	1080201c 	xori	r2,r2,128
  801de4:	10bfe004 	addi	r2,r2,-128
  801de8:	1005003a 	cmpeq	r2,r2,zero
  801dec:	1000061e 	bne	r2,zero,801e08 <tick+0x1b70>
  801df0:	d0a721c3 	ldbu	r2,-25465(gp)
  801df4:	10803fcc 	andi	r2,r2,255
  801df8:	1080201c 	xori	r2,r2,128
  801dfc:	10bfe004 	addi	r2,r2,-128
  801e00:	1005003a 	cmpeq	r2,r2,zero
  801e04:	10000c1e 	bne	r2,zero,801e38 <tick+0x1ba0>
  801e08:	d0a74d43 	ldbu	r2,-25291(gp)
  801e0c:	10803fcc 	andi	r2,r2,255
  801e10:	1080201c 	xori	r2,r2,128
  801e14:	10bfe004 	addi	r2,r2,-128
  801e18:	1005003a 	cmpeq	r2,r2,zero
  801e1c:	1000091e 	bne	r2,zero,801e44 <tick+0x1bac>
  801e20:	d0a75043 	ldbu	r2,-25279(gp)
  801e24:	10803fcc 	andi	r2,r2,255
  801e28:	1080201c 	xori	r2,r2,128
  801e2c:	10bfe004 	addi	r2,r2,-128
  801e30:	1005003a 	cmpeq	r2,r2,zero
  801e34:	1000031e 	bne	r2,zero,801e44 <tick+0x1bac>
  801e38:	00800044 	movi	r2,1
  801e3c:	e0bfc915 	stw	r2,-220(fp)
  801e40:	00000106 	br	801e48 <tick+0x1bb0>
  801e44:	e03fc915 	stw	zero,-220(fp)
  801e48:	e0ffc917 	ldw	r3,-220(fp)
  801e4c:	1805883a 	mov	r2,r3
  801e50:	d0a72cc5 	stb	r2,-25421(gp)
      g100 =(g99&&_cg99);
  801e54:	d0a73d03 	ldbu	r2,-25356(gp)
  801e58:	10803fcc 	andi	r2,r2,255
  801e5c:	1080201c 	xori	r2,r2,128
  801e60:	10bfe004 	addi	r2,r2,-128
  801e64:	1005003a 	cmpeq	r2,r2,zero
  801e68:	1000091e 	bne	r2,zero,801e90 <tick+0x1bf8>
  801e6c:	d0a721c3 	ldbu	r2,-25465(gp)
  801e70:	10803fcc 	andi	r2,r2,255
  801e74:	1080201c 	xori	r2,r2,128
  801e78:	10bfe004 	addi	r2,r2,-128
  801e7c:	1005003a 	cmpeq	r2,r2,zero
  801e80:	1000031e 	bne	r2,zero,801e90 <tick+0x1bf8>
  801e84:	00800044 	movi	r2,1
  801e88:	e0bfc815 	stw	r2,-224(fp)
  801e8c:	00000106 	br	801e94 <tick+0x1bfc>
  801e90:	e03fc815 	stw	zero,-224(fp)
  801e94:	e0ffc817 	ldw	r3,-224(fp)
  801e98:	1805883a 	mov	r2,r3
  801e9c:	d0a73c45 	stb	r2,-25359(gp)
      if(g100){
  801ea0:	d0a73c43 	ldbu	r2,-25359(gp)
  801ea4:	10803fcc 	andi	r2,r2,255
  801ea8:	1080201c 	xori	r2,r2,128
  801eac:	10bfe004 	addi	r2,r2,-128
  801eb0:	1005003a 	cmpeq	r2,r2,zero
  801eb4:	1000021e 	bne	r2,zero,801ec0 <tick+0x1c28>
         APace =(APace||1);
  801eb8:	00800044 	movi	r2,1
  801ebc:	d0a72245 	stb	r2,-25463(gp)
      }
      g95 =(g94||g100||(g98&&(!(_cg98))));
  801ec0:	d0a73a03 	ldbu	r2,-25368(gp)
  801ec4:	10803fcc 	andi	r2,r2,255
  801ec8:	1080201c 	xori	r2,r2,128
  801ecc:	10bfe004 	addi	r2,r2,-128
  801ed0:	1004c03a 	cmpne	r2,r2,zero
  801ed4:	1000121e 	bne	r2,zero,801f20 <tick+0x1c88>
  801ed8:	d0a73c43 	ldbu	r2,-25359(gp)
  801edc:	10803fcc 	andi	r2,r2,255
  801ee0:	1080201c 	xori	r2,r2,128
  801ee4:	10bfe004 	addi	r2,r2,-128
  801ee8:	1004c03a 	cmpne	r2,r2,zero
  801eec:	10000c1e 	bne	r2,zero,801f20 <tick+0x1c88>
  801ef0:	d0a74b83 	ldbu	r2,-25298(gp)
  801ef4:	10803fcc 	andi	r2,r2,255
  801ef8:	1080201c 	xori	r2,r2,128
  801efc:	10bfe004 	addi	r2,r2,-128
  801f00:	1005003a 	cmpeq	r2,r2,zero
  801f04:	1000091e 	bne	r2,zero,801f2c <tick+0x1c94>
  801f08:	d0a72e83 	ldbu	r2,-25414(gp)
  801f0c:	10803fcc 	andi	r2,r2,255
  801f10:	1080201c 	xori	r2,r2,128
  801f14:	10bfe004 	addi	r2,r2,-128
  801f18:	1004c03a 	cmpne	r2,r2,zero
  801f1c:	1000031e 	bne	r2,zero,801f2c <tick+0x1c94>
  801f20:	00800044 	movi	r2,1
  801f24:	e0bfc715 	stw	r2,-228(fp)
  801f28:	00000106 	br	801f30 <tick+0x1c98>
  801f2c:	e03fc715 	stw	zero,-228(fp)
  801f30:	e0ffc717 	ldw	r3,-228(fp)
  801f34:	1805883a 	mov	r2,r3
  801f38:	d0a74845 	stb	r2,-25311(gp)
      g15_e1 =(!((g4||g7||g9||g12)));
  801f3c:	d0a722c3 	ldbu	r2,-25461(gp)
  801f40:	10803fcc 	andi	r2,r2,255
  801f44:	1080201c 	xori	r2,r2,128
  801f48:	10bfe004 	addi	r2,r2,-128
  801f4c:	1004c03a 	cmpne	r2,r2,zero
  801f50:	1000151e 	bne	r2,zero,801fa8 <tick+0x1d10>
  801f54:	d0a73b03 	ldbu	r2,-25364(gp)
  801f58:	10803fcc 	andi	r2,r2,255
  801f5c:	1080201c 	xori	r2,r2,128
  801f60:	10bfe004 	addi	r2,r2,-128
  801f64:	1004c03a 	cmpne	r2,r2,zero
  801f68:	10000f1e 	bne	r2,zero,801fa8 <tick+0x1d10>
  801f6c:	d0a72783 	ldbu	r2,-25442(gp)
  801f70:	10803fcc 	andi	r2,r2,255
  801f74:	1080201c 	xori	r2,r2,128
  801f78:	10bfe004 	addi	r2,r2,-128
  801f7c:	1004c03a 	cmpne	r2,r2,zero
  801f80:	1000091e 	bne	r2,zero,801fa8 <tick+0x1d10>
  801f84:	d0a72ec3 	ldbu	r2,-25413(gp)
  801f88:	10803fcc 	andi	r2,r2,255
  801f8c:	1080201c 	xori	r2,r2,128
  801f90:	10bfe004 	addi	r2,r2,-128
  801f94:	1004c03a 	cmpne	r2,r2,zero
  801f98:	1000031e 	bne	r2,zero,801fa8 <tick+0x1d10>
  801f9c:	00800044 	movi	r2,1
  801fa0:	e0bfc615 	stw	r2,-232(fp)
  801fa4:	00000106 	br	801fac <tick+0x1d14>
  801fa8:	e03fc615 	stw	zero,-232(fp)
  801fac:	e0ffc617 	ldw	r3,-232(fp)
  801fb0:	1805883a 	mov	r2,r3
  801fb4:	d0a75505 	stb	r2,-25260(gp)
      g23_e2 =(!((g18||g20)));
  801fb8:	d0a733c3 	ldbu	r2,-25393(gp)
  801fbc:	10803fcc 	andi	r2,r2,255
  801fc0:	1080201c 	xori	r2,r2,128
  801fc4:	10bfe004 	addi	r2,r2,-128
  801fc8:	1004c03a 	cmpne	r2,r2,zero
  801fcc:	1000091e 	bne	r2,zero,801ff4 <tick+0x1d5c>
  801fd0:	d0a74483 	ldbu	r2,-25326(gp)
  801fd4:	10803fcc 	andi	r2,r2,255
  801fd8:	1080201c 	xori	r2,r2,128
  801fdc:	10bfe004 	addi	r2,r2,-128
  801fe0:	1004c03a 	cmpne	r2,r2,zero
  801fe4:	1000031e 	bne	r2,zero,801ff4 <tick+0x1d5c>
  801fe8:	00800044 	movi	r2,1
  801fec:	e0bfc515 	stw	r2,-236(fp)
  801ff0:	00000106 	br	801ff8 <tick+0x1d60>
  801ff4:	e03fc515 	stw	zero,-236(fp)
  801ff8:	e0ffc517 	ldw	r3,-236(fp)
  801ffc:	1805883a 	mov	r2,r3
  802000:	d0a75cc5 	stb	r2,-25229(gp)
      g32_e3 =(!((g26||g29)));
  802004:	d0a75c83 	ldbu	r2,-25230(gp)
  802008:	10803fcc 	andi	r2,r2,255
  80200c:	1080201c 	xori	r2,r2,128
  802010:	10bfe004 	addi	r2,r2,-128
  802014:	1004c03a 	cmpne	r2,r2,zero
  802018:	1000091e 	bne	r2,zero,802040 <tick+0x1da8>
  80201c:	d0a75943 	ldbu	r2,-25243(gp)
  802020:	10803fcc 	andi	r2,r2,255
  802024:	1080201c 	xori	r2,r2,128
  802028:	10bfe004 	addi	r2,r2,-128
  80202c:	1004c03a 	cmpne	r2,r2,zero
  802030:	1000031e 	bne	r2,zero,802040 <tick+0x1da8>
  802034:	00800044 	movi	r2,1
  802038:	e0bfc415 	stw	r2,-240(fp)
  80203c:	00000106 	br	802044 <tick+0x1dac>
  802040:	e03fc415 	stw	zero,-240(fp)
  802044:	e0ffc417 	ldw	r3,-240(fp)
  802048:	1805883a 	mov	r2,r3
  80204c:	d0a74285 	stb	r2,-25334(gp)
      g39_e4 =(!((g35||g37)));
  802050:	d0a74243 	ldbu	r2,-25335(gp)
  802054:	10803fcc 	andi	r2,r2,255
  802058:	1080201c 	xori	r2,r2,128
  80205c:	10bfe004 	addi	r2,r2,-128
  802060:	1004c03a 	cmpne	r2,r2,zero
  802064:	1000091e 	bne	r2,zero,80208c <tick+0x1df4>
  802068:	d0a73103 	ldbu	r2,-25404(gp)
  80206c:	10803fcc 	andi	r2,r2,255
  802070:	1080201c 	xori	r2,r2,128
  802074:	10bfe004 	addi	r2,r2,-128
  802078:	1004c03a 	cmpne	r2,r2,zero
  80207c:	1000031e 	bne	r2,zero,80208c <tick+0x1df4>
  802080:	00800044 	movi	r2,1
  802084:	e0bfc315 	stw	r2,-244(fp)
  802088:	00000106 	br	802090 <tick+0x1df8>
  80208c:	e03fc315 	stw	zero,-244(fp)
  802090:	e0ffc317 	ldw	r3,-244(fp)
  802094:	1805883a 	mov	r2,r3
  802098:	d0a738c5 	stb	r2,-25373(gp)
      g54_e5 =(!((g42||g45||g48||g50)));
  80209c:	d0a72743 	ldbu	r2,-25443(gp)
  8020a0:	10803fcc 	andi	r2,r2,255
  8020a4:	1080201c 	xori	r2,r2,128
  8020a8:	10bfe004 	addi	r2,r2,-128
  8020ac:	1004c03a 	cmpne	r2,r2,zero
  8020b0:	1000151e 	bne	r2,zero,802108 <tick+0x1e70>
  8020b4:	d0a75683 	ldbu	r2,-25254(gp)
  8020b8:	10803fcc 	andi	r2,r2,255
  8020bc:	1080201c 	xori	r2,r2,128
  8020c0:	10bfe004 	addi	r2,r2,-128
  8020c4:	1004c03a 	cmpne	r2,r2,zero
  8020c8:	10000f1e 	bne	r2,zero,802108 <tick+0x1e70>
  8020cc:	d0a73543 	ldbu	r2,-25387(gp)
  8020d0:	10803fcc 	andi	r2,r2,255
  8020d4:	1080201c 	xori	r2,r2,128
  8020d8:	10bfe004 	addi	r2,r2,-128
  8020dc:	1004c03a 	cmpne	r2,r2,zero
  8020e0:	1000091e 	bne	r2,zero,802108 <tick+0x1e70>
  8020e4:	d0a74883 	ldbu	r2,-25310(gp)
  8020e8:	10803fcc 	andi	r2,r2,255
  8020ec:	1080201c 	xori	r2,r2,128
  8020f0:	10bfe004 	addi	r2,r2,-128
  8020f4:	1004c03a 	cmpne	r2,r2,zero
  8020f8:	1000031e 	bne	r2,zero,802108 <tick+0x1e70>
  8020fc:	00800044 	movi	r2,1
  802100:	e0bfc215 	stw	r2,-248(fp)
  802104:	00000106 	br	80210c <tick+0x1e74>
  802108:	e03fc215 	stw	zero,-248(fp)
  80210c:	e0ffc217 	ldw	r3,-248(fp)
  802110:	1805883a 	mov	r2,r3
  802114:	d0a74a05 	stb	r2,-25304(gp)
      g62_e6 =(!((g57||g59)));
  802118:	d0a74c43 	ldbu	r2,-25295(gp)
  80211c:	10803fcc 	andi	r2,r2,255
  802120:	1080201c 	xori	r2,r2,128
  802124:	10bfe004 	addi	r2,r2,-128
  802128:	1004c03a 	cmpne	r2,r2,zero
  80212c:	1000091e 	bne	r2,zero,802154 <tick+0x1ebc>
  802130:	d0a73c83 	ldbu	r2,-25358(gp)
  802134:	10803fcc 	andi	r2,r2,255
  802138:	1080201c 	xori	r2,r2,128
  80213c:	10bfe004 	addi	r2,r2,-128
  802140:	1004c03a 	cmpne	r2,r2,zero
  802144:	1000031e 	bne	r2,zero,802154 <tick+0x1ebc>
  802148:	00800044 	movi	r2,1
  80214c:	e0bfc115 	stw	r2,-252(fp)
  802150:	00000106 	br	802158 <tick+0x1ec0>
  802154:	e03fc115 	stw	zero,-252(fp)
  802158:	e0ffc117 	ldw	r3,-252(fp)
  80215c:	1805883a 	mov	r2,r3
  802160:	d0a74045 	stb	r2,-25343(gp)
      g69_e7 =(!((g65||g67)));
  802164:	d0a753c3 	ldbu	r2,-25265(gp)
  802168:	10803fcc 	andi	r2,r2,255
  80216c:	1080201c 	xori	r2,r2,128
  802170:	10bfe004 	addi	r2,r2,-128
  802174:	1004c03a 	cmpne	r2,r2,zero
  802178:	1000091e 	bne	r2,zero,8021a0 <tick+0x1f08>
  80217c:	d0a75983 	ldbu	r2,-25242(gp)
  802180:	10803fcc 	andi	r2,r2,255
  802184:	1080201c 	xori	r2,r2,128
  802188:	10bfe004 	addi	r2,r2,-128
  80218c:	1004c03a 	cmpne	r2,r2,zero
  802190:	1000031e 	bne	r2,zero,8021a0 <tick+0x1f08>
  802194:	00800044 	movi	r2,1
  802198:	e0bfc015 	stw	r2,-256(fp)
  80219c:	00000106 	br	8021a4 <tick+0x1f0c>
  8021a0:	e03fc015 	stw	zero,-256(fp)
  8021a4:	e0ffc017 	ldw	r3,-256(fp)
  8021a8:	1805883a 	mov	r2,r3
  8021ac:	d0a75445 	stb	r2,-25263(gp)
      g77_e8 =(!((g72||g75)));
  8021b0:	d0a74e43 	ldbu	r2,-25287(gp)
  8021b4:	10803fcc 	andi	r2,r2,255
  8021b8:	1080201c 	xori	r2,r2,128
  8021bc:	10bfe004 	addi	r2,r2,-128
  8021c0:	1004c03a 	cmpne	r2,r2,zero
  8021c4:	1000091e 	bne	r2,zero,8021ec <tick+0x1f54>
  8021c8:	d0a75083 	ldbu	r2,-25278(gp)
  8021cc:	10803fcc 	andi	r2,r2,255
  8021d0:	1080201c 	xori	r2,r2,128
  8021d4:	10bfe004 	addi	r2,r2,-128
  8021d8:	1004c03a 	cmpne	r2,r2,zero
  8021dc:	1000031e 	bne	r2,zero,8021ec <tick+0x1f54>
  8021e0:	00800044 	movi	r2,1
  8021e4:	e0bfbf15 	stw	r2,-260(fp)
  8021e8:	00000106 	br	8021f0 <tick+0x1f58>
  8021ec:	e03fbf15 	stw	zero,-260(fp)
  8021f0:	e0ffbf17 	ldw	r3,-260(fp)
  8021f4:	1805883a 	mov	r2,r3
  8021f8:	d0a75805 	stb	r2,-25248(gp)
      g85_e9 =(!((g80||g82)));
  8021fc:	d0a73bc3 	ldbu	r2,-25361(gp)
  802200:	10803fcc 	andi	r2,r2,255
  802204:	1080201c 	xori	r2,r2,128
  802208:	10bfe004 	addi	r2,r2,-128
  80220c:	1004c03a 	cmpne	r2,r2,zero
  802210:	1000091e 	bne	r2,zero,802238 <tick+0x1fa0>
  802214:	d0a72e43 	ldbu	r2,-25415(gp)
  802218:	10803fcc 	andi	r2,r2,255
  80221c:	1080201c 	xori	r2,r2,128
  802220:	10bfe004 	addi	r2,r2,-128
  802224:	1004c03a 	cmpne	r2,r2,zero
  802228:	1000031e 	bne	r2,zero,802238 <tick+0x1fa0>
  80222c:	00800044 	movi	r2,1
  802230:	e0bfbe15 	stw	r2,-264(fp)
  802234:	00000106 	br	80223c <tick+0x1fa4>
  802238:	e03fbe15 	stw	zero,-264(fp)
  80223c:	e0ffbe17 	ldw	r3,-264(fp)
  802240:	1805883a 	mov	r2,r3
  802244:	d0a72c85 	stb	r2,-25422(gp)
      g102_e10 =(!((g88||g91||g93||g96)));
  802248:	d0a75643 	ldbu	r2,-25255(gp)
  80224c:	10803fcc 	andi	r2,r2,255
  802250:	1080201c 	xori	r2,r2,128
  802254:	10bfe004 	addi	r2,r2,-128
  802258:	1004c03a 	cmpne	r2,r2,zero
  80225c:	1000151e 	bne	r2,zero,8022b4 <tick+0x201c>
  802260:	d0a72203 	ldbu	r2,-25464(gp)
  802264:	10803fcc 	andi	r2,r2,255
  802268:	1080201c 	xori	r2,r2,128
  80226c:	10bfe004 	addi	r2,r2,-128
  802270:	1004c03a 	cmpne	r2,r2,zero
  802274:	10000f1e 	bne	r2,zero,8022b4 <tick+0x201c>
  802278:	d0a74583 	ldbu	r2,-25322(gp)
  80227c:	10803fcc 	andi	r2,r2,255
  802280:	1080201c 	xori	r2,r2,128
  802284:	10bfe004 	addi	r2,r2,-128
  802288:	1004c03a 	cmpne	r2,r2,zero
  80228c:	1000091e 	bne	r2,zero,8022b4 <tick+0x201c>
  802290:	d0a748c3 	ldbu	r2,-25309(gp)
  802294:	10803fcc 	andi	r2,r2,255
  802298:	1080201c 	xori	r2,r2,128
  80229c:	10bfe004 	addi	r2,r2,-128
  8022a0:	1004c03a 	cmpne	r2,r2,zero
  8022a4:	1000031e 	bne	r2,zero,8022b4 <tick+0x201c>
  8022a8:	00800044 	movi	r2,1
  8022ac:	e0bfbd15 	stw	r2,-268(fp)
  8022b0:	00000106 	br	8022b8 <tick+0x2020>
  8022b4:	e03fbd15 	stw	zero,-268(fp)
  8022b8:	e0ffbd17 	ldw	r3,-268(fp)
  8022bc:	1805883a 	mov	r2,r3
  8022c0:	d0a73905 	stb	r2,-25372(gp)
      g106_e11 =(!(g105));
  8022c4:	d0a735c3 	ldbu	r2,-25385(gp)
  8022c8:	10803fcc 	andi	r2,r2,255
  8022cc:	1080201c 	xori	r2,r2,128
  8022d0:	10bfe004 	addi	r2,r2,-128
  8022d4:	1005003a 	cmpeq	r2,r2,zero
  8022d8:	d0a75785 	stb	r2,-25250(gp)
      g107_fix0 =((g15_e1||g15)&&(g23_e2||g23)&&(g32_e3||g32)&&(g39_e4||g39));
  8022dc:	d0a75503 	ldbu	r2,-25260(gp)
  8022e0:	10803fcc 	andi	r2,r2,255
  8022e4:	1080201c 	xori	r2,r2,128
  8022e8:	10bfe004 	addi	r2,r2,-128
  8022ec:	1004c03a 	cmpne	r2,r2,zero
  8022f0:	1000061e 	bne	r2,zero,80230c <tick+0x2074>
  8022f4:	d0a742c3 	ldbu	r2,-25333(gp)
  8022f8:	10803fcc 	andi	r2,r2,255
  8022fc:	1080201c 	xori	r2,r2,128
  802300:	10bfe004 	addi	r2,r2,-128
  802304:	1005003a 	cmpeq	r2,r2,zero
  802308:	1000271e 	bne	r2,zero,8023a8 <tick+0x2110>
  80230c:	d0a75cc3 	ldbu	r2,-25229(gp)
  802310:	10803fcc 	andi	r2,r2,255
  802314:	1080201c 	xori	r2,r2,128
  802318:	10bfe004 	addi	r2,r2,-128
  80231c:	1004c03a 	cmpne	r2,r2,zero
  802320:	1000061e 	bne	r2,zero,80233c <tick+0x20a4>
  802324:	d0a73d43 	ldbu	r2,-25355(gp)
  802328:	10803fcc 	andi	r2,r2,255
  80232c:	1080201c 	xori	r2,r2,128
  802330:	10bfe004 	addi	r2,r2,-128
  802334:	1005003a 	cmpeq	r2,r2,zero
  802338:	10001b1e 	bne	r2,zero,8023a8 <tick+0x2110>
  80233c:	d0a74283 	ldbu	r2,-25334(gp)
  802340:	10803fcc 	andi	r2,r2,255
  802344:	1080201c 	xori	r2,r2,128
  802348:	10bfe004 	addi	r2,r2,-128
  80234c:	1004c03a 	cmpne	r2,r2,zero
  802350:	1000061e 	bne	r2,zero,80236c <tick+0x20d4>
  802354:	d0a75583 	ldbu	r2,-25258(gp)
  802358:	10803fcc 	andi	r2,r2,255
  80235c:	1080201c 	xori	r2,r2,128
  802360:	10bfe004 	addi	r2,r2,-128
  802364:	1005003a 	cmpeq	r2,r2,zero
  802368:	10000f1e 	bne	r2,zero,8023a8 <tick+0x2110>
  80236c:	d0a738c3 	ldbu	r2,-25373(gp)
  802370:	10803fcc 	andi	r2,r2,255
  802374:	1080201c 	xori	r2,r2,128
  802378:	10bfe004 	addi	r2,r2,-128
  80237c:	1004c03a 	cmpne	r2,r2,zero
  802380:	1000061e 	bne	r2,zero,80239c <tick+0x2104>
  802384:	d0a758c3 	ldbu	r2,-25245(gp)
  802388:	10803fcc 	andi	r2,r2,255
  80238c:	1080201c 	xori	r2,r2,128
  802390:	10bfe004 	addi	r2,r2,-128
  802394:	1005003a 	cmpeq	r2,r2,zero
  802398:	1000031e 	bne	r2,zero,8023a8 <tick+0x2110>
  80239c:	00800044 	movi	r2,1
  8023a0:	e0bfbc15 	stw	r2,-272(fp)
  8023a4:	00000106 	br	8023ac <tick+0x2114>
  8023a8:	e03fbc15 	stw	zero,-272(fp)
  8023ac:	e0ffbc17 	ldw	r3,-272(fp)
  8023b0:	1805883a 	mov	r2,r3
  8023b4:	d0a723c5 	stb	r2,-25457(gp)
      g107_fix1 =(g107_fix0&&(g54_e5||g54)&&(g62_e6||g62)&&(g69_e7||g69));
  8023b8:	d0a723c3 	ldbu	r2,-25457(gp)
  8023bc:	10803fcc 	andi	r2,r2,255
  8023c0:	1080201c 	xori	r2,r2,128
  8023c4:	10bfe004 	addi	r2,r2,-128
  8023c8:	1005003a 	cmpeq	r2,r2,zero
  8023cc:	1000271e 	bne	r2,zero,80246c <tick+0x21d4>
  8023d0:	d0a74a03 	ldbu	r2,-25304(gp)
  8023d4:	10803fcc 	andi	r2,r2,255
  8023d8:	1080201c 	xori	r2,r2,128
  8023dc:	10bfe004 	addi	r2,r2,-128
  8023e0:	1004c03a 	cmpne	r2,r2,zero
  8023e4:	1000061e 	bne	r2,zero,802400 <tick+0x2168>
  8023e8:	d0a73cc3 	ldbu	r2,-25357(gp)
  8023ec:	10803fcc 	andi	r2,r2,255
  8023f0:	1080201c 	xori	r2,r2,128
  8023f4:	10bfe004 	addi	r2,r2,-128
  8023f8:	1005003a 	cmpeq	r2,r2,zero
  8023fc:	10001b1e 	bne	r2,zero,80246c <tick+0x21d4>
  802400:	d0a74043 	ldbu	r2,-25343(gp)
  802404:	10803fcc 	andi	r2,r2,255
  802408:	1080201c 	xori	r2,r2,128
  80240c:	10bfe004 	addi	r2,r2,-128
  802410:	1004c03a 	cmpne	r2,r2,zero
  802414:	1000061e 	bne	r2,zero,802430 <tick+0x2198>
  802418:	d0a73143 	ldbu	r2,-25403(gp)
  80241c:	10803fcc 	andi	r2,r2,255
  802420:	1080201c 	xori	r2,r2,128
  802424:	10bfe004 	addi	r2,r2,-128
  802428:	1005003a 	cmpeq	r2,r2,zero
  80242c:	10000f1e 	bne	r2,zero,80246c <tick+0x21d4>
  802430:	d0a75443 	ldbu	r2,-25263(gp)
  802434:	10803fcc 	andi	r2,r2,255
  802438:	1080201c 	xori	r2,r2,128
  80243c:	10bfe004 	addi	r2,r2,-128
  802440:	1004c03a 	cmpne	r2,r2,zero
  802444:	1000061e 	bne	r2,zero,802460 <tick+0x21c8>
  802448:	d0a75c43 	ldbu	r2,-25231(gp)
  80244c:	10803fcc 	andi	r2,r2,255
  802450:	1080201c 	xori	r2,r2,128
  802454:	10bfe004 	addi	r2,r2,-128
  802458:	1005003a 	cmpeq	r2,r2,zero
  80245c:	1000031e 	bne	r2,zero,80246c <tick+0x21d4>
  802460:	00800044 	movi	r2,1
  802464:	e0bfbb15 	stw	r2,-276(fp)
  802468:	00000106 	br	802470 <tick+0x21d8>
  80246c:	e03fbb15 	stw	zero,-276(fp)
  802470:	e0ffbb17 	ldw	r3,-276(fp)
  802474:	1805883a 	mov	r2,r3
  802478:	d0a73705 	stb	r2,-25380(gp)
      g107_fix2 =(g15||g23||g32||g39);
  80247c:	d0a742c3 	ldbu	r2,-25333(gp)
  802480:	10803fcc 	andi	r2,r2,255
  802484:	1080201c 	xori	r2,r2,128
  802488:	10bfe004 	addi	r2,r2,-128
  80248c:	1004c03a 	cmpne	r2,r2,zero
  802490:	1000121e 	bne	r2,zero,8024dc <tick+0x2244>
  802494:	d0a73d43 	ldbu	r2,-25355(gp)
  802498:	10803fcc 	andi	r2,r2,255
  80249c:	1080201c 	xori	r2,r2,128
  8024a0:	10bfe004 	addi	r2,r2,-128
  8024a4:	1004c03a 	cmpne	r2,r2,zero
  8024a8:	10000c1e 	bne	r2,zero,8024dc <tick+0x2244>
  8024ac:	d0a75583 	ldbu	r2,-25258(gp)
  8024b0:	10803fcc 	andi	r2,r2,255
  8024b4:	1080201c 	xori	r2,r2,128
  8024b8:	10bfe004 	addi	r2,r2,-128
  8024bc:	1004c03a 	cmpne	r2,r2,zero
  8024c0:	1000061e 	bne	r2,zero,8024dc <tick+0x2244>
  8024c4:	d0a758c3 	ldbu	r2,-25245(gp)
  8024c8:	10803fcc 	andi	r2,r2,255
  8024cc:	1080201c 	xori	r2,r2,128
  8024d0:	10bfe004 	addi	r2,r2,-128
  8024d4:	1005003a 	cmpeq	r2,r2,zero
  8024d8:	1000031e 	bne	r2,zero,8024e8 <tick+0x2250>
  8024dc:	00800044 	movi	r2,1
  8024e0:	e0bfba15 	stw	r2,-280(fp)
  8024e4:	00000106 	br	8024ec <tick+0x2254>
  8024e8:	e03fba15 	stw	zero,-280(fp)
  8024ec:	e0ffba17 	ldw	r3,-280(fp)
  8024f0:	1805883a 	mov	r2,r3
  8024f4:	d0a74a45 	stb	r2,-25303(gp)
      g107_e1_fix_fix =(g29||g45||g75||g91||g9||g93||g48||g50||g12);
  8024f8:	d0a75943 	ldbu	r2,-25243(gp)
  8024fc:	10803fcc 	andi	r2,r2,255
  802500:	1080201c 	xori	r2,r2,128
  802504:	10bfe004 	addi	r2,r2,-128
  802508:	1004c03a 	cmpne	r2,r2,zero
  80250c:	1000301e 	bne	r2,zero,8025d0 <tick+0x2338>
  802510:	d0a75683 	ldbu	r2,-25254(gp)
  802514:	10803fcc 	andi	r2,r2,255
  802518:	1080201c 	xori	r2,r2,128
  80251c:	10bfe004 	addi	r2,r2,-128
  802520:	1004c03a 	cmpne	r2,r2,zero
  802524:	10002a1e 	bne	r2,zero,8025d0 <tick+0x2338>
  802528:	d0a75083 	ldbu	r2,-25278(gp)
  80252c:	10803fcc 	andi	r2,r2,255
  802530:	1080201c 	xori	r2,r2,128
  802534:	10bfe004 	addi	r2,r2,-128
  802538:	1004c03a 	cmpne	r2,r2,zero
  80253c:	1000241e 	bne	r2,zero,8025d0 <tick+0x2338>
  802540:	d0a72203 	ldbu	r2,-25464(gp)
  802544:	10803fcc 	andi	r2,r2,255
  802548:	1080201c 	xori	r2,r2,128
  80254c:	10bfe004 	addi	r2,r2,-128
  802550:	1004c03a 	cmpne	r2,r2,zero
  802554:	10001e1e 	bne	r2,zero,8025d0 <tick+0x2338>
  802558:	d0a72783 	ldbu	r2,-25442(gp)
  80255c:	10803fcc 	andi	r2,r2,255
  802560:	1080201c 	xori	r2,r2,128
  802564:	10bfe004 	addi	r2,r2,-128
  802568:	1004c03a 	cmpne	r2,r2,zero
  80256c:	1000181e 	bne	r2,zero,8025d0 <tick+0x2338>
  802570:	d0a74583 	ldbu	r2,-25322(gp)
  802574:	10803fcc 	andi	r2,r2,255
  802578:	1080201c 	xori	r2,r2,128
  80257c:	10bfe004 	addi	r2,r2,-128
  802580:	1004c03a 	cmpne	r2,r2,zero
  802584:	1000121e 	bne	r2,zero,8025d0 <tick+0x2338>
  802588:	d0a73543 	ldbu	r2,-25387(gp)
  80258c:	10803fcc 	andi	r2,r2,255
  802590:	1080201c 	xori	r2,r2,128
  802594:	10bfe004 	addi	r2,r2,-128
  802598:	1004c03a 	cmpne	r2,r2,zero
  80259c:	10000c1e 	bne	r2,zero,8025d0 <tick+0x2338>
  8025a0:	d0a74883 	ldbu	r2,-25310(gp)
  8025a4:	10803fcc 	andi	r2,r2,255
  8025a8:	1080201c 	xori	r2,r2,128
  8025ac:	10bfe004 	addi	r2,r2,-128
  8025b0:	1004c03a 	cmpne	r2,r2,zero
  8025b4:	1000061e 	bne	r2,zero,8025d0 <tick+0x2338>
  8025b8:	d0a72ec3 	ldbu	r2,-25413(gp)
  8025bc:	10803fcc 	andi	r2,r2,255
  8025c0:	1080201c 	xori	r2,r2,128
  8025c4:	10bfe004 	addi	r2,r2,-128
  8025c8:	1005003a 	cmpeq	r2,r2,zero
  8025cc:	1000031e 	bne	r2,zero,8025dc <tick+0x2344>
  8025d0:	00800044 	movi	r2,1
  8025d4:	e0bfb915 	stw	r2,-284(fp)
  8025d8:	00000106 	br	8025e0 <tick+0x2348>
  8025dc:	e03fb915 	stw	zero,-284(fp)
  8025e0:	e0ffb917 	ldw	r3,-284(fp)
  8025e4:	1805883a 	mov	r2,r3
  8025e8:	d0a73e45 	stb	r2,-25351(gp)
      g107_e1_fix =(g80||g88||g20||g37||g59||g67||g82||g7||g96||g107_e1_fix_fix);
  8025ec:	d0a73bc3 	ldbu	r2,-25361(gp)
  8025f0:	10803fcc 	andi	r2,r2,255
  8025f4:	1080201c 	xori	r2,r2,128
  8025f8:	10bfe004 	addi	r2,r2,-128
  8025fc:	1004c03a 	cmpne	r2,r2,zero
  802600:	1000361e 	bne	r2,zero,8026dc <tick+0x2444>
  802604:	d0a75643 	ldbu	r2,-25255(gp)
  802608:	10803fcc 	andi	r2,r2,255
  80260c:	1080201c 	xori	r2,r2,128
  802610:	10bfe004 	addi	r2,r2,-128
  802614:	1004c03a 	cmpne	r2,r2,zero
  802618:	1000301e 	bne	r2,zero,8026dc <tick+0x2444>
  80261c:	d0a74483 	ldbu	r2,-25326(gp)
  802620:	10803fcc 	andi	r2,r2,255
  802624:	1080201c 	xori	r2,r2,128
  802628:	10bfe004 	addi	r2,r2,-128
  80262c:	1004c03a 	cmpne	r2,r2,zero
  802630:	10002a1e 	bne	r2,zero,8026dc <tick+0x2444>
  802634:	d0a73103 	ldbu	r2,-25404(gp)
  802638:	10803fcc 	andi	r2,r2,255
  80263c:	1080201c 	xori	r2,r2,128
  802640:	10bfe004 	addi	r2,r2,-128
  802644:	1004c03a 	cmpne	r2,r2,zero
  802648:	1000241e 	bne	r2,zero,8026dc <tick+0x2444>
  80264c:	d0a73c83 	ldbu	r2,-25358(gp)
  802650:	10803fcc 	andi	r2,r2,255
  802654:	1080201c 	xori	r2,r2,128
  802658:	10bfe004 	addi	r2,r2,-128
  80265c:	1004c03a 	cmpne	r2,r2,zero
  802660:	10001e1e 	bne	r2,zero,8026dc <tick+0x2444>
  802664:	d0a75983 	ldbu	r2,-25242(gp)
  802668:	10803fcc 	andi	r2,r2,255
  80266c:	1080201c 	xori	r2,r2,128
  802670:	10bfe004 	addi	r2,r2,-128
  802674:	1004c03a 	cmpne	r2,r2,zero
  802678:	1000181e 	bne	r2,zero,8026dc <tick+0x2444>
  80267c:	d0a72e43 	ldbu	r2,-25415(gp)
  802680:	10803fcc 	andi	r2,r2,255
  802684:	1080201c 	xori	r2,r2,128
  802688:	10bfe004 	addi	r2,r2,-128
  80268c:	1004c03a 	cmpne	r2,r2,zero
  802690:	1000121e 	bne	r2,zero,8026dc <tick+0x2444>
  802694:	d0a73b03 	ldbu	r2,-25364(gp)
  802698:	10803fcc 	andi	r2,r2,255
  80269c:	1080201c 	xori	r2,r2,128
  8026a0:	10bfe004 	addi	r2,r2,-128
  8026a4:	1004c03a 	cmpne	r2,r2,zero
  8026a8:	10000c1e 	bne	r2,zero,8026dc <tick+0x2444>
  8026ac:	d0a748c3 	ldbu	r2,-25309(gp)
  8026b0:	10803fcc 	andi	r2,r2,255
  8026b4:	1080201c 	xori	r2,r2,128
  8026b8:	10bfe004 	addi	r2,r2,-128
  8026bc:	1004c03a 	cmpne	r2,r2,zero
  8026c0:	1000061e 	bne	r2,zero,8026dc <tick+0x2444>
  8026c4:	d0a73e43 	ldbu	r2,-25351(gp)
  8026c8:	10803fcc 	andi	r2,r2,255
  8026cc:	1080201c 	xori	r2,r2,128
  8026d0:	10bfe004 	addi	r2,r2,-128
  8026d4:	1005003a 	cmpeq	r2,r2,zero
  8026d8:	1000031e 	bne	r2,zero,8026e8 <tick+0x2450>
  8026dc:	00800044 	movi	r2,1
  8026e0:	e0bfb815 	stw	r2,-288(fp)
  8026e4:	00000106 	br	8026ec <tick+0x2454>
  8026e8:	e03fb815 	stw	zero,-288(fp)
  8026ec:	e0ffb817 	ldw	r3,-288(fp)
  8026f0:	1805883a 	mov	r2,r3
  8026f4:	d0a74605 	stb	r2,-25320(gp)
      g107_e1 =(!((g4||g18||g26||g35||g42||g57||g65||g72||g105||g107_e1_fix)));
  8026f8:	d0a722c3 	ldbu	r2,-25461(gp)
  8026fc:	10803fcc 	andi	r2,r2,255
  802700:	1080201c 	xori	r2,r2,128
  802704:	10bfe004 	addi	r2,r2,-128
  802708:	1004c03a 	cmpne	r2,r2,zero
  80270c:	1000391e 	bne	r2,zero,8027f4 <tick+0x255c>
  802710:	d0a733c3 	ldbu	r2,-25393(gp)
  802714:	10803fcc 	andi	r2,r2,255
  802718:	1080201c 	xori	r2,r2,128
  80271c:	10bfe004 	addi	r2,r2,-128
  802720:	1004c03a 	cmpne	r2,r2,zero
  802724:	1000331e 	bne	r2,zero,8027f4 <tick+0x255c>
  802728:	d0a75c83 	ldbu	r2,-25230(gp)
  80272c:	10803fcc 	andi	r2,r2,255
  802730:	1080201c 	xori	r2,r2,128
  802734:	10bfe004 	addi	r2,r2,-128
  802738:	1004c03a 	cmpne	r2,r2,zero
  80273c:	10002d1e 	bne	r2,zero,8027f4 <tick+0x255c>
  802740:	d0a74243 	ldbu	r2,-25335(gp)
  802744:	10803fcc 	andi	r2,r2,255
  802748:	1080201c 	xori	r2,r2,128
  80274c:	10bfe004 	addi	r2,r2,-128
  802750:	1004c03a 	cmpne	r2,r2,zero
  802754:	1000271e 	bne	r2,zero,8027f4 <tick+0x255c>
  802758:	d0a72743 	ldbu	r2,-25443(gp)
  80275c:	10803fcc 	andi	r2,r2,255
  802760:	1080201c 	xori	r2,r2,128
  802764:	10bfe004 	addi	r2,r2,-128
  802768:	1004c03a 	cmpne	r2,r2,zero
  80276c:	1000211e 	bne	r2,zero,8027f4 <tick+0x255c>
  802770:	d0a74c43 	ldbu	r2,-25295(gp)
  802774:	10803fcc 	andi	r2,r2,255
  802778:	1080201c 	xori	r2,r2,128
  80277c:	10bfe004 	addi	r2,r2,-128
  802780:	1004c03a 	cmpne	r2,r2,zero
  802784:	10001b1e 	bne	r2,zero,8027f4 <tick+0x255c>
  802788:	d0a753c3 	ldbu	r2,-25265(gp)
  80278c:	10803fcc 	andi	r2,r2,255
  802790:	1080201c 	xori	r2,r2,128
  802794:	10bfe004 	addi	r2,r2,-128
  802798:	1004c03a 	cmpne	r2,r2,zero
  80279c:	1000151e 	bne	r2,zero,8027f4 <tick+0x255c>
  8027a0:	d0a74e43 	ldbu	r2,-25287(gp)
  8027a4:	10803fcc 	andi	r2,r2,255
  8027a8:	1080201c 	xori	r2,r2,128
  8027ac:	10bfe004 	addi	r2,r2,-128
  8027b0:	1004c03a 	cmpne	r2,r2,zero
  8027b4:	10000f1e 	bne	r2,zero,8027f4 <tick+0x255c>
  8027b8:	d0a735c3 	ldbu	r2,-25385(gp)
  8027bc:	10803fcc 	andi	r2,r2,255
  8027c0:	1080201c 	xori	r2,r2,128
  8027c4:	10bfe004 	addi	r2,r2,-128
  8027c8:	1004c03a 	cmpne	r2,r2,zero
  8027cc:	1000091e 	bne	r2,zero,8027f4 <tick+0x255c>
  8027d0:	d0a74603 	ldbu	r2,-25320(gp)
  8027d4:	10803fcc 	andi	r2,r2,255
  8027d8:	1080201c 	xori	r2,r2,128
  8027dc:	10bfe004 	addi	r2,r2,-128
  8027e0:	1004c03a 	cmpne	r2,r2,zero
  8027e4:	1000031e 	bne	r2,zero,8027f4 <tick+0x255c>
  8027e8:	00800044 	movi	r2,1
  8027ec:	e0bfb715 	stw	r2,-292(fp)
  8027f0:	00000106 	br	8027f8 <tick+0x2560>
  8027f4:	e03fb715 	stw	zero,-292(fp)
  8027f8:	e0ffb717 	ldw	r3,-292(fp)
  8027fc:	1805883a 	mov	r2,r3
  802800:	d0a73b85 	stb	r2,-25362(gp)
      g111_e2 =(!(g110));
  802804:	d0a73a43 	ldbu	r2,-25367(gp)
  802808:	10803fcc 	andi	r2,r2,255
  80280c:	1080201c 	xori	r2,r2,128
  802810:	10bfe004 	addi	r2,r2,-128
  802814:	1005003a 	cmpeq	r2,r2,zero
  802818:	d0a72585 	stb	r2,-25450(gp)
   }
   PRE_g3 = g3;
  80281c:	d0a72643 	ldbu	r2,-25447(gp)
  802820:	d0a72a45 	stb	r2,-25431(gp)
   PRE_g6 = g6;
  802824:	d0a74d83 	ldbu	r2,-25290(gp)
  802828:	d0a740c5 	stb	r2,-25341(gp)
   PRE_g8 = g8;
  80282c:	d0a74c03 	ldbu	r2,-25296(gp)
  802830:	d0a73305 	stb	r2,-25396(gp)
   PRE_g11 = g11;
  802834:	d0a75383 	ldbu	r2,-25266(gp)
  802838:	d0a74405 	stb	r2,-25328(gp)
   PRE_g17 = g17;
  80283c:	d0a73003 	ldbu	r2,-25408(gp)
  802840:	d0a73345 	stb	r2,-25395(gp)
   PRE_g19 = g19;
  802844:	d0a72343 	ldbu	r2,-25459(gp)
  802848:	d0a74545 	stb	r2,-25323(gp)
   PRE_g25 = g25;
  80284c:	d0a75303 	ldbu	r2,-25268(gp)
  802850:	d0a73c05 	stb	r2,-25360(gp)
   PRE_g28 = g28;
  802854:	d0a75483 	ldbu	r2,-25262(gp)
  802858:	d0a72dc5 	stb	r2,-25417(gp)
   PRE_g34 = g34;
  80285c:	d0a73983 	ldbu	r2,-25370(gp)
  802860:	d0a73045 	stb	r2,-25407(gp)
   PRE_g36 = g36;
  802864:	d0a74743 	ldbu	r2,-25315(gp)
  802868:	d0a73f45 	stb	r2,-25347(gp)
   PRE_g41 = g41;
  80286c:	d0a73203 	ldbu	r2,-25400(gp)
  802870:	d0a74b45 	stb	r2,-25299(gp)
   PRE_g44 = g44;
  802874:	d0a72bc3 	ldbu	r2,-25425(gp)
  802878:	d0a74c85 	stb	r2,-25294(gp)
   PRE_g47 = g47;
  80287c:	d0a726c3 	ldbu	r2,-25445(gp)
  802880:	d0a745c5 	stb	r2,-25321(gp)
   PRE_g49 = g49;
  802884:	d0a73a83 	ldbu	r2,-25366(gp)
  802888:	d0a732c5 	stb	r2,-25397(gp)
   PRE_g56 = g56;
  80288c:	d0a74003 	ldbu	r2,-25344(gp)
  802890:	d0a72b05 	stb	r2,-25428(gp)
   PRE_g58 = g58;
  802894:	d0a75203 	ldbu	r2,-25272(gp)
  802898:	d0a75105 	stb	r2,-25276(gp)
   PRE_g64 = g64;
  80289c:	d0a73843 	ldbu	r2,-25375(gp)
  8028a0:	d0a757c5 	stb	r2,-25249(gp)
   PRE_g66 = g66;
  8028a4:	d0a73d83 	ldbu	r2,-25354(gp)
  8028a8:	d0a75145 	stb	r2,-25275(gp)
   PRE_g71 = g71;
  8028ac:	d0a72d83 	ldbu	r2,-25418(gp)
  8028b0:	d0a73e85 	stb	r2,-25350(gp)
   PRE_g74 = g74;
  8028b4:	d0a75d43 	ldbu	r2,-25227(gp)
  8028b8:	d0a749c5 	stb	r2,-25305(gp)
   PRE_g79 = g79;
  8028bc:	d0a73943 	ldbu	r2,-25371(gp)
  8028c0:	d0a73f05 	stb	r2,-25348(gp)
   PRE_g81 = g81;
  8028c4:	d0a74e83 	ldbu	r2,-25286(gp)
  8028c8:	d0a73405 	stb	r2,-25392(gp)
   PRE_g87 = g87;
  8028cc:	d0a72b83 	ldbu	r2,-25426(gp)
  8028d0:	d0a73645 	stb	r2,-25383(gp)
   PRE_g90 = g90;
  8028d4:	d0a74303 	ldbu	r2,-25332(gp)
  8028d8:	d0a72545 	stb	r2,-25451(gp)
   PRE_g92 = g92;
  8028dc:	d0a72cc3 	ldbu	r2,-25421(gp)
  8028e0:	d0a75a85 	stb	r2,-25238(gp)
   PRE_g95 = g95;
  8028e4:	d0a74843 	ldbu	r2,-25311(gp)
  8028e8:	d0a72285 	stb	r2,-25462(gp)
   PRE_g104 = g104;
  8028ec:	d0a74ac3 	ldbu	r2,-25301(gp)
  8028f0:	d0a73485 	stb	r2,-25390(gp)
   PRE_g109 = g109;
  8028f4:	d0a75a43 	ldbu	r2,-25239(gp)
  8028f8:	d0a73185 	stb	r2,-25402(gp)
   _PRE_GO = _GO;
  8028fc:	d0a74343 	ldbu	r2,-25331(gp)
  802900:	10803fcc 	andi	r2,r2,255
  802904:	1080201c 	xori	r2,r2,128
  802908:	10bfe004 	addi	r2,r2,-128
  80290c:	d0a72915 	stw	r2,-25436(gp)
   return;
}
  802910:	e037883a 	mov	sp,fp
  802914:	df000017 	ldw	fp,0(sp)
  802918:	dec00104 	addi	sp,sp,4
  80291c:	f800283a 	ret

00802920 <main>:

static int buttonValue = 1;
static volatile int vpace_LED_on = 0;
static volatile int apace_LED_on = 0;

int main() {
  802920:	defffe04 	addi	sp,sp,-8
  802924:	dfc00115 	stw	ra,4(sp)
  802928:	df000015 	stw	fp,0(sp)
  80292c:	d839883a 	mov	fp,sp
	printf("Hello from Nios II!\n");
  802930:	01002074 	movhi	r4,129
  802934:	2128ca04 	addi	r4,r4,-23768
  802938:	08032780 	call	803278 <puts>

	reset();
  80293c:	08002000 	call	800200 <reset>
	init_buttons_pio();
  802940:	0802a740 	call	802a74 <init_buttons_pio>

	if (IORD_ALTERA_AVALON_PIO_DATA(SWITCHES_BASE) == 0) {
  802944:	00804074 	movhi	r2,257
  802948:	10842404 	addi	r2,r2,4240
  80294c:	10800037 	ldwio	r2,0(r2)
  802950:	1004c03a 	cmpne	r2,r2,zero
  802954:	1000021e 	bne	r2,zero,802960 <main+0x40>
		mode0();
  802958:	0802a3c0 	call	802a3c <mode0>
  80295c:	00000206 	br	802968 <main+0x48>
	} else {
		mode1();
  802960:	0802a580 	call	802a58 <mode1>
  802964:	00000006 	br	802968 <main+0x48>
	}

	while(1) {
		tick();
  802968:	08002980 	call	800298 <tick>
		if (VPace == 1) {
  80296c:	d0a75843 	ldbu	r2,-25247(gp)
  802970:	10803fcc 	andi	r2,r2,255
  802974:	1080201c 	xori	r2,r2,128
  802978:	10bfe004 	addi	r2,r2,-128
  80297c:	10800058 	cmpnei	r2,r2,1
  802980:	10000c1e 	bne	r2,zero,8029b4 <main+0x94>
			printf("vpace set\n");
  802984:	01002074 	movhi	r4,129
  802988:	2128cf04 	addi	r4,r4,-23748
  80298c:	08032780 	call	803278 <puts>
			initialise_pvarp_timer();
  802990:	0802c480 	call	802c48 <initialise_pvarp_timer>
			initialise_vrp_timer();
  802994:	0802ca00 	call	802ca0 <initialise_vrp_timer>
			initialise_aei_timer();
  802998:	0802bf00 	call	802bf0 <initialise_aei_timer>
			initialise_lri_timer();
  80299c:	0802cf80 	call	802cf8 <initialise_lri_timer>
			initialise_uri_timer();
  8029a0:	0802d500 	call	802d50 <initialise_uri_timer>
			vpace_LED_on = 1;
  8029a4:	00800044 	movi	r2,1
  8029a8:	d0a71f15 	stw	r2,-25476(gp)
			initialise_LED_timer(&vpace_LED_on);
  8029ac:	d1271f04 	addi	r4,gp,-25476
  8029b0:	0802e000 	call	802e00 <initialise_LED_timer>
		}
		if (APace == 1) {
  8029b4:	d0a72243 	ldbu	r2,-25463(gp)
  8029b8:	10803fcc 	andi	r2,r2,255
  8029bc:	1080201c 	xori	r2,r2,128
  8029c0:	10bfe004 	addi	r2,r2,-128
  8029c4:	10800058 	cmpnei	r2,r2,1
  8029c8:	1000081e 	bne	r2,zero,8029ec <main+0xcc>
			printf("apace set\n");
  8029cc:	01002074 	movhi	r4,129
  8029d0:	2128d204 	addi	r4,r4,-23736
  8029d4:	08032780 	call	803278 <puts>
			initialise_avi_timer();
  8029d8:	0802b980 	call	802b98 <initialise_avi_timer>
			apace_LED_on = 1;
  8029dc:	00800044 	movi	r2,1
  8029e0:	d0a72015 	stw	r2,-25472(gp)
			initialise_LED_timer(&apace_LED_on);
  8029e4:	d1272004 	addi	r4,gp,-25472
  8029e8:	0802e000 	call	802e00 <initialise_LED_timer>
		}

		if (vpace_LED_on == 1) {
  8029ec:	d0a71f17 	ldw	r2,-25476(gp)
  8029f0:	10800058 	cmpnei	r2,r2,1
  8029f4:	1000051e 	bne	r2,zero,802a0c <main+0xec>
			IOWR_ALTERA_AVALON_PIO_DATA(LEDS_GREEN_BASE, 0x01);
  8029f8:	00c04074 	movhi	r3,257
  8029fc:	18c41804 	addi	r3,r3,4192
  802a00:	00800044 	movi	r2,1
  802a04:	18800035 	stwio	r2,0(r3)
  802a08:	003fd706 	br	802968 <main+0x48>
		} else if (apace_LED_on == 1) {
  802a0c:	d0a72017 	ldw	r2,-25472(gp)
  802a10:	10800058 	cmpnei	r2,r2,1
  802a14:	1000051e 	bne	r2,zero,802a2c <main+0x10c>
			IOWR_ALTERA_AVALON_PIO_DATA(LEDS_GREEN_BASE, 0x02);
  802a18:	00c04074 	movhi	r3,257
  802a1c:	18c41804 	addi	r3,r3,4192
  802a20:	00800084 	movi	r2,2
  802a24:	18800035 	stwio	r2,0(r3)
  802a28:	003fcf06 	br	802968 <main+0x48>
		} else {
			IOWR_ALTERA_AVALON_PIO_DATA(LEDS_GREEN_BASE, 0x00);
  802a2c:	00804074 	movhi	r2,257
  802a30:	10841804 	addi	r2,r2,4192
  802a34:	10000035 	stwio	zero,0(r2)
		}
	}
  802a38:	003fcb06 	br	802968 <main+0x48>

00802a3c <mode0>:

	return 0;
}

void mode0() {
  802a3c:	deffff04 	addi	sp,sp,-4
  802a40:	df000015 	stw	fp,0(sp)
  802a44:	d839883a 	mov	fp,sp

}
  802a48:	e037883a 	mov	sp,fp
  802a4c:	df000017 	ldw	fp,0(sp)
  802a50:	dec00104 	addi	sp,sp,4
  802a54:	f800283a 	ret

00802a58 <mode1>:

void mode1() {
  802a58:	deffff04 	addi	sp,sp,-4
  802a5c:	df000015 	stw	fp,0(sp)
  802a60:	d839883a 	mov	fp,sp

}
  802a64:	e037883a 	mov	sp,fp
  802a68:	df000017 	ldw	fp,0(sp)
  802a6c:	dec00104 	addi	sp,sp,4
  802a70:	f800283a 	ret

00802a74 <init_buttons_pio>:

void init_buttons_pio() {
  802a74:	defffd04 	addi	sp,sp,-12
  802a78:	dfc00215 	stw	ra,8(sp)
  802a7c:	df000115 	stw	fp,4(sp)
  802a80:	df000104 	addi	fp,sp,4
	void* context_going_to_be_passed = (void*) &buttonValue; 								// Cast before passing to ISR
  802a84:	d0a00004 	addi	r2,gp,-32768
  802a88:	e0bfff15 	stw	r2,-4(fp)
	IOWR_ALTERA_AVALON_PIO_EDGE_CAP(BUTTONS_BASE, 0); 										// Clears the edge capture register
  802a8c:	00804074 	movhi	r2,257
  802a90:	10842b04 	addi	r2,r2,4268
  802a94:	10000035 	stwio	zero,0(r2)
	IOWR_ALTERA_AVALON_PIO_IRQ_MASK(BUTTONS_BASE, 0x7); 									// Enable interrupts for all buttons
  802a98:	00c04074 	movhi	r3,257
  802a9c:	18c42a04 	addi	r3,r3,4264
  802aa0:	008001c4 	movi	r2,7
  802aa4:	18800035 	stwio	r2,0(r3)
	alt_irq_register(BUTTONS_IRQ, context_going_to_be_passed, buttons_isr); 				// Register the ISR
  802aa8:	01000104 	movi	r4,4
  802aac:	e17fff17 	ldw	r5,-4(fp)
  802ab0:	01802034 	movhi	r6,128
  802ab4:	318ab404 	addi	r6,r6,10960
  802ab8:	0805ef80 	call	805ef8 <alt_irq_register>
}
  802abc:	e037883a 	mov	sp,fp
  802ac0:	dfc00117 	ldw	ra,4(sp)
  802ac4:	df000017 	ldw	fp,0(sp)
  802ac8:	dec00204 	addi	sp,sp,8
  802acc:	f800283a 	ret

00802ad0 <buttons_isr>:

void buttons_isr(void* context) {
  802ad0:	defffc04 	addi	sp,sp,-16
  802ad4:	dfc00315 	stw	ra,12(sp)
  802ad8:	df000215 	stw	fp,8(sp)
  802adc:	df000204 	addi	fp,sp,8
  802ae0:	e13fff15 	stw	r4,-4(fp)
	int* temp = (int*) context;
  802ae4:	e0bfff17 	ldw	r2,-4(fp)
  802ae8:	e0bffe15 	stw	r2,-8(fp)
	(*temp) = IORD_ALTERA_AVALON_PIO_EDGE_CAP(BUTTONS_BASE);
  802aec:	00804074 	movhi	r2,257
  802af0:	10842b04 	addi	r2,r2,4268
  802af4:	10c00037 	ldwio	r3,0(r2)
  802af8:	e0bffe17 	ldw	r2,-8(fp)
  802afc:	10c00015 	stw	r3,0(r2)
	IOWR_ALTERA_AVALON_PIO_EDGE_CAP(BUTTONS_BASE, 0);										// Clear the edge capture register
  802b00:	00804074 	movhi	r2,257
  802b04:	10842b04 	addi	r2,r2,4268
  802b08:	10000035 	stwio	zero,0(r2)
	if ((*temp & 0x01) > 0) {
  802b0c:	e0bffe17 	ldw	r2,-8(fp)
  802b10:	10800017 	ldw	r2,0(r2)
  802b14:	1080004c 	andi	r2,r2,1
  802b18:	10800050 	cmplti	r2,r2,1
  802b1c:	10000c1e 	bne	r2,zero,802b50 <buttons_isr+0x80>
		printf("vsense pressed\n");
  802b20:	01002074 	movhi	r4,129
  802b24:	2128d504 	addi	r4,r4,-23724
  802b28:	08032780 	call	803278 <puts>
		initialise_pvarp_timer();
  802b2c:	0802c480 	call	802c48 <initialise_pvarp_timer>
		initialise_vrp_timer();
  802b30:	0802ca00 	call	802ca0 <initialise_vrp_timer>
		initialise_aei_timer();
  802b34:	0802bf00 	call	802bf0 <initialise_aei_timer>
		initialise_lri_timer();
  802b38:	0802cf80 	call	802cf8 <initialise_lri_timer>
		initialise_uri_timer();
  802b3c:	0802d500 	call	802d50 <initialise_uri_timer>
		VSense = 1;																	// VSense button is pressed
  802b40:	00800044 	movi	r2,1
  802b44:	d0a74085 	stb	r2,-25342(gp)
		initialise_debounce_timer(&VSense);
  802b48:	d1274084 	addi	r4,gp,-25342
  802b4c:	0802da80 	call	802da8 <initialise_debounce_timer>
	}
	if ((*temp & 0x02) > 0) {
  802b50:	e0bffe17 	ldw	r2,-8(fp)
  802b54:	10800017 	ldw	r2,0(r2)
  802b58:	1080008c 	andi	r2,r2,2
  802b5c:	10800050 	cmplti	r2,r2,1
  802b60:	1000081e 	bne	r2,zero,802b84 <buttons_isr+0xb4>
		printf("asense pressed\n");
  802b64:	01002074 	movhi	r4,129
  802b68:	2128d904 	addi	r4,r4,-23708
  802b6c:	08032780 	call	803278 <puts>
		initialise_avi_timer();
  802b70:	0802b980 	call	802b98 <initialise_avi_timer>
		ASense = 1;																	// ASense pedestrian button is pressed
  802b74:	00800044 	movi	r2,1
  802b78:	d0a73445 	stb	r2,-25391(gp)
		initialise_debounce_timer(&ASense);
  802b7c:	d1273444 	addi	r4,gp,-25391
  802b80:	0802da80 	call	802da8 <initialise_debounce_timer>
	}
}
  802b84:	e037883a 	mov	sp,fp
  802b88:	dfc00117 	ldw	ra,4(sp)
  802b8c:	df000017 	ldw	fp,0(sp)
  802b90:	dec00204 	addi	sp,sp,8
  802b94:	f800283a 	ret

00802b98 <initialise_avi_timer>:

void initialise_avi_timer() {
  802b98:	defffc04 	addi	sp,sp,-16
  802b9c:	dfc00315 	stw	ra,12(sp)
  802ba0:	df000215 	stw	fp,8(sp)
  802ba4:	df000204 	addi	fp,sp,8
	printf("avi timer start\n");
  802ba8:	01002074 	movhi	r4,129
  802bac:	2128dd04 	addi	r4,r4,-23692
  802bb0:	08032780 	call	803278 <puts>
	int avi_context = 0;
  802bb4:	e03fff15 	stw	zero,-4(fp)
	void* avi_timer_context = (void*) &avi_context;
  802bb8:	e0bfff04 	addi	r2,fp,-4
  802bbc:	e0bffe15 	stw	r2,-8(fp)
	alt_alarm_start(&avi_timer, AVI_VALUE, avi_isr_function, avi_timer_context);
  802bc0:	01002074 	movhi	r4,129
  802bc4:	21384a04 	addi	r4,r4,-7896
  802bc8:	01404b04 	movi	r5,300
  802bcc:	01802034 	movhi	r6,128
  802bd0:	318bc204 	addi	r6,r6,12040
  802bd4:	e1fffe17 	ldw	r7,-8(fp)
  802bd8:	0805ae80 	call	805ae8 <alt_alarm_start>
}
  802bdc:	e037883a 	mov	sp,fp
  802be0:	dfc00117 	ldw	ra,4(sp)
  802be4:	df000017 	ldw	fp,0(sp)
  802be8:	dec00204 	addi	sp,sp,8
  802bec:	f800283a 	ret

00802bf0 <initialise_aei_timer>:

void initialise_aei_timer() {
  802bf0:	defffc04 	addi	sp,sp,-16
  802bf4:	dfc00315 	stw	ra,12(sp)
  802bf8:	df000215 	stw	fp,8(sp)
  802bfc:	df000204 	addi	fp,sp,8
	printf("aei timer start\n");
  802c00:	01002074 	movhi	r4,129
  802c04:	2128e104 	addi	r4,r4,-23676
  802c08:	08032780 	call	803278 <puts>
	int aei_context = 0;
  802c0c:	e03fff15 	stw	zero,-4(fp)
	void* aei_timer_context = (void*) &aei_context;
  802c10:	e0bfff04 	addi	r2,fp,-4
  802c14:	e0bffe15 	stw	r2,-8(fp)
	alt_alarm_start(&aei_timer, AEI_VALUE, aei_isr_function, aei_timer_context);
  802c18:	01002074 	movhi	r4,129
  802c1c:	21385004 	addi	r4,r4,-7872
  802c20:	0140c804 	movi	r5,800
  802c24:	01802034 	movhi	r6,128
  802c28:	318bd404 	addi	r6,r6,12112
  802c2c:	e1fffe17 	ldw	r7,-8(fp)
  802c30:	0805ae80 	call	805ae8 <alt_alarm_start>
}
  802c34:	e037883a 	mov	sp,fp
  802c38:	dfc00117 	ldw	ra,4(sp)
  802c3c:	df000017 	ldw	fp,0(sp)
  802c40:	dec00204 	addi	sp,sp,8
  802c44:	f800283a 	ret

00802c48 <initialise_pvarp_timer>:

void initialise_pvarp_timer() {
  802c48:	defffc04 	addi	sp,sp,-16
  802c4c:	dfc00315 	stw	ra,12(sp)
  802c50:	df000215 	stw	fp,8(sp)
  802c54:	df000204 	addi	fp,sp,8
	printf("pvarp timer start\n");
  802c58:	01002074 	movhi	r4,129
  802c5c:	2128e504 	addi	r4,r4,-23660
  802c60:	08032780 	call	803278 <puts>
	int pvarp_context = 0;
  802c64:	e03fff15 	stw	zero,-4(fp)
	void* pvarp_timer_context = (void*) &pvarp_context;
  802c68:	e0bfff04 	addi	r2,fp,-4
  802c6c:	e0bffe15 	stw	r2,-8(fp)
	alt_alarm_start(&pvarp_timer, PVARP_VALUE, pvarp_isr_function, pvarp_timer_context);
  802c70:	01002074 	movhi	r4,129
  802c74:	21385604 	addi	r4,r4,-7848
  802c78:	01400c84 	movi	r5,50
  802c7c:	01802034 	movhi	r6,128
  802c80:	318be604 	addi	r6,r6,12184
  802c84:	e1fffe17 	ldw	r7,-8(fp)
  802c88:	0805ae80 	call	805ae8 <alt_alarm_start>
}
  802c8c:	e037883a 	mov	sp,fp
  802c90:	dfc00117 	ldw	ra,4(sp)
  802c94:	df000017 	ldw	fp,0(sp)
  802c98:	dec00204 	addi	sp,sp,8
  802c9c:	f800283a 	ret

00802ca0 <initialise_vrp_timer>:

void initialise_vrp_timer() {
  802ca0:	defffc04 	addi	sp,sp,-16
  802ca4:	dfc00315 	stw	ra,12(sp)
  802ca8:	df000215 	stw	fp,8(sp)
  802cac:	df000204 	addi	fp,sp,8
	printf("vrp timer start\n");
  802cb0:	01002074 	movhi	r4,129
  802cb4:	2128ea04 	addi	r4,r4,-23640
  802cb8:	08032780 	call	803278 <puts>
	int vrp_context = 0;
  802cbc:	e03fff15 	stw	zero,-4(fp)
	void* vrp_timer_context = (void*) &vrp_context;
  802cc0:	e0bfff04 	addi	r2,fp,-4
  802cc4:	e0bffe15 	stw	r2,-8(fp)
	alt_alarm_start(&vrp_timer, VRP_VALUE, vrp_isr_function, vrp_timer_context);
  802cc8:	01002074 	movhi	r4,129
  802ccc:	21385c04 	addi	r4,r4,-7824
  802cd0:	01402584 	movi	r5,150
  802cd4:	01802034 	movhi	r6,128
  802cd8:	318bf804 	addi	r6,r6,12256
  802cdc:	e1fffe17 	ldw	r7,-8(fp)
  802ce0:	0805ae80 	call	805ae8 <alt_alarm_start>
}
  802ce4:	e037883a 	mov	sp,fp
  802ce8:	dfc00117 	ldw	ra,4(sp)
  802cec:	df000017 	ldw	fp,0(sp)
  802cf0:	dec00204 	addi	sp,sp,8
  802cf4:	f800283a 	ret

00802cf8 <initialise_lri_timer>:

void initialise_lri_timer() {
  802cf8:	defffc04 	addi	sp,sp,-16
  802cfc:	dfc00315 	stw	ra,12(sp)
  802d00:	df000215 	stw	fp,8(sp)
  802d04:	df000204 	addi	fp,sp,8
	printf("lri timer start\n");
  802d08:	01002074 	movhi	r4,129
  802d0c:	2128ee04 	addi	r4,r4,-23624
  802d10:	08032780 	call	803278 <puts>
	int lri_context = 0;
  802d14:	e03fff15 	stw	zero,-4(fp)
	void* lri_timer_context = (void*) &lri_context;
  802d18:	e0bfff04 	addi	r2,fp,-4
  802d1c:	e0bffe15 	stw	r2,-8(fp)
	alt_alarm_start(&lri_timer, LRI_VALUE, lri_isr_function, lri_timer_context);
  802d20:	01002074 	movhi	r4,129
  802d24:	21386204 	addi	r4,r4,-7800
  802d28:	0140ed84 	movi	r5,950
  802d2c:	01802034 	movhi	r6,128
  802d30:	318c0a04 	addi	r6,r6,12328
  802d34:	e1fffe17 	ldw	r7,-8(fp)
  802d38:	0805ae80 	call	805ae8 <alt_alarm_start>
}
  802d3c:	e037883a 	mov	sp,fp
  802d40:	dfc00117 	ldw	ra,4(sp)
  802d44:	df000017 	ldw	fp,0(sp)
  802d48:	dec00204 	addi	sp,sp,8
  802d4c:	f800283a 	ret

00802d50 <initialise_uri_timer>:

void initialise_uri_timer() {
  802d50:	defffc04 	addi	sp,sp,-16
  802d54:	dfc00315 	stw	ra,12(sp)
  802d58:	df000215 	stw	fp,8(sp)
  802d5c:	df000204 	addi	fp,sp,8
	printf("uri timer start\n");
  802d60:	01002074 	movhi	r4,129
  802d64:	2128f204 	addi	r4,r4,-23608
  802d68:	08032780 	call	803278 <puts>
	int uri_context = 0;
  802d6c:	e03fff15 	stw	zero,-4(fp)
	void* uri_timer_context = (void*) &uri_context;
  802d70:	e0bfff04 	addi	r2,fp,-4
  802d74:	e0bffe15 	stw	r2,-8(fp)
	alt_alarm_start(&uri_timer, URI_VALUE, uri_isr_function, uri_timer_context);
  802d78:	01002074 	movhi	r4,129
  802d7c:	21386804 	addi	r4,r4,-7776
  802d80:	0140e104 	movi	r5,900
  802d84:	01802034 	movhi	r6,128
  802d88:	318c1c04 	addi	r6,r6,12400
  802d8c:	e1fffe17 	ldw	r7,-8(fp)
  802d90:	0805ae80 	call	805ae8 <alt_alarm_start>
}
  802d94:	e037883a 	mov	sp,fp
  802d98:	dfc00117 	ldw	ra,4(sp)
  802d9c:	df000017 	ldw	fp,0(sp)
  802da0:	dec00204 	addi	sp,sp,8
  802da4:	f800283a 	ret

00802da8 <initialise_debounce_timer>:

void initialise_debounce_timer(int* context) {
  802da8:	defffc04 	addi	sp,sp,-16
  802dac:	dfc00315 	stw	ra,12(sp)
  802db0:	df000215 	stw	fp,8(sp)
  802db4:	df000204 	addi	fp,sp,8
  802db8:	e13fff15 	stw	r4,-4(fp)
	printf("debounce timer start\n");
  802dbc:	01002074 	movhi	r4,129
  802dc0:	2128f604 	addi	r4,r4,-23592
  802dc4:	08032780 	call	803278 <puts>
	void* debounce_timer_context = (void*) context;
  802dc8:	e0bfff17 	ldw	r2,-4(fp)
  802dcc:	e0bffe15 	stw	r2,-8(fp)
	alt_alarm_start(&debounce_timer, DEBOUNCE_VALUE, debounce_isr_function, debounce_timer_context);
  802dd0:	01002074 	movhi	r4,129
  802dd4:	21386e04 	addi	r4,r4,-7752
  802dd8:	01403204 	movi	r5,200
  802ddc:	01802034 	movhi	r6,128
  802de0:	318c2e04 	addi	r6,r6,12472
  802de4:	e1fffe17 	ldw	r7,-8(fp)
  802de8:	0805ae80 	call	805ae8 <alt_alarm_start>
}
  802dec:	e037883a 	mov	sp,fp
  802df0:	dfc00117 	ldw	ra,4(sp)
  802df4:	df000017 	ldw	fp,0(sp)
  802df8:	dec00204 	addi	sp,sp,8
  802dfc:	f800283a 	ret

00802e00 <initialise_LED_timer>:

void initialise_LED_timer(int* context) {
  802e00:	defffc04 	addi	sp,sp,-16
  802e04:	dfc00315 	stw	ra,12(sp)
  802e08:	df000215 	stw	fp,8(sp)
  802e0c:	df000204 	addi	fp,sp,8
  802e10:	e13fff15 	stw	r4,-4(fp)
	printf("led timer start\n");
  802e14:	01002074 	movhi	r4,129
  802e18:	2128fc04 	addi	r4,r4,-23568
  802e1c:	08032780 	call	803278 <puts>
	void* LED_timer_context = (void*) context;
  802e20:	e0bfff17 	ldw	r2,-4(fp)
  802e24:	e0bffe15 	stw	r2,-8(fp)
	alt_alarm_start(&LED_timer, DEBOUNCE_VALUE, LED_isr_function, LED_timer_context);
  802e28:	01002074 	movhi	r4,129
  802e2c:	21387404 	addi	r4,r4,-7728
  802e30:	01403204 	movi	r5,200
  802e34:	01802034 	movhi	r6,128
  802e38:	318c4004 	addi	r6,r6,12544
  802e3c:	e1fffe17 	ldw	r7,-8(fp)
  802e40:	0805ae80 	call	805ae8 <alt_alarm_start>
}
  802e44:	e037883a 	mov	sp,fp
  802e48:	dfc00117 	ldw	ra,4(sp)
  802e4c:	df000017 	ldw	fp,0(sp)
  802e50:	dec00204 	addi	sp,sp,8
  802e54:	f800283a 	ret

00802e58 <initialise_signal_timer>:

void initialise_signal_timer(char* context) {
  802e58:	defffc04 	addi	sp,sp,-16
  802e5c:	dfc00315 	stw	ra,12(sp)
  802e60:	df000215 	stw	fp,8(sp)
  802e64:	df000204 	addi	fp,sp,8
  802e68:	e13fff15 	stw	r4,-4(fp)
	printf("signal timer start\n");
  802e6c:	01002074 	movhi	r4,129
  802e70:	21290004 	addi	r4,r4,-23552
  802e74:	08032780 	call	803278 <puts>
	void* signal_timer_context = (void*) context;
  802e78:	e0bfff17 	ldw	r2,-4(fp)
  802e7c:	e0bffe15 	stw	r2,-8(fp)
	alt_alarm_start(&signal_timer, SIGNAL_VALUE, signal_isr_function, signal_timer_context);
  802e80:	01002074 	movhi	r4,129
  802e84:	21387a04 	addi	r4,r4,-7704
  802e88:	01400144 	movi	r5,5
  802e8c:	01802034 	movhi	r6,128
  802e90:	318c5204 	addi	r6,r6,12616
  802e94:	e1fffe17 	ldw	r7,-8(fp)
  802e98:	0805ae80 	call	805ae8 <alt_alarm_start>
}
  802e9c:	e037883a 	mov	sp,fp
  802ea0:	dfc00117 	ldw	ra,4(sp)
  802ea4:	df000017 	ldw	fp,0(sp)
  802ea8:	dec00204 	addi	sp,sp,8
  802eac:	f800283a 	ret

00802eb0 <initialise_aei_signal_timer>:


void initialise_aei_signal_timer(char* context) {
  802eb0:	defffc04 	addi	sp,sp,-16
  802eb4:	dfc00315 	stw	ra,12(sp)
  802eb8:	df000215 	stw	fp,8(sp)
  802ebc:	df000204 	addi	fp,sp,8
  802ec0:	e13fff15 	stw	r4,-4(fp)
	printf("signal timer start\n");
  802ec4:	01002074 	movhi	r4,129
  802ec8:	21290004 	addi	r4,r4,-23552
  802ecc:	08032780 	call	803278 <puts>
	void* signal_timer_context = (void*) context;
  802ed0:	e0bfff17 	ldw	r2,-4(fp)
  802ed4:	e0bffe15 	stw	r2,-8(fp)
	alt_alarm_start(&aei_signal_timer, SIGNAL_VALUE, aei_signal_isr_function, signal_timer_context);
  802ed8:	01002074 	movhi	r4,129
  802edc:	21388004 	addi	r4,r4,-7680
  802ee0:	01400144 	movi	r5,5
  802ee4:	01802034 	movhi	r6,128
  802ee8:	318c6404 	addi	r6,r6,12688
  802eec:	e1fffe17 	ldw	r7,-8(fp)
  802ef0:	0805ae80 	call	805ae8 <alt_alarm_start>
}
  802ef4:	e037883a 	mov	sp,fp
  802ef8:	dfc00117 	ldw	ra,4(sp)
  802efc:	df000017 	ldw	fp,0(sp)
  802f00:	dec00204 	addi	sp,sp,8
  802f04:	f800283a 	ret

00802f08 <avi_isr_function>:


alt_u32 avi_isr_function(void* context) {
  802f08:	defffd04 	addi	sp,sp,-12
  802f0c:	dfc00215 	stw	ra,8(sp)
  802f10:	df000115 	stw	fp,4(sp)
  802f14:	df000104 	addi	fp,sp,4
  802f18:	e13fff15 	stw	r4,-4(fp)
	printf("avi timer end\n");
  802f1c:	01002074 	movhi	r4,129
  802f20:	21290504 	addi	r4,r4,-23532
  802f24:	08032780 	call	803278 <puts>
	AVITO = 1;
  802f28:	00800044 	movi	r2,1
  802f2c:	d0a744c5 	stb	r2,-25325(gp)
	initialise_signal_timer(&AVITO);
  802f30:	d12744c4 	addi	r4,gp,-25325
  802f34:	0802e580 	call	802e58 <initialise_signal_timer>
	return 0;
  802f38:	0005883a 	mov	r2,zero
}
  802f3c:	e037883a 	mov	sp,fp
  802f40:	dfc00117 	ldw	ra,4(sp)
  802f44:	df000017 	ldw	fp,0(sp)
  802f48:	dec00204 	addi	sp,sp,8
  802f4c:	f800283a 	ret

00802f50 <aei_isr_function>:

alt_u32 aei_isr_function(void* context) {
  802f50:	defffd04 	addi	sp,sp,-12
  802f54:	dfc00215 	stw	ra,8(sp)
  802f58:	df000115 	stw	fp,4(sp)
  802f5c:	df000104 	addi	fp,sp,4
  802f60:	e13fff15 	stw	r4,-4(fp)
	printf("aei timer end\n");
  802f64:	01002074 	movhi	r4,129
  802f68:	21290904 	addi	r4,r4,-23516
  802f6c:	08032780 	call	803278 <puts>
	AEITO = 1;
  802f70:	00800044 	movi	r2,1
  802f74:	d0a75c05 	stb	r2,-25232(gp)
	initialise_aei_signal_timer(&AEITO);
  802f78:	d1275c04 	addi	r4,gp,-25232
  802f7c:	0802eb00 	call	802eb0 <initialise_aei_signal_timer>
	return 0;
  802f80:	0005883a 	mov	r2,zero
}
  802f84:	e037883a 	mov	sp,fp
  802f88:	dfc00117 	ldw	ra,4(sp)
  802f8c:	df000017 	ldw	fp,0(sp)
  802f90:	dec00204 	addi	sp,sp,8
  802f94:	f800283a 	ret

00802f98 <pvarp_isr_function>:

alt_u32 pvarp_isr_function(void* context) {
  802f98:	defffd04 	addi	sp,sp,-12
  802f9c:	dfc00215 	stw	ra,8(sp)
  802fa0:	df000115 	stw	fp,4(sp)
  802fa4:	df000104 	addi	fp,sp,4
  802fa8:	e13fff15 	stw	r4,-4(fp)
	printf("pvarp timer end\n");
  802fac:	01002074 	movhi	r4,129
  802fb0:	21290d04 	addi	r4,r4,-23500
  802fb4:	08032780 	call	803278 <puts>
	PVARPTO = 1;
  802fb8:	00800044 	movi	r2,1
  802fbc:	d0a74705 	stb	r2,-25316(gp)
	initialise_signal_timer(&PVARPTO);
  802fc0:	d1274704 	addi	r4,gp,-25316
  802fc4:	0802e580 	call	802e58 <initialise_signal_timer>
	return 0;
  802fc8:	0005883a 	mov	r2,zero
}
  802fcc:	e037883a 	mov	sp,fp
  802fd0:	dfc00117 	ldw	ra,4(sp)
  802fd4:	df000017 	ldw	fp,0(sp)
  802fd8:	dec00204 	addi	sp,sp,8
  802fdc:	f800283a 	ret

00802fe0 <vrp_isr_function>:

alt_u32 vrp_isr_function(void* context) {
  802fe0:	defffd04 	addi	sp,sp,-12
  802fe4:	dfc00215 	stw	ra,8(sp)
  802fe8:	df000115 	stw	fp,4(sp)
  802fec:	df000104 	addi	fp,sp,4
  802ff0:	e13fff15 	stw	r4,-4(fp)
	printf("vrp timer end\n");
  802ff4:	01002074 	movhi	r4,129
  802ff8:	21291104 	addi	r4,r4,-23484
  802ffc:	08032780 	call	803278 <puts>
	VRPTO = 1;
  803000:	00800044 	movi	r2,1
  803004:	d0a743c5 	stb	r2,-25329(gp)
	initialise_signal_timer(&VRPTO);
  803008:	d12743c4 	addi	r4,gp,-25329
  80300c:	0802e580 	call	802e58 <initialise_signal_timer>
	return 0;
  803010:	0005883a 	mov	r2,zero
}
  803014:	e037883a 	mov	sp,fp
  803018:	dfc00117 	ldw	ra,4(sp)
  80301c:	df000017 	ldw	fp,0(sp)
  803020:	dec00204 	addi	sp,sp,8
  803024:	f800283a 	ret

00803028 <lri_isr_function>:

alt_u32 lri_isr_function(void* context) {
  803028:	defffd04 	addi	sp,sp,-12
  80302c:	dfc00215 	stw	ra,8(sp)
  803030:	df000115 	stw	fp,4(sp)
  803034:	df000104 	addi	fp,sp,4
  803038:	e13fff15 	stw	r4,-4(fp)
	printf("lri timer end\n");
  80303c:	01002074 	movhi	r4,129
  803040:	21291504 	addi	r4,r4,-23468
  803044:	08032780 	call	803278 <puts>
	LRITO = 1;
  803048:	00800044 	movi	r2,1
  80304c:	d0a727c5 	stb	r2,-25441(gp)
	initialise_signal_timer(&LRITO);
  803050:	d12727c4 	addi	r4,gp,-25441
  803054:	0802e580 	call	802e58 <initialise_signal_timer>
	return 0;
  803058:	0005883a 	mov	r2,zero
}
  80305c:	e037883a 	mov	sp,fp
  803060:	dfc00117 	ldw	ra,4(sp)
  803064:	df000017 	ldw	fp,0(sp)
  803068:	dec00204 	addi	sp,sp,8
  80306c:	f800283a 	ret

00803070 <uri_isr_function>:

alt_u32 uri_isr_function(void* context) {
  803070:	defffd04 	addi	sp,sp,-12
  803074:	dfc00215 	stw	ra,8(sp)
  803078:	df000115 	stw	fp,4(sp)
  80307c:	df000104 	addi	fp,sp,4
  803080:	e13fff15 	stw	r4,-4(fp)
	printf("uri timer end\n");
  803084:	01002074 	movhi	r4,129
  803088:	21291904 	addi	r4,r4,-23452
  80308c:	08032780 	call	803278 <puts>
	URITO = 1;
  803090:	00800044 	movi	r2,1
  803094:	d0a74385 	stb	r2,-25330(gp)
	initialise_signal_timer(&URITO);
  803098:	d1274384 	addi	r4,gp,-25330
  80309c:	0802e580 	call	802e58 <initialise_signal_timer>
	return 0;
  8030a0:	0005883a 	mov	r2,zero
}
  8030a4:	e037883a 	mov	sp,fp
  8030a8:	dfc00117 	ldw	ra,4(sp)
  8030ac:	df000017 	ldw	fp,0(sp)
  8030b0:	dec00204 	addi	sp,sp,8
  8030b4:	f800283a 	ret

008030b8 <debounce_isr_function>:

alt_u32 debounce_isr_function(void* context) {
  8030b8:	defffc04 	addi	sp,sp,-16
  8030bc:	dfc00315 	stw	ra,12(sp)
  8030c0:	df000215 	stw	fp,8(sp)
  8030c4:	df000204 	addi	fp,sp,8
  8030c8:	e13fff15 	stw	r4,-4(fp)
	printf("debounce timer end\n");
  8030cc:	01002074 	movhi	r4,129
  8030d0:	21291d04 	addi	r4,r4,-23436
  8030d4:	08032780 	call	803278 <puts>
	int *temp = (int*) context;
  8030d8:	e0bfff17 	ldw	r2,-4(fp)
  8030dc:	e0bffe15 	stw	r2,-8(fp)
	*temp = 0;
  8030e0:	e0bffe17 	ldw	r2,-8(fp)
  8030e4:	10000015 	stw	zero,0(r2)
	return 0;
  8030e8:	0005883a 	mov	r2,zero
}
  8030ec:	e037883a 	mov	sp,fp
  8030f0:	dfc00117 	ldw	ra,4(sp)
  8030f4:	df000017 	ldw	fp,0(sp)
  8030f8:	dec00204 	addi	sp,sp,8
  8030fc:	f800283a 	ret

00803100 <LED_isr_function>:

alt_u32 LED_isr_function(void* context) {
  803100:	defffc04 	addi	sp,sp,-16
  803104:	dfc00315 	stw	ra,12(sp)
  803108:	df000215 	stw	fp,8(sp)
  80310c:	df000204 	addi	fp,sp,8
  803110:	e13fff15 	stw	r4,-4(fp)
	printf("led timer end\n");
  803114:	01002074 	movhi	r4,129
  803118:	21292204 	addi	r4,r4,-23416
  80311c:	08032780 	call	803278 <puts>
	int *temp = (int*) context;
  803120:	e0bfff17 	ldw	r2,-4(fp)
  803124:	e0bffe15 	stw	r2,-8(fp)
	*temp = 0;
  803128:	e0bffe17 	ldw	r2,-8(fp)
  80312c:	10000015 	stw	zero,0(r2)
	return 0;
  803130:	0005883a 	mov	r2,zero
}
  803134:	e037883a 	mov	sp,fp
  803138:	dfc00117 	ldw	ra,4(sp)
  80313c:	df000017 	ldw	fp,0(sp)
  803140:	dec00204 	addi	sp,sp,8
  803144:	f800283a 	ret

00803148 <signal_isr_function>:

alt_u32 signal_isr_function(void* context) {
  803148:	defffc04 	addi	sp,sp,-16
  80314c:	dfc00315 	stw	ra,12(sp)
  803150:	df000215 	stw	fp,8(sp)
  803154:	df000204 	addi	fp,sp,8
  803158:	e13fff15 	stw	r4,-4(fp)
	printf("signal timer end\n");
  80315c:	01002074 	movhi	r4,129
  803160:	21292604 	addi	r4,r4,-23400
  803164:	08032780 	call	803278 <puts>
	int *temp = (int*) context;
  803168:	e0bfff17 	ldw	r2,-4(fp)
  80316c:	e0bffe15 	stw	r2,-8(fp)
	*temp = 0;
  803170:	e0bffe17 	ldw	r2,-8(fp)
  803174:	10000015 	stw	zero,0(r2)
	return 0;
  803178:	0005883a 	mov	r2,zero
}
  80317c:	e037883a 	mov	sp,fp
  803180:	dfc00117 	ldw	ra,4(sp)
  803184:	df000017 	ldw	fp,0(sp)
  803188:	dec00204 	addi	sp,sp,8
  80318c:	f800283a 	ret

00803190 <aei_signal_isr_function>:

alt_u32 aei_signal_isr_function(void* context) {
  803190:	defffc04 	addi	sp,sp,-16
  803194:	dfc00315 	stw	ra,12(sp)
  803198:	df000215 	stw	fp,8(sp)
  80319c:	df000204 	addi	fp,sp,8
  8031a0:	e13fff15 	stw	r4,-4(fp)
	printf("aei signal timer end\n");
  8031a4:	01002074 	movhi	r4,129
  8031a8:	21292b04 	addi	r4,r4,-23380
  8031ac:	08032780 	call	803278 <puts>
	int *temp = (int*) context;
  8031b0:	e0bfff17 	ldw	r2,-4(fp)
  8031b4:	e0bffe15 	stw	r2,-8(fp)
	*temp = 0;
  8031b8:	e0bffe17 	ldw	r2,-8(fp)
  8031bc:	10000015 	stw	zero,0(r2)
	return 0;
  8031c0:	0005883a 	mov	r2,zero
}
  8031c4:	e037883a 	mov	sp,fp
  8031c8:	dfc00117 	ldw	ra,4(sp)
  8031cc:	df000017 	ldw	fp,0(sp)
  8031d0:	dec00204 	addi	sp,sp,8
  8031d4:	f800283a 	ret

008031d8 <_puts_r>:
  8031d8:	defff604 	addi	sp,sp,-40
  8031dc:	dc400715 	stw	r17,28(sp)
  8031e0:	2023883a 	mov	r17,r4
  8031e4:	2809883a 	mov	r4,r5
  8031e8:	dfc00915 	stw	ra,36(sp)
  8031ec:	dcc00815 	stw	r19,32(sp)
  8031f0:	2827883a 	mov	r19,r5
  8031f4:	080328c0 	call	80328c <strlen>
  8031f8:	89400217 	ldw	r5,8(r17)
  8031fc:	00c02074 	movhi	r3,129
  803200:	18e93104 	addi	r3,r3,-23356
  803204:	01c00044 	movi	r7,1
  803208:	12000044 	addi	r8,r2,1
  80320c:	d8c00515 	stw	r3,20(sp)
  803210:	d9c00615 	stw	r7,24(sp)
  803214:	d8c00304 	addi	r3,sp,12
  803218:	01c00084 	movi	r7,2
  80321c:	8809883a 	mov	r4,r17
  803220:	d80d883a 	mov	r6,sp
  803224:	d8c00015 	stw	r3,0(sp)
  803228:	dcc00315 	stw	r19,12(sp)
  80322c:	da000215 	stw	r8,8(sp)
  803230:	d9c00115 	stw	r7,4(sp)
  803234:	d8800415 	stw	r2,16(sp)
  803238:	08033000 	call	803300 <__sfvwrite_r>
  80323c:	00ffffc4 	movi	r3,-1
  803240:	10000626 	beq	r2,zero,80325c <_puts_r+0x84>
  803244:	1805883a 	mov	r2,r3
  803248:	dfc00917 	ldw	ra,36(sp)
  80324c:	dcc00817 	ldw	r19,32(sp)
  803250:	dc400717 	ldw	r17,28(sp)
  803254:	dec00a04 	addi	sp,sp,40
  803258:	f800283a 	ret
  80325c:	00c00284 	movi	r3,10
  803260:	1805883a 	mov	r2,r3
  803264:	dfc00917 	ldw	ra,36(sp)
  803268:	dcc00817 	ldw	r19,32(sp)
  80326c:	dc400717 	ldw	r17,28(sp)
  803270:	dec00a04 	addi	sp,sp,40
  803274:	f800283a 	ret

00803278 <puts>:
  803278:	00802074 	movhi	r2,129
  80327c:	10b0e304 	addi	r2,r2,-15476
  803280:	200b883a 	mov	r5,r4
  803284:	11000017 	ldw	r4,0(r2)
  803288:	08031d81 	jmpi	8031d8 <_puts_r>

0080328c <strlen>:
  80328c:	208000cc 	andi	r2,r4,3
  803290:	2011883a 	mov	r8,r4
  803294:	1000161e 	bne	r2,zero,8032f0 <strlen+0x64>
  803298:	20c00017 	ldw	r3,0(r4)
  80329c:	017fbff4 	movhi	r5,65279
  8032a0:	297fbfc4 	addi	r5,r5,-257
  8032a4:	01e02074 	movhi	r7,32897
  8032a8:	39e02004 	addi	r7,r7,-32640
  8032ac:	1945883a 	add	r2,r3,r5
  8032b0:	11c4703a 	and	r2,r2,r7
  8032b4:	00c6303a 	nor	r3,zero,r3
  8032b8:	1886703a 	and	r3,r3,r2
  8032bc:	18000c1e 	bne	r3,zero,8032f0 <strlen+0x64>
  8032c0:	280d883a 	mov	r6,r5
  8032c4:	380b883a 	mov	r5,r7
  8032c8:	21000104 	addi	r4,r4,4
  8032cc:	20800017 	ldw	r2,0(r4)
  8032d0:	1187883a 	add	r3,r2,r6
  8032d4:	1946703a 	and	r3,r3,r5
  8032d8:	0084303a 	nor	r2,zero,r2
  8032dc:	10c4703a 	and	r2,r2,r3
  8032e0:	103ff926 	beq	r2,zero,8032c8 <strlen+0x3c>
  8032e4:	20800007 	ldb	r2,0(r4)
  8032e8:	10000326 	beq	r2,zero,8032f8 <strlen+0x6c>
  8032ec:	21000044 	addi	r4,r4,1
  8032f0:	20800007 	ldb	r2,0(r4)
  8032f4:	103ffd1e 	bne	r2,zero,8032ec <strlen+0x60>
  8032f8:	2205c83a 	sub	r2,r4,r8
  8032fc:	f800283a 	ret

00803300 <__sfvwrite_r>:
  803300:	30800217 	ldw	r2,8(r6)
  803304:	defff504 	addi	sp,sp,-44
  803308:	df000915 	stw	fp,36(sp)
  80330c:	dd800715 	stw	r22,28(sp)
  803310:	dc800315 	stw	r18,12(sp)
  803314:	dfc00a15 	stw	ra,40(sp)
  803318:	ddc00815 	stw	r23,32(sp)
  80331c:	dd400615 	stw	r21,24(sp)
  803320:	dd000515 	stw	r20,20(sp)
  803324:	dcc00415 	stw	r19,16(sp)
  803328:	dc400215 	stw	r17,8(sp)
  80332c:	dc000115 	stw	r16,4(sp)
  803330:	302d883a 	mov	r22,r6
  803334:	2039883a 	mov	fp,r4
  803338:	2825883a 	mov	r18,r5
  80333c:	10001c26 	beq	r2,zero,8033b0 <__sfvwrite_r+0xb0>
  803340:	29c0030b 	ldhu	r7,12(r5)
  803344:	3880020c 	andi	r2,r7,8
  803348:	10002726 	beq	r2,zero,8033e8 <__sfvwrite_r+0xe8>
  80334c:	28800417 	ldw	r2,16(r5)
  803350:	10002526 	beq	r2,zero,8033e8 <__sfvwrite_r+0xe8>
  803354:	3880008c 	andi	r2,r7,2
  803358:	b5400017 	ldw	r21,0(r22)
  80335c:	10002826 	beq	r2,zero,803400 <__sfvwrite_r+0x100>
  803360:	0021883a 	mov	r16,zero
  803364:	0023883a 	mov	r17,zero
  803368:	880d883a 	mov	r6,r17
  80336c:	e009883a 	mov	r4,fp
  803370:	00810004 	movi	r2,1024
  803374:	80006e26 	beq	r16,zero,803530 <__sfvwrite_r+0x230>
  803378:	800f883a 	mov	r7,r16
  80337c:	91400717 	ldw	r5,28(r18)
  803380:	1400012e 	bgeu	r2,r16,803388 <__sfvwrite_r+0x88>
  803384:	100f883a 	mov	r7,r2
  803388:	90c00917 	ldw	r3,36(r18)
  80338c:	183ee83a 	callr	r3
  803390:	1007883a 	mov	r3,r2
  803394:	80a1c83a 	sub	r16,r16,r2
  803398:	88a3883a 	add	r17,r17,r2
  80339c:	00806d0e 	bge	zero,r2,803554 <__sfvwrite_r+0x254>
  8033a0:	b0800217 	ldw	r2,8(r22)
  8033a4:	10c5c83a 	sub	r2,r2,r3
  8033a8:	b0800215 	stw	r2,8(r22)
  8033ac:	103fee1e 	bne	r2,zero,803368 <__sfvwrite_r+0x68>
  8033b0:	0009883a 	mov	r4,zero
  8033b4:	2005883a 	mov	r2,r4
  8033b8:	dfc00a17 	ldw	ra,40(sp)
  8033bc:	df000917 	ldw	fp,36(sp)
  8033c0:	ddc00817 	ldw	r23,32(sp)
  8033c4:	dd800717 	ldw	r22,28(sp)
  8033c8:	dd400617 	ldw	r21,24(sp)
  8033cc:	dd000517 	ldw	r20,20(sp)
  8033d0:	dcc00417 	ldw	r19,16(sp)
  8033d4:	dc800317 	ldw	r18,12(sp)
  8033d8:	dc400217 	ldw	r17,8(sp)
  8033dc:	dc000117 	ldw	r16,4(sp)
  8033e0:	dec00b04 	addi	sp,sp,44
  8033e4:	f800283a 	ret
  8033e8:	08047a40 	call	8047a4 <__swsetup_r>
  8033ec:	1000e41e 	bne	r2,zero,803780 <__sfvwrite_r+0x480>
  8033f0:	91c0030b 	ldhu	r7,12(r18)
  8033f4:	b5400017 	ldw	r21,0(r22)
  8033f8:	3880008c 	andi	r2,r7,2
  8033fc:	103fd81e 	bne	r2,zero,803360 <__sfvwrite_r+0x60>
  803400:	3880004c 	andi	r2,r7,1
  803404:	1005003a 	cmpeq	r2,r2,zero
  803408:	10005726 	beq	r2,zero,803568 <__sfvwrite_r+0x268>
  80340c:	0029883a 	mov	r20,zero
  803410:	002f883a 	mov	r23,zero
  803414:	a0004226 	beq	r20,zero,803520 <__sfvwrite_r+0x220>
  803418:	3880800c 	andi	r2,r7,512
  80341c:	94000217 	ldw	r16,8(r18)
  803420:	10008b26 	beq	r2,zero,803650 <__sfvwrite_r+0x350>
  803424:	800d883a 	mov	r6,r16
  803428:	a400a536 	bltu	r20,r16,8036c0 <__sfvwrite_r+0x3c0>
  80342c:	3881200c 	andi	r2,r7,1152
  803430:	10002726 	beq	r2,zero,8034d0 <__sfvwrite_r+0x1d0>
  803434:	90800517 	ldw	r2,20(r18)
  803438:	92000417 	ldw	r8,16(r18)
  80343c:	91400017 	ldw	r5,0(r18)
  803440:	1087883a 	add	r3,r2,r2
  803444:	1887883a 	add	r3,r3,r2
  803448:	1808d7fa 	srli	r4,r3,31
  80344c:	2a21c83a 	sub	r16,r5,r8
  803450:	80800044 	addi	r2,r16,1
  803454:	20c9883a 	add	r4,r4,r3
  803458:	2027d07a 	srai	r19,r4,1
  80345c:	a085883a 	add	r2,r20,r2
  803460:	980d883a 	mov	r6,r19
  803464:	9880022e 	bgeu	r19,r2,803470 <__sfvwrite_r+0x170>
  803468:	1027883a 	mov	r19,r2
  80346c:	100d883a 	mov	r6,r2
  803470:	3881000c 	andi	r2,r7,1024
  803474:	1000b826 	beq	r2,zero,803758 <__sfvwrite_r+0x458>
  803478:	300b883a 	mov	r5,r6
  80347c:	e009883a 	mov	r4,fp
  803480:	080379c0 	call	80379c <_malloc_r>
  803484:	10003126 	beq	r2,zero,80354c <__sfvwrite_r+0x24c>
  803488:	91400417 	ldw	r5,16(r18)
  80348c:	1009883a 	mov	r4,r2
  803490:	800d883a 	mov	r6,r16
  803494:	1023883a 	mov	r17,r2
  803498:	0803fc00 	call	803fc0 <memcpy>
  80349c:	90c0030b 	ldhu	r3,12(r18)
  8034a0:	00beffc4 	movi	r2,-1025
  8034a4:	1886703a 	and	r3,r3,r2
  8034a8:	18c02014 	ori	r3,r3,128
  8034ac:	90c0030d 	sth	r3,12(r18)
  8034b0:	9c07c83a 	sub	r3,r19,r16
  8034b4:	8c05883a 	add	r2,r17,r16
  8034b8:	a00d883a 	mov	r6,r20
  8034bc:	a021883a 	mov	r16,r20
  8034c0:	90800015 	stw	r2,0(r18)
  8034c4:	90c00215 	stw	r3,8(r18)
  8034c8:	94400415 	stw	r17,16(r18)
  8034cc:	94c00515 	stw	r19,20(r18)
  8034d0:	91000017 	ldw	r4,0(r18)
  8034d4:	b80b883a 	mov	r5,r23
  8034d8:	a023883a 	mov	r17,r20
  8034dc:	08040600 	call	804060 <memmove>
  8034e0:	90c00217 	ldw	r3,8(r18)
  8034e4:	90800017 	ldw	r2,0(r18)
  8034e8:	a027883a 	mov	r19,r20
  8034ec:	1c07c83a 	sub	r3,r3,r16
  8034f0:	1405883a 	add	r2,r2,r16
  8034f4:	90c00215 	stw	r3,8(r18)
  8034f8:	a021883a 	mov	r16,r20
  8034fc:	90800015 	stw	r2,0(r18)
  803500:	b0800217 	ldw	r2,8(r22)
  803504:	1405c83a 	sub	r2,r2,r16
  803508:	b0800215 	stw	r2,8(r22)
  80350c:	103fa826 	beq	r2,zero,8033b0 <__sfvwrite_r+0xb0>
  803510:	a469c83a 	sub	r20,r20,r17
  803514:	91c0030b 	ldhu	r7,12(r18)
  803518:	bcef883a 	add	r23,r23,r19
  80351c:	a03fbe1e 	bne	r20,zero,803418 <__sfvwrite_r+0x118>
  803520:	adc00017 	ldw	r23,0(r21)
  803524:	ad000117 	ldw	r20,4(r21)
  803528:	ad400204 	addi	r21,r21,8
  80352c:	003fb906 	br	803414 <__sfvwrite_r+0x114>
  803530:	ac400017 	ldw	r17,0(r21)
  803534:	ac000117 	ldw	r16,4(r21)
  803538:	ad400204 	addi	r21,r21,8
  80353c:	003f8a06 	br	803368 <__sfvwrite_r+0x68>
  803540:	91400417 	ldw	r5,16(r18)
  803544:	e009883a 	mov	r4,fp
  803548:	0804efc0 	call	804efc <_free_r>
  80354c:	00800304 	movi	r2,12
  803550:	e0800015 	stw	r2,0(fp)
  803554:	9080030b 	ldhu	r2,12(r18)
  803558:	013fffc4 	movi	r4,-1
  80355c:	10801014 	ori	r2,r2,64
  803560:	9080030d 	sth	r2,12(r18)
  803564:	003f9306 	br	8033b4 <__sfvwrite_r+0xb4>
  803568:	0027883a 	mov	r19,zero
  80356c:	002f883a 	mov	r23,zero
  803570:	d8000015 	stw	zero,0(sp)
  803574:	0029883a 	mov	r20,zero
  803578:	98001e26 	beq	r19,zero,8035f4 <__sfvwrite_r+0x2f4>
  80357c:	d8c00017 	ldw	r3,0(sp)
  803580:	1804c03a 	cmpne	r2,r3,zero
  803584:	10005e26 	beq	r2,zero,803700 <__sfvwrite_r+0x400>
  803588:	9821883a 	mov	r16,r19
  80358c:	a4c0012e 	bgeu	r20,r19,803594 <__sfvwrite_r+0x294>
  803590:	a021883a 	mov	r16,r20
  803594:	91000017 	ldw	r4,0(r18)
  803598:	90800417 	ldw	r2,16(r18)
  80359c:	91800217 	ldw	r6,8(r18)
  8035a0:	91c00517 	ldw	r7,20(r18)
  8035a4:	1100022e 	bgeu	r2,r4,8035b0 <__sfvwrite_r+0x2b0>
  8035a8:	31e3883a 	add	r17,r6,r7
  8035ac:	8c001616 	blt	r17,r16,803608 <__sfvwrite_r+0x308>
  8035b0:	81c03816 	blt	r16,r7,803694 <__sfvwrite_r+0x394>
  8035b4:	90c00917 	ldw	r3,36(r18)
  8035b8:	91400717 	ldw	r5,28(r18)
  8035bc:	e009883a 	mov	r4,fp
  8035c0:	b80d883a 	mov	r6,r23
  8035c4:	183ee83a 	callr	r3
  8035c8:	1023883a 	mov	r17,r2
  8035cc:	00bfe10e 	bge	zero,r2,803554 <__sfvwrite_r+0x254>
  8035d0:	a469c83a 	sub	r20,r20,r17
  8035d4:	a0001826 	beq	r20,zero,803638 <__sfvwrite_r+0x338>
  8035d8:	b0800217 	ldw	r2,8(r22)
  8035dc:	1445c83a 	sub	r2,r2,r17
  8035e0:	b0800215 	stw	r2,8(r22)
  8035e4:	103f7226 	beq	r2,zero,8033b0 <__sfvwrite_r+0xb0>
  8035e8:	9c67c83a 	sub	r19,r19,r17
  8035ec:	bc6f883a 	add	r23,r23,r17
  8035f0:	983fe21e 	bne	r19,zero,80357c <__sfvwrite_r+0x27c>
  8035f4:	adc00017 	ldw	r23,0(r21)
  8035f8:	acc00117 	ldw	r19,4(r21)
  8035fc:	ad400204 	addi	r21,r21,8
  803600:	d8000015 	stw	zero,0(sp)
  803604:	003fdc06 	br	803578 <__sfvwrite_r+0x278>
  803608:	b80b883a 	mov	r5,r23
  80360c:	880d883a 	mov	r6,r17
  803610:	08040600 	call	804060 <memmove>
  803614:	90c00017 	ldw	r3,0(r18)
  803618:	e009883a 	mov	r4,fp
  80361c:	900b883a 	mov	r5,r18
  803620:	1c47883a 	add	r3,r3,r17
  803624:	90c00015 	stw	r3,0(r18)
  803628:	08048e00 	call	8048e0 <_fflush_r>
  80362c:	103fc91e 	bne	r2,zero,803554 <__sfvwrite_r+0x254>
  803630:	a469c83a 	sub	r20,r20,r17
  803634:	a03fe81e 	bne	r20,zero,8035d8 <__sfvwrite_r+0x2d8>
  803638:	e009883a 	mov	r4,fp
  80363c:	900b883a 	mov	r5,r18
  803640:	08048e00 	call	8048e0 <_fflush_r>
  803644:	103fc31e 	bne	r2,zero,803554 <__sfvwrite_r+0x254>
  803648:	d8000015 	stw	zero,0(sp)
  80364c:	003fe206 	br	8035d8 <__sfvwrite_r+0x2d8>
  803650:	91000017 	ldw	r4,0(r18)
  803654:	90800417 	ldw	r2,16(r18)
  803658:	1100022e 	bgeu	r2,r4,803664 <__sfvwrite_r+0x364>
  80365c:	8023883a 	mov	r17,r16
  803660:	85003136 	bltu	r16,r20,803728 <__sfvwrite_r+0x428>
  803664:	91c00517 	ldw	r7,20(r18)
  803668:	a1c01836 	bltu	r20,r7,8036cc <__sfvwrite_r+0x3cc>
  80366c:	90c00917 	ldw	r3,36(r18)
  803670:	91400717 	ldw	r5,28(r18)
  803674:	e009883a 	mov	r4,fp
  803678:	b80d883a 	mov	r6,r23
  80367c:	183ee83a 	callr	r3
  803680:	1021883a 	mov	r16,r2
  803684:	00bfb30e 	bge	zero,r2,803554 <__sfvwrite_r+0x254>
  803688:	1023883a 	mov	r17,r2
  80368c:	1027883a 	mov	r19,r2
  803690:	003f9b06 	br	803500 <__sfvwrite_r+0x200>
  803694:	b80b883a 	mov	r5,r23
  803698:	800d883a 	mov	r6,r16
  80369c:	08040600 	call	804060 <memmove>
  8036a0:	90c00217 	ldw	r3,8(r18)
  8036a4:	90800017 	ldw	r2,0(r18)
  8036a8:	8023883a 	mov	r17,r16
  8036ac:	1c07c83a 	sub	r3,r3,r16
  8036b0:	1405883a 	add	r2,r2,r16
  8036b4:	90c00215 	stw	r3,8(r18)
  8036b8:	90800015 	stw	r2,0(r18)
  8036bc:	003fc406 	br	8035d0 <__sfvwrite_r+0x2d0>
  8036c0:	a00d883a 	mov	r6,r20
  8036c4:	a021883a 	mov	r16,r20
  8036c8:	003f8106 	br	8034d0 <__sfvwrite_r+0x1d0>
  8036cc:	b80b883a 	mov	r5,r23
  8036d0:	a00d883a 	mov	r6,r20
  8036d4:	08040600 	call	804060 <memmove>
  8036d8:	90c00217 	ldw	r3,8(r18)
  8036dc:	90800017 	ldw	r2,0(r18)
  8036e0:	a021883a 	mov	r16,r20
  8036e4:	1d07c83a 	sub	r3,r3,r20
  8036e8:	1505883a 	add	r2,r2,r20
  8036ec:	a023883a 	mov	r17,r20
  8036f0:	a027883a 	mov	r19,r20
  8036f4:	90c00215 	stw	r3,8(r18)
  8036f8:	90800015 	stw	r2,0(r18)
  8036fc:	003f8006 	br	803500 <__sfvwrite_r+0x200>
  803700:	b809883a 	mov	r4,r23
  803704:	01400284 	movi	r5,10
  803708:	980d883a 	mov	r6,r19
  80370c:	0803edc0 	call	803edc <memchr>
  803710:	10001726 	beq	r2,zero,803770 <__sfvwrite_r+0x470>
  803714:	15c5c83a 	sub	r2,r2,r23
  803718:	15000044 	addi	r20,r2,1
  80371c:	00800044 	movi	r2,1
  803720:	d8800015 	stw	r2,0(sp)
  803724:	003f9806 	br	803588 <__sfvwrite_r+0x288>
  803728:	b80b883a 	mov	r5,r23
  80372c:	800d883a 	mov	r6,r16
  803730:	08040600 	call	804060 <memmove>
  803734:	90c00017 	ldw	r3,0(r18)
  803738:	e009883a 	mov	r4,fp
  80373c:	900b883a 	mov	r5,r18
  803740:	1c07883a 	add	r3,r3,r16
  803744:	90c00015 	stw	r3,0(r18)
  803748:	8027883a 	mov	r19,r16
  80374c:	08048e00 	call	8048e0 <_fflush_r>
  803750:	103f6b26 	beq	r2,zero,803500 <__sfvwrite_r+0x200>
  803754:	003f7f06 	br	803554 <__sfvwrite_r+0x254>
  803758:	400b883a 	mov	r5,r8
  80375c:	e009883a 	mov	r4,fp
  803760:	08041400 	call	804140 <_realloc_r>
  803764:	103f7626 	beq	r2,zero,803540 <__sfvwrite_r+0x240>
  803768:	1023883a 	mov	r17,r2
  80376c:	003f5006 	br	8034b0 <__sfvwrite_r+0x1b0>
  803770:	00c00044 	movi	r3,1
  803774:	9d000044 	addi	r20,r19,1
  803778:	d8c00015 	stw	r3,0(sp)
  80377c:	003f8206 	br	803588 <__sfvwrite_r+0x288>
  803780:	9080030b 	ldhu	r2,12(r18)
  803784:	00c00244 	movi	r3,9
  803788:	013fffc4 	movi	r4,-1
  80378c:	10801014 	ori	r2,r2,64
  803790:	9080030d 	sth	r2,12(r18)
  803794:	e0c00015 	stw	r3,0(fp)
  803798:	003f0606 	br	8033b4 <__sfvwrite_r+0xb4>

0080379c <_malloc_r>:
  80379c:	defff604 	addi	sp,sp,-40
  8037a0:	28c002c4 	addi	r3,r5,11
  8037a4:	00800584 	movi	r2,22
  8037a8:	dc800215 	stw	r18,8(sp)
  8037ac:	dfc00915 	stw	ra,36(sp)
  8037b0:	df000815 	stw	fp,32(sp)
  8037b4:	ddc00715 	stw	r23,28(sp)
  8037b8:	dd800615 	stw	r22,24(sp)
  8037bc:	dd400515 	stw	r21,20(sp)
  8037c0:	dd000415 	stw	r20,16(sp)
  8037c4:	dcc00315 	stw	r19,12(sp)
  8037c8:	dc400115 	stw	r17,4(sp)
  8037cc:	dc000015 	stw	r16,0(sp)
  8037d0:	2025883a 	mov	r18,r4
  8037d4:	10c01236 	bltu	r2,r3,803820 <_malloc_r+0x84>
  8037d8:	04400404 	movi	r17,16
  8037dc:	8940142e 	bgeu	r17,r5,803830 <_malloc_r+0x94>
  8037e0:	00800304 	movi	r2,12
  8037e4:	0007883a 	mov	r3,zero
  8037e8:	90800015 	stw	r2,0(r18)
  8037ec:	1805883a 	mov	r2,r3
  8037f0:	dfc00917 	ldw	ra,36(sp)
  8037f4:	df000817 	ldw	fp,32(sp)
  8037f8:	ddc00717 	ldw	r23,28(sp)
  8037fc:	dd800617 	ldw	r22,24(sp)
  803800:	dd400517 	ldw	r21,20(sp)
  803804:	dd000417 	ldw	r20,16(sp)
  803808:	dcc00317 	ldw	r19,12(sp)
  80380c:	dc800217 	ldw	r18,8(sp)
  803810:	dc400117 	ldw	r17,4(sp)
  803814:	dc000017 	ldw	r16,0(sp)
  803818:	dec00a04 	addi	sp,sp,40
  80381c:	f800283a 	ret
  803820:	00bffe04 	movi	r2,-8
  803824:	18a2703a 	and	r17,r3,r2
  803828:	883fed16 	blt	r17,zero,8037e0 <_malloc_r+0x44>
  80382c:	897fec36 	bltu	r17,r5,8037e0 <_malloc_r+0x44>
  803830:	9009883a 	mov	r4,r18
  803834:	08064800 	call	806480 <__malloc_lock>
  803838:	00807dc4 	movi	r2,503
  80383c:	14402b2e 	bgeu	r2,r17,8038ec <_malloc_r+0x150>
  803840:	8806d27a 	srli	r3,r17,9
  803844:	18003f1e 	bne	r3,zero,803944 <_malloc_r+0x1a8>
  803848:	880cd0fa 	srli	r6,r17,3
  80384c:	300490fa 	slli	r2,r6,3
  803850:	02c02074 	movhi	r11,129
  803854:	5aeae504 	addi	r11,r11,-21612
  803858:	12cb883a 	add	r5,r2,r11
  80385c:	2c000317 	ldw	r16,12(r5)
  803860:	580f883a 	mov	r7,r11
  803864:	2c00041e 	bne	r5,r16,803878 <_malloc_r+0xdc>
  803868:	00000a06 	br	803894 <_malloc_r+0xf8>
  80386c:	1800860e 	bge	r3,zero,803a88 <_malloc_r+0x2ec>
  803870:	84000317 	ldw	r16,12(r16)
  803874:	2c000726 	beq	r5,r16,803894 <_malloc_r+0xf8>
  803878:	80800117 	ldw	r2,4(r16)
  80387c:	00ffff04 	movi	r3,-4
  803880:	10c8703a 	and	r4,r2,r3
  803884:	2447c83a 	sub	r3,r4,r17
  803888:	008003c4 	movi	r2,15
  80388c:	10fff70e 	bge	r2,r3,80386c <_malloc_r+0xd0>
  803890:	31bfffc4 	addi	r6,r6,-1
  803894:	32400044 	addi	r9,r6,1
  803898:	02802074 	movhi	r10,129
  80389c:	52aae704 	addi	r10,r10,-21604
  8038a0:	54000217 	ldw	r16,8(r10)
  8038a4:	8280a026 	beq	r16,r10,803b28 <_malloc_r+0x38c>
  8038a8:	80800117 	ldw	r2,4(r16)
  8038ac:	00ffff04 	movi	r3,-4
  8038b0:	10ca703a 	and	r5,r2,r3
  8038b4:	2c4dc83a 	sub	r6,r5,r17
  8038b8:	008003c4 	movi	r2,15
  8038bc:	11808316 	blt	r2,r6,803acc <_malloc_r+0x330>
  8038c0:	52800315 	stw	r10,12(r10)
  8038c4:	52800215 	stw	r10,8(r10)
  8038c8:	30002916 	blt	r6,zero,803970 <_malloc_r+0x1d4>
  8038cc:	8147883a 	add	r3,r16,r5
  8038d0:	18800117 	ldw	r2,4(r3)
  8038d4:	9009883a 	mov	r4,r18
  8038d8:	10800054 	ori	r2,r2,1
  8038dc:	18800115 	stw	r2,4(r3)
  8038e0:	08064a00 	call	8064a0 <__malloc_unlock>
  8038e4:	80c00204 	addi	r3,r16,8
  8038e8:	003fc006 	br	8037ec <_malloc_r+0x50>
  8038ec:	02c02074 	movhi	r11,129
  8038f0:	5aeae504 	addi	r11,r11,-21612
  8038f4:	8ac5883a 	add	r2,r17,r11
  8038f8:	14000317 	ldw	r16,12(r2)
  8038fc:	580f883a 	mov	r7,r11
  803900:	8806d0fa 	srli	r3,r17,3
  803904:	14006c26 	beq	r2,r16,803ab8 <_malloc_r+0x31c>
  803908:	80c00117 	ldw	r3,4(r16)
  80390c:	00bfff04 	movi	r2,-4
  803910:	81800317 	ldw	r6,12(r16)
  803914:	1886703a 	and	r3,r3,r2
  803918:	80c7883a 	add	r3,r16,r3
  80391c:	18800117 	ldw	r2,4(r3)
  803920:	81400217 	ldw	r5,8(r16)
  803924:	9009883a 	mov	r4,r18
  803928:	10800054 	ori	r2,r2,1
  80392c:	18800115 	stw	r2,4(r3)
  803930:	31400215 	stw	r5,8(r6)
  803934:	29800315 	stw	r6,12(r5)
  803938:	08064a00 	call	8064a0 <__malloc_unlock>
  80393c:	80c00204 	addi	r3,r16,8
  803940:	003faa06 	br	8037ec <_malloc_r+0x50>
  803944:	00800104 	movi	r2,4
  803948:	10c0052e 	bgeu	r2,r3,803960 <_malloc_r+0x1c4>
  80394c:	00800504 	movi	r2,20
  803950:	10c07836 	bltu	r2,r3,803b34 <_malloc_r+0x398>
  803954:	198016c4 	addi	r6,r3,91
  803958:	300490fa 	slli	r2,r6,3
  80395c:	003fbc06 	br	803850 <_malloc_r+0xb4>
  803960:	8804d1ba 	srli	r2,r17,6
  803964:	11800e04 	addi	r6,r2,56
  803968:	300490fa 	slli	r2,r6,3
  80396c:	003fb806 	br	803850 <_malloc_r+0xb4>
  803970:	00807fc4 	movi	r2,511
  803974:	1140bb36 	bltu	r2,r5,803c64 <_malloc_r+0x4c8>
  803978:	2806d0fa 	srli	r3,r5,3
  80397c:	573ffe04 	addi	fp,r10,-8
  803980:	00800044 	movi	r2,1
  803984:	180890fa 	slli	r4,r3,3
  803988:	1807d0ba 	srai	r3,r3,2
  80398c:	e1c00117 	ldw	r7,4(fp)
  803990:	5909883a 	add	r4,r11,r4
  803994:	21400217 	ldw	r5,8(r4)
  803998:	10c4983a 	sll	r2,r2,r3
  80399c:	81000315 	stw	r4,12(r16)
  8039a0:	81400215 	stw	r5,8(r16)
  8039a4:	388eb03a 	or	r7,r7,r2
  8039a8:	2c000315 	stw	r16,12(r5)
  8039ac:	24000215 	stw	r16,8(r4)
  8039b0:	e1c00115 	stw	r7,4(fp)
  8039b4:	4807883a 	mov	r3,r9
  8039b8:	4800cd16 	blt	r9,zero,803cf0 <_malloc_r+0x554>
  8039bc:	1807d0ba 	srai	r3,r3,2
  8039c0:	00800044 	movi	r2,1
  8039c4:	10c8983a 	sll	r4,r2,r3
  8039c8:	39004436 	bltu	r7,r4,803adc <_malloc_r+0x340>
  8039cc:	21c4703a 	and	r2,r4,r7
  8039d0:	10000a1e 	bne	r2,zero,8039fc <_malloc_r+0x260>
  8039d4:	2109883a 	add	r4,r4,r4
  8039d8:	00bfff04 	movi	r2,-4
  8039dc:	4884703a 	and	r2,r9,r2
  8039e0:	3906703a 	and	r3,r7,r4
  8039e4:	12400104 	addi	r9,r2,4
  8039e8:	1800041e 	bne	r3,zero,8039fc <_malloc_r+0x260>
  8039ec:	2109883a 	add	r4,r4,r4
  8039f0:	3904703a 	and	r2,r7,r4
  8039f4:	4a400104 	addi	r9,r9,4
  8039f8:	103ffc26 	beq	r2,zero,8039ec <_malloc_r+0x250>
  8039fc:	480490fa 	slli	r2,r9,3
  803a00:	4819883a 	mov	r12,r9
  803a04:	023fff04 	movi	r8,-4
  803a08:	589b883a 	add	r13,r11,r2
  803a0c:	6807883a 	mov	r3,r13
  803a10:	014003c4 	movi	r5,15
  803a14:	1c000317 	ldw	r16,12(r3)
  803a18:	1c00041e 	bne	r3,r16,803a2c <_malloc_r+0x290>
  803a1c:	0000a706 	br	803cbc <_malloc_r+0x520>
  803a20:	3000ab0e 	bge	r6,zero,803cd0 <_malloc_r+0x534>
  803a24:	84000317 	ldw	r16,12(r16)
  803a28:	1c00a426 	beq	r3,r16,803cbc <_malloc_r+0x520>
  803a2c:	80800117 	ldw	r2,4(r16)
  803a30:	1204703a 	and	r2,r2,r8
  803a34:	144dc83a 	sub	r6,r2,r17
  803a38:	29bff90e 	bge	r5,r6,803a20 <_malloc_r+0x284>
  803a3c:	81000317 	ldw	r4,12(r16)
  803a40:	80c00217 	ldw	r3,8(r16)
  803a44:	89400054 	ori	r5,r17,1
  803a48:	8445883a 	add	r2,r16,r17
  803a4c:	20c00215 	stw	r3,8(r4)
  803a50:	19000315 	stw	r4,12(r3)
  803a54:	81400115 	stw	r5,4(r16)
  803a58:	1187883a 	add	r3,r2,r6
  803a5c:	31000054 	ori	r4,r6,1
  803a60:	50800315 	stw	r2,12(r10)
  803a64:	50800215 	stw	r2,8(r10)
  803a68:	19800015 	stw	r6,0(r3)
  803a6c:	11000115 	stw	r4,4(r2)
  803a70:	12800215 	stw	r10,8(r2)
  803a74:	12800315 	stw	r10,12(r2)
  803a78:	9009883a 	mov	r4,r18
  803a7c:	08064a00 	call	8064a0 <__malloc_unlock>
  803a80:	80c00204 	addi	r3,r16,8
  803a84:	003f5906 	br	8037ec <_malloc_r+0x50>
  803a88:	8109883a 	add	r4,r16,r4
  803a8c:	20800117 	ldw	r2,4(r4)
  803a90:	80c00217 	ldw	r3,8(r16)
  803a94:	81400317 	ldw	r5,12(r16)
  803a98:	10800054 	ori	r2,r2,1
  803a9c:	20800115 	stw	r2,4(r4)
  803aa0:	28c00215 	stw	r3,8(r5)
  803aa4:	19400315 	stw	r5,12(r3)
  803aa8:	9009883a 	mov	r4,r18
  803aac:	08064a00 	call	8064a0 <__malloc_unlock>
  803ab0:	80c00204 	addi	r3,r16,8
  803ab4:	003f4d06 	br	8037ec <_malloc_r+0x50>
  803ab8:	80800204 	addi	r2,r16,8
  803abc:	14000317 	ldw	r16,12(r2)
  803ac0:	143f911e 	bne	r2,r16,803908 <_malloc_r+0x16c>
  803ac4:	1a400084 	addi	r9,r3,2
  803ac8:	003f7306 	br	803898 <_malloc_r+0xfc>
  803acc:	88c00054 	ori	r3,r17,1
  803ad0:	8445883a 	add	r2,r16,r17
  803ad4:	80c00115 	stw	r3,4(r16)
  803ad8:	003fdf06 	br	803a58 <_malloc_r+0x2bc>
  803adc:	e4000217 	ldw	r16,8(fp)
  803ae0:	00bfff04 	movi	r2,-4
  803ae4:	80c00117 	ldw	r3,4(r16)
  803ae8:	802d883a 	mov	r22,r16
  803aec:	18aa703a 	and	r21,r3,r2
  803af0:	ac401636 	bltu	r21,r17,803b4c <_malloc_r+0x3b0>
  803af4:	ac49c83a 	sub	r4,r21,r17
  803af8:	008003c4 	movi	r2,15
  803afc:	1100130e 	bge	r2,r4,803b4c <_malloc_r+0x3b0>
  803b00:	88800054 	ori	r2,r17,1
  803b04:	8447883a 	add	r3,r16,r17
  803b08:	80800115 	stw	r2,4(r16)
  803b0c:	20800054 	ori	r2,r4,1
  803b10:	18800115 	stw	r2,4(r3)
  803b14:	e0c00215 	stw	r3,8(fp)
  803b18:	9009883a 	mov	r4,r18
  803b1c:	08064a00 	call	8064a0 <__malloc_unlock>
  803b20:	80c00204 	addi	r3,r16,8
  803b24:	003f3106 	br	8037ec <_malloc_r+0x50>
  803b28:	39c00117 	ldw	r7,4(r7)
  803b2c:	573ffe04 	addi	fp,r10,-8
  803b30:	003fa006 	br	8039b4 <_malloc_r+0x218>
  803b34:	00801504 	movi	r2,84
  803b38:	10c06736 	bltu	r2,r3,803cd8 <_malloc_r+0x53c>
  803b3c:	8804d33a 	srli	r2,r17,12
  803b40:	11801b84 	addi	r6,r2,110
  803b44:	300490fa 	slli	r2,r6,3
  803b48:	003f4106 	br	803850 <_malloc_r+0xb4>
  803b4c:	d0a75e17 	ldw	r2,-25224(gp)
  803b50:	d0e00417 	ldw	r3,-32752(gp)
  803b54:	053fffc4 	movi	r20,-1
  803b58:	10800404 	addi	r2,r2,16
  803b5c:	88a7883a 	add	r19,r17,r2
  803b60:	1d000326 	beq	r3,r20,803b70 <_malloc_r+0x3d4>
  803b64:	98c3ffc4 	addi	r3,r19,4095
  803b68:	00bc0004 	movi	r2,-4096
  803b6c:	18a6703a 	and	r19,r3,r2
  803b70:	9009883a 	mov	r4,r18
  803b74:	980b883a 	mov	r5,r19
  803b78:	08047340 	call	804734 <_sbrk_r>
  803b7c:	1009883a 	mov	r4,r2
  803b80:	15000426 	beq	r2,r20,803b94 <_malloc_r+0x3f8>
  803b84:	854b883a 	add	r5,r16,r21
  803b88:	1029883a 	mov	r20,r2
  803b8c:	11405a2e 	bgeu	r2,r5,803cf8 <_malloc_r+0x55c>
  803b90:	87000c26 	beq	r16,fp,803bc4 <_malloc_r+0x428>
  803b94:	e4000217 	ldw	r16,8(fp)
  803b98:	80c00117 	ldw	r3,4(r16)
  803b9c:	00bfff04 	movi	r2,-4
  803ba0:	1884703a 	and	r2,r3,r2
  803ba4:	14400336 	bltu	r2,r17,803bb4 <_malloc_r+0x418>
  803ba8:	1449c83a 	sub	r4,r2,r17
  803bac:	008003c4 	movi	r2,15
  803bb0:	113fd316 	blt	r2,r4,803b00 <_malloc_r+0x364>
  803bb4:	9009883a 	mov	r4,r18
  803bb8:	08064a00 	call	8064a0 <__malloc_unlock>
  803bbc:	0007883a 	mov	r3,zero
  803bc0:	003f0a06 	br	8037ec <_malloc_r+0x50>
  803bc4:	05c02074 	movhi	r23,129
  803bc8:	bdf88604 	addi	r23,r23,-7656
  803bcc:	b8800017 	ldw	r2,0(r23)
  803bd0:	988d883a 	add	r6,r19,r2
  803bd4:	b9800015 	stw	r6,0(r23)
  803bd8:	d0e00417 	ldw	r3,-32752(gp)
  803bdc:	00bfffc4 	movi	r2,-1
  803be0:	18808e26 	beq	r3,r2,803e1c <_malloc_r+0x680>
  803be4:	2145c83a 	sub	r2,r4,r5
  803be8:	3085883a 	add	r2,r6,r2
  803bec:	b8800015 	stw	r2,0(r23)
  803bf0:	20c001cc 	andi	r3,r4,7
  803bf4:	18005f1e 	bne	r3,zero,803d74 <_malloc_r+0x5d8>
  803bf8:	000b883a 	mov	r5,zero
  803bfc:	a4c5883a 	add	r2,r20,r19
  803c00:	1083ffcc 	andi	r2,r2,4095
  803c04:	00c40004 	movi	r3,4096
  803c08:	1887c83a 	sub	r3,r3,r2
  803c0c:	28e7883a 	add	r19,r5,r3
  803c10:	9009883a 	mov	r4,r18
  803c14:	980b883a 	mov	r5,r19
  803c18:	08047340 	call	804734 <_sbrk_r>
  803c1c:	1007883a 	mov	r3,r2
  803c20:	00bfffc4 	movi	r2,-1
  803c24:	18807a26 	beq	r3,r2,803e10 <_malloc_r+0x674>
  803c28:	1d05c83a 	sub	r2,r3,r20
  803c2c:	9885883a 	add	r2,r19,r2
  803c30:	10c00054 	ori	r3,r2,1
  803c34:	b8800017 	ldw	r2,0(r23)
  803c38:	a021883a 	mov	r16,r20
  803c3c:	a0c00115 	stw	r3,4(r20)
  803c40:	9885883a 	add	r2,r19,r2
  803c44:	b8800015 	stw	r2,0(r23)
  803c48:	e5000215 	stw	r20,8(fp)
  803c4c:	b7003626 	beq	r22,fp,803d28 <_malloc_r+0x58c>
  803c50:	018003c4 	movi	r6,15
  803c54:	35404b36 	bltu	r6,r21,803d84 <_malloc_r+0x5e8>
  803c58:	00800044 	movi	r2,1
  803c5c:	a0800115 	stw	r2,4(r20)
  803c60:	003fcd06 	br	803b98 <_malloc_r+0x3fc>
  803c64:	2808d27a 	srli	r4,r5,9
  803c68:	2000371e 	bne	r4,zero,803d48 <_malloc_r+0x5ac>
  803c6c:	2808d0fa 	srli	r4,r5,3
  803c70:	200690fa 	slli	r3,r4,3
  803c74:	1ad1883a 	add	r8,r3,r11
  803c78:	41800217 	ldw	r6,8(r8)
  803c7c:	41805b26 	beq	r8,r6,803dec <_malloc_r+0x650>
  803c80:	30800117 	ldw	r2,4(r6)
  803c84:	00ffff04 	movi	r3,-4
  803c88:	10c4703a 	and	r2,r2,r3
  803c8c:	2880022e 	bgeu	r5,r2,803c98 <_malloc_r+0x4fc>
  803c90:	31800217 	ldw	r6,8(r6)
  803c94:	41bffa1e 	bne	r8,r6,803c80 <_malloc_r+0x4e4>
  803c98:	32000317 	ldw	r8,12(r6)
  803c9c:	39c00117 	ldw	r7,4(r7)
  803ca0:	82000315 	stw	r8,12(r16)
  803ca4:	81800215 	stw	r6,8(r16)
  803ca8:	07002074 	movhi	fp,129
  803cac:	e72ae504 	addi	fp,fp,-21612
  803cb0:	34000315 	stw	r16,12(r6)
  803cb4:	44000215 	stw	r16,8(r8)
  803cb8:	003f3e06 	br	8039b4 <_malloc_r+0x218>
  803cbc:	63000044 	addi	r12,r12,1
  803cc0:	608000cc 	andi	r2,r12,3
  803cc4:	10005d26 	beq	r2,zero,803e3c <_malloc_r+0x6a0>
  803cc8:	18c00204 	addi	r3,r3,8
  803ccc:	003f5106 	br	803a14 <_malloc_r+0x278>
  803cd0:	8089883a 	add	r4,r16,r2
  803cd4:	003f6d06 	br	803a8c <_malloc_r+0x2f0>
  803cd8:	00805504 	movi	r2,340
  803cdc:	10c02036 	bltu	r2,r3,803d60 <_malloc_r+0x5c4>
  803ce0:	8804d3fa 	srli	r2,r17,15
  803ce4:	11801dc4 	addi	r6,r2,119
  803ce8:	300490fa 	slli	r2,r6,3
  803cec:	003ed806 	br	803850 <_malloc_r+0xb4>
  803cf0:	48c000c4 	addi	r3,r9,3
  803cf4:	003f3106 	br	8039bc <_malloc_r+0x220>
  803cf8:	05c02074 	movhi	r23,129
  803cfc:	bdf88604 	addi	r23,r23,-7656
  803d00:	b8800017 	ldw	r2,0(r23)
  803d04:	988d883a 	add	r6,r19,r2
  803d08:	b9800015 	stw	r6,0(r23)
  803d0c:	293fb21e 	bne	r5,r4,803bd8 <_malloc_r+0x43c>
  803d10:	2083ffcc 	andi	r2,r4,4095
  803d14:	103fb01e 	bne	r2,zero,803bd8 <_malloc_r+0x43c>
  803d18:	e4000217 	ldw	r16,8(fp)
  803d1c:	9d45883a 	add	r2,r19,r21
  803d20:	10800054 	ori	r2,r2,1
  803d24:	80800115 	stw	r2,4(r16)
  803d28:	b8c00017 	ldw	r3,0(r23)
  803d2c:	d0a75f17 	ldw	r2,-25220(gp)
  803d30:	10c0012e 	bgeu	r2,r3,803d38 <_malloc_r+0x59c>
  803d34:	d0e75f15 	stw	r3,-25220(gp)
  803d38:	d0a76017 	ldw	r2,-25216(gp)
  803d3c:	10ff962e 	bgeu	r2,r3,803b98 <_malloc_r+0x3fc>
  803d40:	d0e76015 	stw	r3,-25216(gp)
  803d44:	003f9406 	br	803b98 <_malloc_r+0x3fc>
  803d48:	00800104 	movi	r2,4
  803d4c:	11001e36 	bltu	r2,r4,803dc8 <_malloc_r+0x62c>
  803d50:	2804d1ba 	srli	r2,r5,6
  803d54:	11000e04 	addi	r4,r2,56
  803d58:	200690fa 	slli	r3,r4,3
  803d5c:	003fc506 	br	803c74 <_malloc_r+0x4d8>
  803d60:	00815504 	movi	r2,1364
  803d64:	10c01d2e 	bgeu	r2,r3,803ddc <_malloc_r+0x640>
  803d68:	01801f84 	movi	r6,126
  803d6c:	0080fc04 	movi	r2,1008
  803d70:	003eb706 	br	803850 <_malloc_r+0xb4>
  803d74:	00800204 	movi	r2,8
  803d78:	10cbc83a 	sub	r5,r2,r3
  803d7c:	2169883a 	add	r20,r4,r5
  803d80:	003f9e06 	br	803bfc <_malloc_r+0x460>
  803d84:	00bffe04 	movi	r2,-8
  803d88:	a93ffd04 	addi	r4,r21,-12
  803d8c:	2088703a 	and	r4,r4,r2
  803d90:	b10b883a 	add	r5,r22,r4
  803d94:	00c00144 	movi	r3,5
  803d98:	28c00215 	stw	r3,8(r5)
  803d9c:	28c00115 	stw	r3,4(r5)
  803da0:	b0800117 	ldw	r2,4(r22)
  803da4:	1080004c 	andi	r2,r2,1
  803da8:	2084b03a 	or	r2,r4,r2
  803dac:	b0800115 	stw	r2,4(r22)
  803db0:	313fdd2e 	bgeu	r6,r4,803d28 <_malloc_r+0x58c>
  803db4:	b1400204 	addi	r5,r22,8
  803db8:	9009883a 	mov	r4,r18
  803dbc:	0804efc0 	call	804efc <_free_r>
  803dc0:	e4000217 	ldw	r16,8(fp)
  803dc4:	003fd806 	br	803d28 <_malloc_r+0x58c>
  803dc8:	00800504 	movi	r2,20
  803dcc:	11001536 	bltu	r2,r4,803e24 <_malloc_r+0x688>
  803dd0:	210016c4 	addi	r4,r4,91
  803dd4:	200690fa 	slli	r3,r4,3
  803dd8:	003fa606 	br	803c74 <_malloc_r+0x4d8>
  803ddc:	8804d4ba 	srli	r2,r17,18
  803de0:	11801f04 	addi	r6,r2,124
  803de4:	300490fa 	slli	r2,r6,3
  803de8:	003e9906 	br	803850 <_malloc_r+0xb4>
  803dec:	2009d0ba 	srai	r4,r4,2
  803df0:	01402074 	movhi	r5,129
  803df4:	296ae504 	addi	r5,r5,-21612
  803df8:	00c00044 	movi	r3,1
  803dfc:	28800117 	ldw	r2,4(r5)
  803e00:	1906983a 	sll	r3,r3,r4
  803e04:	10c4b03a 	or	r2,r2,r3
  803e08:	28800115 	stw	r2,4(r5)
  803e0c:	003fa306 	br	803c9c <_malloc_r+0x500>
  803e10:	0027883a 	mov	r19,zero
  803e14:	00c00044 	movi	r3,1
  803e18:	003f8606 	br	803c34 <_malloc_r+0x498>
  803e1c:	d1200415 	stw	r4,-32752(gp)
  803e20:	003f7306 	br	803bf0 <_malloc_r+0x454>
  803e24:	00801504 	movi	r2,84
  803e28:	11001936 	bltu	r2,r4,803e90 <_malloc_r+0x6f4>
  803e2c:	2804d33a 	srli	r2,r5,12
  803e30:	11001b84 	addi	r4,r2,110
  803e34:	200690fa 	slli	r3,r4,3
  803e38:	003f8e06 	br	803c74 <_malloc_r+0x4d8>
  803e3c:	480b883a 	mov	r5,r9
  803e40:	6807883a 	mov	r3,r13
  803e44:	288000cc 	andi	r2,r5,3
  803e48:	18fffe04 	addi	r3,r3,-8
  803e4c:	297fffc4 	addi	r5,r5,-1
  803e50:	10001526 	beq	r2,zero,803ea8 <_malloc_r+0x70c>
  803e54:	18800217 	ldw	r2,8(r3)
  803e58:	10fffa26 	beq	r2,r3,803e44 <_malloc_r+0x6a8>
  803e5c:	2109883a 	add	r4,r4,r4
  803e60:	393f1e36 	bltu	r7,r4,803adc <_malloc_r+0x340>
  803e64:	203f1d26 	beq	r4,zero,803adc <_malloc_r+0x340>
  803e68:	21c4703a 	and	r2,r4,r7
  803e6c:	10000226 	beq	r2,zero,803e78 <_malloc_r+0x6dc>
  803e70:	6013883a 	mov	r9,r12
  803e74:	003ee106 	br	8039fc <_malloc_r+0x260>
  803e78:	2109883a 	add	r4,r4,r4
  803e7c:	3904703a 	and	r2,r7,r4
  803e80:	63000104 	addi	r12,r12,4
  803e84:	103ffc26 	beq	r2,zero,803e78 <_malloc_r+0x6dc>
  803e88:	6013883a 	mov	r9,r12
  803e8c:	003edb06 	br	8039fc <_malloc_r+0x260>
  803e90:	00805504 	movi	r2,340
  803e94:	11000836 	bltu	r2,r4,803eb8 <_malloc_r+0x71c>
  803e98:	2804d3fa 	srli	r2,r5,15
  803e9c:	11001dc4 	addi	r4,r2,119
  803ea0:	200690fa 	slli	r3,r4,3
  803ea4:	003f7306 	br	803c74 <_malloc_r+0x4d8>
  803ea8:	0104303a 	nor	r2,zero,r4
  803eac:	388e703a 	and	r7,r7,r2
  803eb0:	e1c00115 	stw	r7,4(fp)
  803eb4:	003fe906 	br	803e5c <_malloc_r+0x6c0>
  803eb8:	00815504 	movi	r2,1364
  803ebc:	1100032e 	bgeu	r2,r4,803ecc <_malloc_r+0x730>
  803ec0:	01001f84 	movi	r4,126
  803ec4:	00c0fc04 	movi	r3,1008
  803ec8:	003f6a06 	br	803c74 <_malloc_r+0x4d8>
  803ecc:	2804d4ba 	srli	r2,r5,18
  803ed0:	11001f04 	addi	r4,r2,124
  803ed4:	200690fa 	slli	r3,r4,3
  803ed8:	003f6606 	br	803c74 <_malloc_r+0x4d8>

00803edc <memchr>:
  803edc:	008000c4 	movi	r2,3
  803ee0:	29403fcc 	andi	r5,r5,255
  803ee4:	2007883a 	mov	r3,r4
  803ee8:	1180022e 	bgeu	r2,r6,803ef4 <memchr+0x18>
  803eec:	2084703a 	and	r2,r4,r2
  803ef0:	10000b26 	beq	r2,zero,803f20 <memchr+0x44>
  803ef4:	313fffc4 	addi	r4,r6,-1
  803ef8:	3000051e 	bne	r6,zero,803f10 <memchr+0x34>
  803efc:	00002c06 	br	803fb0 <memchr+0xd4>
  803f00:	213fffc4 	addi	r4,r4,-1
  803f04:	00bfffc4 	movi	r2,-1
  803f08:	18c00044 	addi	r3,r3,1
  803f0c:	20802826 	beq	r4,r2,803fb0 <memchr+0xd4>
  803f10:	18800003 	ldbu	r2,0(r3)
  803f14:	28bffa1e 	bne	r5,r2,803f00 <memchr+0x24>
  803f18:	1805883a 	mov	r2,r3
  803f1c:	f800283a 	ret
  803f20:	0011883a 	mov	r8,zero
  803f24:	0007883a 	mov	r3,zero
  803f28:	01c00104 	movi	r7,4
  803f2c:	4004923a 	slli	r2,r8,8
  803f30:	18c00044 	addi	r3,r3,1
  803f34:	1151883a 	add	r8,r2,r5
  803f38:	19fffc1e 	bne	r3,r7,803f2c <memchr+0x50>
  803f3c:	02bfbff4 	movhi	r10,65279
  803f40:	52bfbfc4 	addi	r10,r10,-257
  803f44:	02602074 	movhi	r9,32897
  803f48:	4a602004 	addi	r9,r9,-32640
  803f4c:	02c000c4 	movi	r11,3
  803f50:	20800017 	ldw	r2,0(r4)
  803f54:	31bfff04 	addi	r6,r6,-4
  803f58:	200f883a 	mov	r7,r4
  803f5c:	1204f03a 	xor	r2,r2,r8
  803f60:	1287883a 	add	r3,r2,r10
  803f64:	1a46703a 	and	r3,r3,r9
  803f68:	0084303a 	nor	r2,zero,r2
  803f6c:	10c4703a 	and	r2,r2,r3
  803f70:	10000b26 	beq	r2,zero,803fa0 <memchr+0xc4>
  803f74:	20800003 	ldbu	r2,0(r4)
  803f78:	28800f26 	beq	r5,r2,803fb8 <memchr+0xdc>
  803f7c:	20800043 	ldbu	r2,1(r4)
  803f80:	21c00044 	addi	r7,r4,1
  803f84:	28800c26 	beq	r5,r2,803fb8 <memchr+0xdc>
  803f88:	20800083 	ldbu	r2,2(r4)
  803f8c:	21c00084 	addi	r7,r4,2
  803f90:	28800926 	beq	r5,r2,803fb8 <memchr+0xdc>
  803f94:	208000c3 	ldbu	r2,3(r4)
  803f98:	21c000c4 	addi	r7,r4,3
  803f9c:	28800626 	beq	r5,r2,803fb8 <memchr+0xdc>
  803fa0:	21000104 	addi	r4,r4,4
  803fa4:	59bfea36 	bltu	r11,r6,803f50 <memchr+0x74>
  803fa8:	2007883a 	mov	r3,r4
  803fac:	003fd106 	br	803ef4 <memchr+0x18>
  803fb0:	0005883a 	mov	r2,zero
  803fb4:	f800283a 	ret
  803fb8:	3805883a 	mov	r2,r7
  803fbc:	f800283a 	ret

00803fc0 <memcpy>:
  803fc0:	01c003c4 	movi	r7,15
  803fc4:	2007883a 	mov	r3,r4
  803fc8:	3980032e 	bgeu	r7,r6,803fd8 <memcpy+0x18>
  803fcc:	2904b03a 	or	r2,r5,r4
  803fd0:	108000cc 	andi	r2,r2,3
  803fd4:	10000926 	beq	r2,zero,803ffc <memcpy+0x3c>
  803fd8:	30000626 	beq	r6,zero,803ff4 <memcpy+0x34>
  803fdc:	30cd883a 	add	r6,r6,r3
  803fe0:	28800003 	ldbu	r2,0(r5)
  803fe4:	29400044 	addi	r5,r5,1
  803fe8:	18800005 	stb	r2,0(r3)
  803fec:	18c00044 	addi	r3,r3,1
  803ff0:	30fffb1e 	bne	r6,r3,803fe0 <memcpy+0x20>
  803ff4:	2005883a 	mov	r2,r4
  803ff8:	f800283a 	ret
  803ffc:	3811883a 	mov	r8,r7
  804000:	200f883a 	mov	r7,r4
  804004:	28c00017 	ldw	r3,0(r5)
  804008:	31bffc04 	addi	r6,r6,-16
  80400c:	38c00015 	stw	r3,0(r7)
  804010:	28800117 	ldw	r2,4(r5)
  804014:	38800115 	stw	r2,4(r7)
  804018:	28c00217 	ldw	r3,8(r5)
  80401c:	38c00215 	stw	r3,8(r7)
  804020:	28800317 	ldw	r2,12(r5)
  804024:	29400404 	addi	r5,r5,16
  804028:	38800315 	stw	r2,12(r7)
  80402c:	39c00404 	addi	r7,r7,16
  804030:	41bff436 	bltu	r8,r6,804004 <memcpy+0x44>
  804034:	008000c4 	movi	r2,3
  804038:	1180072e 	bgeu	r2,r6,804058 <memcpy+0x98>
  80403c:	1007883a 	mov	r3,r2
  804040:	28800017 	ldw	r2,0(r5)
  804044:	31bfff04 	addi	r6,r6,-4
  804048:	29400104 	addi	r5,r5,4
  80404c:	38800015 	stw	r2,0(r7)
  804050:	39c00104 	addi	r7,r7,4
  804054:	19bffa36 	bltu	r3,r6,804040 <memcpy+0x80>
  804058:	3807883a 	mov	r3,r7
  80405c:	003fde06 	br	803fd8 <memcpy+0x18>

00804060 <memmove>:
  804060:	2807883a 	mov	r3,r5
  804064:	2011883a 	mov	r8,r4
  804068:	29000c2e 	bgeu	r5,r4,80409c <memmove+0x3c>
  80406c:	298f883a 	add	r7,r5,r6
  804070:	21c00a2e 	bgeu	r4,r7,80409c <memmove+0x3c>
  804074:	30000726 	beq	r6,zero,804094 <memmove+0x34>
  804078:	2187883a 	add	r3,r4,r6
  80407c:	198dc83a 	sub	r6,r3,r6
  804080:	39ffffc4 	addi	r7,r7,-1
  804084:	38800003 	ldbu	r2,0(r7)
  804088:	18ffffc4 	addi	r3,r3,-1
  80408c:	18800005 	stb	r2,0(r3)
  804090:	19bffb1e 	bne	r3,r6,804080 <memmove+0x20>
  804094:	2005883a 	mov	r2,r4
  804098:	f800283a 	ret
  80409c:	01c003c4 	movi	r7,15
  8040a0:	39800a36 	bltu	r7,r6,8040cc <memmove+0x6c>
  8040a4:	303ffb26 	beq	r6,zero,804094 <memmove+0x34>
  8040a8:	400f883a 	mov	r7,r8
  8040ac:	320d883a 	add	r6,r6,r8
  8040b0:	28800003 	ldbu	r2,0(r5)
  8040b4:	29400044 	addi	r5,r5,1
  8040b8:	38800005 	stb	r2,0(r7)
  8040bc:	39c00044 	addi	r7,r7,1
  8040c0:	39bffb1e 	bne	r7,r6,8040b0 <memmove+0x50>
  8040c4:	2005883a 	mov	r2,r4
  8040c8:	f800283a 	ret
  8040cc:	1904b03a 	or	r2,r3,r4
  8040d0:	108000cc 	andi	r2,r2,3
  8040d4:	103ff31e 	bne	r2,zero,8040a4 <memmove+0x44>
  8040d8:	3811883a 	mov	r8,r7
  8040dc:	180b883a 	mov	r5,r3
  8040e0:	200f883a 	mov	r7,r4
  8040e4:	28c00017 	ldw	r3,0(r5)
  8040e8:	31bffc04 	addi	r6,r6,-16
  8040ec:	38c00015 	stw	r3,0(r7)
  8040f0:	28800117 	ldw	r2,4(r5)
  8040f4:	38800115 	stw	r2,4(r7)
  8040f8:	28c00217 	ldw	r3,8(r5)
  8040fc:	38c00215 	stw	r3,8(r7)
  804100:	28800317 	ldw	r2,12(r5)
  804104:	29400404 	addi	r5,r5,16
  804108:	38800315 	stw	r2,12(r7)
  80410c:	39c00404 	addi	r7,r7,16
  804110:	41bff436 	bltu	r8,r6,8040e4 <memmove+0x84>
  804114:	008000c4 	movi	r2,3
  804118:	1180072e 	bgeu	r2,r6,804138 <memmove+0xd8>
  80411c:	1007883a 	mov	r3,r2
  804120:	28800017 	ldw	r2,0(r5)
  804124:	31bfff04 	addi	r6,r6,-4
  804128:	29400104 	addi	r5,r5,4
  80412c:	38800015 	stw	r2,0(r7)
  804130:	39c00104 	addi	r7,r7,4
  804134:	19bffa36 	bltu	r3,r6,804120 <memmove+0xc0>
  804138:	3811883a 	mov	r8,r7
  80413c:	003fd906 	br	8040a4 <memmove+0x44>

00804140 <_realloc_r>:
  804140:	defff404 	addi	sp,sp,-48
  804144:	dd800815 	stw	r22,32(sp)
  804148:	dc800415 	stw	r18,16(sp)
  80414c:	dc400315 	stw	r17,12(sp)
  804150:	dfc00b15 	stw	ra,44(sp)
  804154:	df000a15 	stw	fp,40(sp)
  804158:	ddc00915 	stw	r23,36(sp)
  80415c:	dd400715 	stw	r21,28(sp)
  804160:	dd000615 	stw	r20,24(sp)
  804164:	dcc00515 	stw	r19,20(sp)
  804168:	dc000215 	stw	r16,8(sp)
  80416c:	2825883a 	mov	r18,r5
  804170:	3023883a 	mov	r17,r6
  804174:	202d883a 	mov	r22,r4
  804178:	2800c926 	beq	r5,zero,8044a0 <_realloc_r+0x360>
  80417c:	08064800 	call	806480 <__malloc_lock>
  804180:	943ffe04 	addi	r16,r18,-8
  804184:	88c002c4 	addi	r3,r17,11
  804188:	00800584 	movi	r2,22
  80418c:	82000117 	ldw	r8,4(r16)
  804190:	10c01b2e 	bgeu	r2,r3,804200 <_realloc_r+0xc0>
  804194:	00bffe04 	movi	r2,-8
  804198:	188e703a 	and	r7,r3,r2
  80419c:	3839883a 	mov	fp,r7
  8041a0:	38001a16 	blt	r7,zero,80420c <_realloc_r+0xcc>
  8041a4:	e4401936 	bltu	fp,r17,80420c <_realloc_r+0xcc>
  8041a8:	013fff04 	movi	r4,-4
  8041ac:	4126703a 	and	r19,r8,r4
  8041b0:	99c02616 	blt	r19,r7,80424c <_realloc_r+0x10c>
  8041b4:	802b883a 	mov	r21,r16
  8041b8:	9829883a 	mov	r20,r19
  8041bc:	84000204 	addi	r16,r16,8
  8041c0:	a80f883a 	mov	r7,r21
  8041c4:	a70dc83a 	sub	r6,r20,fp
  8041c8:	008003c4 	movi	r2,15
  8041cc:	1180c136 	bltu	r2,r6,8044d4 <_realloc_r+0x394>
  8041d0:	38800117 	ldw	r2,4(r7)
  8041d4:	a549883a 	add	r4,r20,r21
  8041d8:	1080004c 	andi	r2,r2,1
  8041dc:	a084b03a 	or	r2,r20,r2
  8041e0:	38800115 	stw	r2,4(r7)
  8041e4:	20c00117 	ldw	r3,4(r4)
  8041e8:	18c00054 	ori	r3,r3,1
  8041ec:	20c00115 	stw	r3,4(r4)
  8041f0:	b009883a 	mov	r4,r22
  8041f4:	08064a00 	call	8064a0 <__malloc_unlock>
  8041f8:	8023883a 	mov	r17,r16
  8041fc:	00000606 	br	804218 <_realloc_r+0xd8>
  804200:	01c00404 	movi	r7,16
  804204:	3839883a 	mov	fp,r7
  804208:	e47fe72e 	bgeu	fp,r17,8041a8 <_realloc_r+0x68>
  80420c:	00800304 	movi	r2,12
  804210:	0023883a 	mov	r17,zero
  804214:	b0800015 	stw	r2,0(r22)
  804218:	8805883a 	mov	r2,r17
  80421c:	dfc00b17 	ldw	ra,44(sp)
  804220:	df000a17 	ldw	fp,40(sp)
  804224:	ddc00917 	ldw	r23,36(sp)
  804228:	dd800817 	ldw	r22,32(sp)
  80422c:	dd400717 	ldw	r21,28(sp)
  804230:	dd000617 	ldw	r20,24(sp)
  804234:	dcc00517 	ldw	r19,20(sp)
  804238:	dc800417 	ldw	r18,16(sp)
  80423c:	dc400317 	ldw	r17,12(sp)
  804240:	dc000217 	ldw	r16,8(sp)
  804244:	dec00c04 	addi	sp,sp,48
  804248:	f800283a 	ret
  80424c:	00802074 	movhi	r2,129
  804250:	10aae504 	addi	r2,r2,-21612
  804254:	12400217 	ldw	r9,8(r2)
  804258:	84cd883a 	add	r6,r16,r19
  80425c:	802b883a 	mov	r21,r16
  804260:	3240b926 	beq	r6,r9,804548 <_realloc_r+0x408>
  804264:	31400117 	ldw	r5,4(r6)
  804268:	00bfff84 	movi	r2,-2
  80426c:	2884703a 	and	r2,r5,r2
  804270:	1185883a 	add	r2,r2,r6
  804274:	10c00117 	ldw	r3,4(r2)
  804278:	18c0004c 	andi	r3,r3,1
  80427c:	1807003a 	cmpeq	r3,r3,zero
  804280:	1800a326 	beq	r3,zero,804510 <_realloc_r+0x3d0>
  804284:	2908703a 	and	r4,r5,r4
  804288:	9929883a 	add	r20,r19,r4
  80428c:	a1c0a30e 	bge	r20,r7,80451c <_realloc_r+0x3dc>
  804290:	4080004c 	andi	r2,r8,1
  804294:	1000551e 	bne	r2,zero,8043ec <_realloc_r+0x2ac>
  804298:	80800017 	ldw	r2,0(r16)
  80429c:	80afc83a 	sub	r23,r16,r2
  8042a0:	b8c00117 	ldw	r3,4(r23)
  8042a4:	00bfff04 	movi	r2,-4
  8042a8:	1884703a 	and	r2,r3,r2
  8042ac:	30002e26 	beq	r6,zero,804368 <_realloc_r+0x228>
  8042b0:	3240b926 	beq	r6,r9,804598 <_realloc_r+0x458>
  8042b4:	98a9883a 	add	r20,r19,r2
  8042b8:	2509883a 	add	r4,r4,r20
  8042bc:	d9000015 	stw	r4,0(sp)
  8042c0:	21c02a16 	blt	r4,r7,80436c <_realloc_r+0x22c>
  8042c4:	30800317 	ldw	r2,12(r6)
  8042c8:	30c00217 	ldw	r3,8(r6)
  8042cc:	01400904 	movi	r5,36
  8042d0:	99bfff04 	addi	r6,r19,-4
  8042d4:	18800315 	stw	r2,12(r3)
  8042d8:	10c00215 	stw	r3,8(r2)
  8042dc:	b9000317 	ldw	r4,12(r23)
  8042e0:	b8800217 	ldw	r2,8(r23)
  8042e4:	b82b883a 	mov	r21,r23
  8042e8:	bc000204 	addi	r16,r23,8
  8042ec:	20800215 	stw	r2,8(r4)
  8042f0:	11000315 	stw	r4,12(r2)
  8042f4:	2980e436 	bltu	r5,r6,804688 <_realloc_r+0x548>
  8042f8:	008004c4 	movi	r2,19
  8042fc:	9009883a 	mov	r4,r18
  804300:	8011883a 	mov	r8,r16
  804304:	11800f2e 	bgeu	r2,r6,804344 <_realloc_r+0x204>
  804308:	90800017 	ldw	r2,0(r18)
  80430c:	ba000404 	addi	r8,r23,16
  804310:	91000204 	addi	r4,r18,8
  804314:	b8800215 	stw	r2,8(r23)
  804318:	90c00117 	ldw	r3,4(r18)
  80431c:	008006c4 	movi	r2,27
  804320:	b8c00315 	stw	r3,12(r23)
  804324:	1180072e 	bgeu	r2,r6,804344 <_realloc_r+0x204>
  804328:	90c00217 	ldw	r3,8(r18)
  80432c:	ba000604 	addi	r8,r23,24
  804330:	91000404 	addi	r4,r18,16
  804334:	b8c00415 	stw	r3,16(r23)
  804338:	90800317 	ldw	r2,12(r18)
  80433c:	b8800515 	stw	r2,20(r23)
  804340:	3140e726 	beq	r6,r5,8046e0 <_realloc_r+0x5a0>
  804344:	20800017 	ldw	r2,0(r4)
  804348:	dd000017 	ldw	r20,0(sp)
  80434c:	b80f883a 	mov	r7,r23
  804350:	40800015 	stw	r2,0(r8)
  804354:	20c00117 	ldw	r3,4(r4)
  804358:	40c00115 	stw	r3,4(r8)
  80435c:	20800217 	ldw	r2,8(r4)
  804360:	40800215 	stw	r2,8(r8)
  804364:	003f9706 	br	8041c4 <_realloc_r+0x84>
  804368:	98a9883a 	add	r20,r19,r2
  80436c:	a1c01f16 	blt	r20,r7,8043ec <_realloc_r+0x2ac>
  804370:	b8c00317 	ldw	r3,12(r23)
  804374:	b8800217 	ldw	r2,8(r23)
  804378:	99bfff04 	addi	r6,r19,-4
  80437c:	01400904 	movi	r5,36
  804380:	b82b883a 	mov	r21,r23
  804384:	18800215 	stw	r2,8(r3)
  804388:	10c00315 	stw	r3,12(r2)
  80438c:	bc000204 	addi	r16,r23,8
  804390:	2980c336 	bltu	r5,r6,8046a0 <_realloc_r+0x560>
  804394:	008004c4 	movi	r2,19
  804398:	9009883a 	mov	r4,r18
  80439c:	8011883a 	mov	r8,r16
  8043a0:	11800f2e 	bgeu	r2,r6,8043e0 <_realloc_r+0x2a0>
  8043a4:	90800017 	ldw	r2,0(r18)
  8043a8:	ba000404 	addi	r8,r23,16
  8043ac:	91000204 	addi	r4,r18,8
  8043b0:	b8800215 	stw	r2,8(r23)
  8043b4:	90c00117 	ldw	r3,4(r18)
  8043b8:	008006c4 	movi	r2,27
  8043bc:	b8c00315 	stw	r3,12(r23)
  8043c0:	1180072e 	bgeu	r2,r6,8043e0 <_realloc_r+0x2a0>
  8043c4:	90c00217 	ldw	r3,8(r18)
  8043c8:	ba000604 	addi	r8,r23,24
  8043cc:	91000404 	addi	r4,r18,16
  8043d0:	b8c00415 	stw	r3,16(r23)
  8043d4:	90800317 	ldw	r2,12(r18)
  8043d8:	b8800515 	stw	r2,20(r23)
  8043dc:	3140c726 	beq	r6,r5,8046fc <_realloc_r+0x5bc>
  8043e0:	20800017 	ldw	r2,0(r4)
  8043e4:	b80f883a 	mov	r7,r23
  8043e8:	003fd906 	br	804350 <_realloc_r+0x210>
  8043ec:	880b883a 	mov	r5,r17
  8043f0:	b009883a 	mov	r4,r22
  8043f4:	080379c0 	call	80379c <_malloc_r>
  8043f8:	1023883a 	mov	r17,r2
  8043fc:	10002526 	beq	r2,zero,804494 <_realloc_r+0x354>
  804400:	80800117 	ldw	r2,4(r16)
  804404:	00ffff84 	movi	r3,-2
  804408:	893ffe04 	addi	r4,r17,-8
  80440c:	10c4703a 	and	r2,r2,r3
  804410:	8085883a 	add	r2,r16,r2
  804414:	20809526 	beq	r4,r2,80466c <_realloc_r+0x52c>
  804418:	99bfff04 	addi	r6,r19,-4
  80441c:	01c00904 	movi	r7,36
  804420:	39804536 	bltu	r7,r6,804538 <_realloc_r+0x3f8>
  804424:	008004c4 	movi	r2,19
  804428:	9009883a 	mov	r4,r18
  80442c:	880b883a 	mov	r5,r17
  804430:	11800f2e 	bgeu	r2,r6,804470 <_realloc_r+0x330>
  804434:	90800017 	ldw	r2,0(r18)
  804438:	89400204 	addi	r5,r17,8
  80443c:	91000204 	addi	r4,r18,8
  804440:	88800015 	stw	r2,0(r17)
  804444:	90c00117 	ldw	r3,4(r18)
  804448:	008006c4 	movi	r2,27
  80444c:	88c00115 	stw	r3,4(r17)
  804450:	1180072e 	bgeu	r2,r6,804470 <_realloc_r+0x330>
  804454:	90c00217 	ldw	r3,8(r18)
  804458:	89400404 	addi	r5,r17,16
  80445c:	91000404 	addi	r4,r18,16
  804460:	88c00215 	stw	r3,8(r17)
  804464:	90800317 	ldw	r2,12(r18)
  804468:	88800315 	stw	r2,12(r17)
  80446c:	31c09126 	beq	r6,r7,8046b4 <_realloc_r+0x574>
  804470:	20800017 	ldw	r2,0(r4)
  804474:	28800015 	stw	r2,0(r5)
  804478:	20c00117 	ldw	r3,4(r4)
  80447c:	28c00115 	stw	r3,4(r5)
  804480:	20800217 	ldw	r2,8(r4)
  804484:	28800215 	stw	r2,8(r5)
  804488:	900b883a 	mov	r5,r18
  80448c:	b009883a 	mov	r4,r22
  804490:	0804efc0 	call	804efc <_free_r>
  804494:	b009883a 	mov	r4,r22
  804498:	08064a00 	call	8064a0 <__malloc_unlock>
  80449c:	003f5e06 	br	804218 <_realloc_r+0xd8>
  8044a0:	300b883a 	mov	r5,r6
  8044a4:	dfc00b17 	ldw	ra,44(sp)
  8044a8:	df000a17 	ldw	fp,40(sp)
  8044ac:	ddc00917 	ldw	r23,36(sp)
  8044b0:	dd800817 	ldw	r22,32(sp)
  8044b4:	dd400717 	ldw	r21,28(sp)
  8044b8:	dd000617 	ldw	r20,24(sp)
  8044bc:	dcc00517 	ldw	r19,20(sp)
  8044c0:	dc800417 	ldw	r18,16(sp)
  8044c4:	dc400317 	ldw	r17,12(sp)
  8044c8:	dc000217 	ldw	r16,8(sp)
  8044cc:	dec00c04 	addi	sp,sp,48
  8044d0:	080379c1 	jmpi	80379c <_malloc_r>
  8044d4:	38800117 	ldw	r2,4(r7)
  8044d8:	e54b883a 	add	r5,fp,r21
  8044dc:	31000054 	ori	r4,r6,1
  8044e0:	1080004c 	andi	r2,r2,1
  8044e4:	1704b03a 	or	r2,r2,fp
  8044e8:	38800115 	stw	r2,4(r7)
  8044ec:	29000115 	stw	r4,4(r5)
  8044f0:	2987883a 	add	r3,r5,r6
  8044f4:	18800117 	ldw	r2,4(r3)
  8044f8:	29400204 	addi	r5,r5,8
  8044fc:	b009883a 	mov	r4,r22
  804500:	10800054 	ori	r2,r2,1
  804504:	18800115 	stw	r2,4(r3)
  804508:	0804efc0 	call	804efc <_free_r>
  80450c:	003f3806 	br	8041f0 <_realloc_r+0xb0>
  804510:	000d883a 	mov	r6,zero
  804514:	0009883a 	mov	r4,zero
  804518:	003f5d06 	br	804290 <_realloc_r+0x150>
  80451c:	30c00217 	ldw	r3,8(r6)
  804520:	30800317 	ldw	r2,12(r6)
  804524:	800f883a 	mov	r7,r16
  804528:	84000204 	addi	r16,r16,8
  80452c:	10c00215 	stw	r3,8(r2)
  804530:	18800315 	stw	r2,12(r3)
  804534:	003f2306 	br	8041c4 <_realloc_r+0x84>
  804538:	8809883a 	mov	r4,r17
  80453c:	900b883a 	mov	r5,r18
  804540:	08040600 	call	804060 <memmove>
  804544:	003fd006 	br	804488 <_realloc_r+0x348>
  804548:	30800117 	ldw	r2,4(r6)
  80454c:	e0c00404 	addi	r3,fp,16
  804550:	1108703a 	and	r4,r2,r4
  804554:	9905883a 	add	r2,r19,r4
  804558:	10ff4d16 	blt	r2,r3,804290 <_realloc_r+0x150>
  80455c:	1705c83a 	sub	r2,r2,fp
  804560:	870b883a 	add	r5,r16,fp
  804564:	10800054 	ori	r2,r2,1
  804568:	28800115 	stw	r2,4(r5)
  80456c:	80c00117 	ldw	r3,4(r16)
  804570:	00802074 	movhi	r2,129
  804574:	10aae504 	addi	r2,r2,-21612
  804578:	b009883a 	mov	r4,r22
  80457c:	18c0004c 	andi	r3,r3,1
  804580:	e0c6b03a 	or	r3,fp,r3
  804584:	11400215 	stw	r5,8(r2)
  804588:	80c00115 	stw	r3,4(r16)
  80458c:	08064a00 	call	8064a0 <__malloc_unlock>
  804590:	84400204 	addi	r17,r16,8
  804594:	003f2006 	br	804218 <_realloc_r+0xd8>
  804598:	98a9883a 	add	r20,r19,r2
  80459c:	2509883a 	add	r4,r4,r20
  8045a0:	e0800404 	addi	r2,fp,16
  8045a4:	d9000115 	stw	r4,4(sp)
  8045a8:	20bf7016 	blt	r4,r2,80436c <_realloc_r+0x22c>
  8045ac:	b8c00317 	ldw	r3,12(r23)
  8045b0:	b8800217 	ldw	r2,8(r23)
  8045b4:	99bfff04 	addi	r6,r19,-4
  8045b8:	01400904 	movi	r5,36
  8045bc:	18800215 	stw	r2,8(r3)
  8045c0:	10c00315 	stw	r3,12(r2)
  8045c4:	bc400204 	addi	r17,r23,8
  8045c8:	29804136 	bltu	r5,r6,8046d0 <_realloc_r+0x590>
  8045cc:	008004c4 	movi	r2,19
  8045d0:	9009883a 	mov	r4,r18
  8045d4:	880f883a 	mov	r7,r17
  8045d8:	11800f2e 	bgeu	r2,r6,804618 <_realloc_r+0x4d8>
  8045dc:	90800017 	ldw	r2,0(r18)
  8045e0:	b9c00404 	addi	r7,r23,16
  8045e4:	91000204 	addi	r4,r18,8
  8045e8:	b8800215 	stw	r2,8(r23)
  8045ec:	90c00117 	ldw	r3,4(r18)
  8045f0:	008006c4 	movi	r2,27
  8045f4:	b8c00315 	stw	r3,12(r23)
  8045f8:	1180072e 	bgeu	r2,r6,804618 <_realloc_r+0x4d8>
  8045fc:	90c00217 	ldw	r3,8(r18)
  804600:	b9c00604 	addi	r7,r23,24
  804604:	91000404 	addi	r4,r18,16
  804608:	b8c00415 	stw	r3,16(r23)
  80460c:	90800317 	ldw	r2,12(r18)
  804610:	b8800515 	stw	r2,20(r23)
  804614:	31404026 	beq	r6,r5,804718 <_realloc_r+0x5d8>
  804618:	20800017 	ldw	r2,0(r4)
  80461c:	38800015 	stw	r2,0(r7)
  804620:	20c00117 	ldw	r3,4(r4)
  804624:	38c00115 	stw	r3,4(r7)
  804628:	20800217 	ldw	r2,8(r4)
  80462c:	38800215 	stw	r2,8(r7)
  804630:	d8c00117 	ldw	r3,4(sp)
  804634:	bf0b883a 	add	r5,r23,fp
  804638:	b009883a 	mov	r4,r22
  80463c:	1f05c83a 	sub	r2,r3,fp
  804640:	10800054 	ori	r2,r2,1
  804644:	28800115 	stw	r2,4(r5)
  804648:	b8c00117 	ldw	r3,4(r23)
  80464c:	00802074 	movhi	r2,129
  804650:	10aae504 	addi	r2,r2,-21612
  804654:	11400215 	stw	r5,8(r2)
  804658:	18c0004c 	andi	r3,r3,1
  80465c:	e0c6b03a 	or	r3,fp,r3
  804660:	b8c00115 	stw	r3,4(r23)
  804664:	08064a00 	call	8064a0 <__malloc_unlock>
  804668:	003eeb06 	br	804218 <_realloc_r+0xd8>
  80466c:	20800117 	ldw	r2,4(r4)
  804670:	00ffff04 	movi	r3,-4
  804674:	800f883a 	mov	r7,r16
  804678:	10c4703a 	and	r2,r2,r3
  80467c:	98a9883a 	add	r20,r19,r2
  804680:	84000204 	addi	r16,r16,8
  804684:	003ecf06 	br	8041c4 <_realloc_r+0x84>
  804688:	900b883a 	mov	r5,r18
  80468c:	8009883a 	mov	r4,r16
  804690:	08040600 	call	804060 <memmove>
  804694:	dd000017 	ldw	r20,0(sp)
  804698:	b80f883a 	mov	r7,r23
  80469c:	003ec906 	br	8041c4 <_realloc_r+0x84>
  8046a0:	900b883a 	mov	r5,r18
  8046a4:	8009883a 	mov	r4,r16
  8046a8:	08040600 	call	804060 <memmove>
  8046ac:	b80f883a 	mov	r7,r23
  8046b0:	003ec406 	br	8041c4 <_realloc_r+0x84>
  8046b4:	90c00417 	ldw	r3,16(r18)
  8046b8:	89400604 	addi	r5,r17,24
  8046bc:	91000604 	addi	r4,r18,24
  8046c0:	88c00415 	stw	r3,16(r17)
  8046c4:	90800517 	ldw	r2,20(r18)
  8046c8:	88800515 	stw	r2,20(r17)
  8046cc:	003f6806 	br	804470 <_realloc_r+0x330>
  8046d0:	900b883a 	mov	r5,r18
  8046d4:	8809883a 	mov	r4,r17
  8046d8:	08040600 	call	804060 <memmove>
  8046dc:	003fd406 	br	804630 <_realloc_r+0x4f0>
  8046e0:	90c00417 	ldw	r3,16(r18)
  8046e4:	91000604 	addi	r4,r18,24
  8046e8:	ba000804 	addi	r8,r23,32
  8046ec:	b8c00615 	stw	r3,24(r23)
  8046f0:	90800517 	ldw	r2,20(r18)
  8046f4:	b8800715 	stw	r2,28(r23)
  8046f8:	003f1206 	br	804344 <_realloc_r+0x204>
  8046fc:	90c00417 	ldw	r3,16(r18)
  804700:	91000604 	addi	r4,r18,24
  804704:	ba000804 	addi	r8,r23,32
  804708:	b8c00615 	stw	r3,24(r23)
  80470c:	90800517 	ldw	r2,20(r18)
  804710:	b8800715 	stw	r2,28(r23)
  804714:	003f3206 	br	8043e0 <_realloc_r+0x2a0>
  804718:	90c00417 	ldw	r3,16(r18)
  80471c:	91000604 	addi	r4,r18,24
  804720:	b9c00804 	addi	r7,r23,32
  804724:	b8c00615 	stw	r3,24(r23)
  804728:	90800517 	ldw	r2,20(r18)
  80472c:	b8800715 	stw	r2,28(r23)
  804730:	003fb906 	br	804618 <_realloc_r+0x4d8>

00804734 <_sbrk_r>:
  804734:	defffd04 	addi	sp,sp,-12
  804738:	dc000015 	stw	r16,0(sp)
  80473c:	04002074 	movhi	r16,129
  804740:	84384304 	addi	r16,r16,-7924
  804744:	dc400115 	stw	r17,4(sp)
  804748:	80000015 	stw	zero,0(r16)
  80474c:	2023883a 	mov	r17,r4
  804750:	2809883a 	mov	r4,r5
  804754:	dfc00215 	stw	ra,8(sp)
  804758:	08066a00 	call	8066a0 <sbrk>
  80475c:	1007883a 	mov	r3,r2
  804760:	00bfffc4 	movi	r2,-1
  804764:	18800626 	beq	r3,r2,804780 <_sbrk_r+0x4c>
  804768:	1805883a 	mov	r2,r3
  80476c:	dfc00217 	ldw	ra,8(sp)
  804770:	dc400117 	ldw	r17,4(sp)
  804774:	dc000017 	ldw	r16,0(sp)
  804778:	dec00304 	addi	sp,sp,12
  80477c:	f800283a 	ret
  804780:	80800017 	ldw	r2,0(r16)
  804784:	103ff826 	beq	r2,zero,804768 <_sbrk_r+0x34>
  804788:	88800015 	stw	r2,0(r17)
  80478c:	1805883a 	mov	r2,r3
  804790:	dfc00217 	ldw	ra,8(sp)
  804794:	dc400117 	ldw	r17,4(sp)
  804798:	dc000017 	ldw	r16,0(sp)
  80479c:	dec00304 	addi	sp,sp,12
  8047a0:	f800283a 	ret

008047a4 <__swsetup_r>:
  8047a4:	00802074 	movhi	r2,129
  8047a8:	10b0e304 	addi	r2,r2,-15476
  8047ac:	10c00017 	ldw	r3,0(r2)
  8047b0:	defffd04 	addi	sp,sp,-12
  8047b4:	dc400115 	stw	r17,4(sp)
  8047b8:	dc000015 	stw	r16,0(sp)
  8047bc:	dfc00215 	stw	ra,8(sp)
  8047c0:	2023883a 	mov	r17,r4
  8047c4:	2821883a 	mov	r16,r5
  8047c8:	18000226 	beq	r3,zero,8047d4 <__swsetup_r+0x30>
  8047cc:	18800e17 	ldw	r2,56(r3)
  8047d0:	10001f26 	beq	r2,zero,804850 <__swsetup_r+0xac>
  8047d4:	8100030b 	ldhu	r4,12(r16)
  8047d8:	2080020c 	andi	r2,r4,8
  8047dc:	10002826 	beq	r2,zero,804880 <__swsetup_r+0xdc>
  8047e0:	81400417 	ldw	r5,16(r16)
  8047e4:	28001d26 	beq	r5,zero,80485c <__swsetup_r+0xb8>
  8047e8:	2080004c 	andi	r2,r4,1
  8047ec:	1005003a 	cmpeq	r2,r2,zero
  8047f0:	10000b26 	beq	r2,zero,804820 <__swsetup_r+0x7c>
  8047f4:	2080008c 	andi	r2,r4,2
  8047f8:	10001226 	beq	r2,zero,804844 <__swsetup_r+0xa0>
  8047fc:	0005883a 	mov	r2,zero
  804800:	80800215 	stw	r2,8(r16)
  804804:	28000b26 	beq	r5,zero,804834 <__swsetup_r+0x90>
  804808:	0005883a 	mov	r2,zero
  80480c:	dfc00217 	ldw	ra,8(sp)
  804810:	dc400117 	ldw	r17,4(sp)
  804814:	dc000017 	ldw	r16,0(sp)
  804818:	dec00304 	addi	sp,sp,12
  80481c:	f800283a 	ret
  804820:	80800517 	ldw	r2,20(r16)
  804824:	80000215 	stw	zero,8(r16)
  804828:	0085c83a 	sub	r2,zero,r2
  80482c:	80800615 	stw	r2,24(r16)
  804830:	283ff51e 	bne	r5,zero,804808 <__swsetup_r+0x64>
  804834:	2080200c 	andi	r2,r4,128
  804838:	103ff326 	beq	r2,zero,804808 <__swsetup_r+0x64>
  80483c:	00bfffc4 	movi	r2,-1
  804840:	003ff206 	br	80480c <__swsetup_r+0x68>
  804844:	80800517 	ldw	r2,20(r16)
  804848:	80800215 	stw	r2,8(r16)
  80484c:	003fed06 	br	804804 <__swsetup_r+0x60>
  804850:	1809883a 	mov	r4,r3
  804854:	0804b780 	call	804b78 <__sinit>
  804858:	003fde06 	br	8047d4 <__swsetup_r+0x30>
  80485c:	20c0a00c 	andi	r3,r4,640
  804860:	00808004 	movi	r2,512
  804864:	18bfe026 	beq	r3,r2,8047e8 <__swsetup_r+0x44>
  804868:	8809883a 	mov	r4,r17
  80486c:	800b883a 	mov	r5,r16
  804870:	08053900 	call	805390 <__smakebuf_r>
  804874:	8100030b 	ldhu	r4,12(r16)
  804878:	81400417 	ldw	r5,16(r16)
  80487c:	003fda06 	br	8047e8 <__swsetup_r+0x44>
  804880:	2080040c 	andi	r2,r4,16
  804884:	103fed26 	beq	r2,zero,80483c <__swsetup_r+0x98>
  804888:	2080010c 	andi	r2,r4,4
  80488c:	10001226 	beq	r2,zero,8048d8 <__swsetup_r+0x134>
  804890:	81400c17 	ldw	r5,48(r16)
  804894:	28000526 	beq	r5,zero,8048ac <__swsetup_r+0x108>
  804898:	80801004 	addi	r2,r16,64
  80489c:	28800226 	beq	r5,r2,8048a8 <__swsetup_r+0x104>
  8048a0:	8809883a 	mov	r4,r17
  8048a4:	0804efc0 	call	804efc <_free_r>
  8048a8:	80000c15 	stw	zero,48(r16)
  8048ac:	8080030b 	ldhu	r2,12(r16)
  8048b0:	81400417 	ldw	r5,16(r16)
  8048b4:	80000115 	stw	zero,4(r16)
  8048b8:	10bff6cc 	andi	r2,r2,65499
  8048bc:	8080030d 	sth	r2,12(r16)
  8048c0:	81400015 	stw	r5,0(r16)
  8048c4:	8080030b 	ldhu	r2,12(r16)
  8048c8:	10800214 	ori	r2,r2,8
  8048cc:	113fffcc 	andi	r4,r2,65535
  8048d0:	8080030d 	sth	r2,12(r16)
  8048d4:	003fc306 	br	8047e4 <__swsetup_r+0x40>
  8048d8:	81400417 	ldw	r5,16(r16)
  8048dc:	003ff906 	br	8048c4 <__swsetup_r+0x120>

008048e0 <_fflush_r>:
  8048e0:	defffb04 	addi	sp,sp,-20
  8048e4:	dcc00315 	stw	r19,12(sp)
  8048e8:	dc800215 	stw	r18,8(sp)
  8048ec:	dfc00415 	stw	ra,16(sp)
  8048f0:	dc400115 	stw	r17,4(sp)
  8048f4:	dc000015 	stw	r16,0(sp)
  8048f8:	2027883a 	mov	r19,r4
  8048fc:	2825883a 	mov	r18,r5
  804900:	20000226 	beq	r4,zero,80490c <_fflush_r+0x2c>
  804904:	20800e17 	ldw	r2,56(r4)
  804908:	10005626 	beq	r2,zero,804a64 <_fflush_r+0x184>
  80490c:	9100030b 	ldhu	r4,12(r18)
  804910:	20ffffcc 	andi	r3,r4,65535
  804914:	18e0001c 	xori	r3,r3,32768
  804918:	18e00004 	addi	r3,r3,-32768
  80491c:	1880020c 	andi	r2,r3,8
  804920:	1000261e 	bne	r2,zero,8049bc <_fflush_r+0xdc>
  804924:	90c00117 	ldw	r3,4(r18)
  804928:	20820014 	ori	r2,r4,2048
  80492c:	9080030d 	sth	r2,12(r18)
  804930:	1009883a 	mov	r4,r2
  804934:	00c0400e 	bge	zero,r3,804a38 <_fflush_r+0x158>
  804938:	92000a17 	ldw	r8,40(r18)
  80493c:	40004026 	beq	r8,zero,804a40 <_fflush_r+0x160>
  804940:	2084000c 	andi	r2,r4,4096
  804944:	10005326 	beq	r2,zero,804a94 <_fflush_r+0x1b4>
  804948:	94001417 	ldw	r16,80(r18)
  80494c:	9080030b 	ldhu	r2,12(r18)
  804950:	1080010c 	andi	r2,r2,4
  804954:	1000481e 	bne	r2,zero,804a78 <_fflush_r+0x198>
  804958:	91400717 	ldw	r5,28(r18)
  80495c:	9809883a 	mov	r4,r19
  804960:	800d883a 	mov	r6,r16
  804964:	000f883a 	mov	r7,zero
  804968:	403ee83a 	callr	r8
  80496c:	8080261e 	bne	r16,r2,804a08 <_fflush_r+0x128>
  804970:	9080030b 	ldhu	r2,12(r18)
  804974:	91000417 	ldw	r4,16(r18)
  804978:	90000115 	stw	zero,4(r18)
  80497c:	10bdffcc 	andi	r2,r2,63487
  804980:	10ffffcc 	andi	r3,r2,65535
  804984:	18c4000c 	andi	r3,r3,4096
  804988:	9080030d 	sth	r2,12(r18)
  80498c:	91000015 	stw	r4,0(r18)
  804990:	18002b26 	beq	r3,zero,804a40 <_fflush_r+0x160>
  804994:	0007883a 	mov	r3,zero
  804998:	1805883a 	mov	r2,r3
  80499c:	94001415 	stw	r16,80(r18)
  8049a0:	dfc00417 	ldw	ra,16(sp)
  8049a4:	dcc00317 	ldw	r19,12(sp)
  8049a8:	dc800217 	ldw	r18,8(sp)
  8049ac:	dc400117 	ldw	r17,4(sp)
  8049b0:	dc000017 	ldw	r16,0(sp)
  8049b4:	dec00504 	addi	sp,sp,20
  8049b8:	f800283a 	ret
  8049bc:	94400417 	ldw	r17,16(r18)
  8049c0:	88001f26 	beq	r17,zero,804a40 <_fflush_r+0x160>
  8049c4:	90800017 	ldw	r2,0(r18)
  8049c8:	18c000cc 	andi	r3,r3,3
  8049cc:	94400015 	stw	r17,0(r18)
  8049d0:	1461c83a 	sub	r16,r2,r17
  8049d4:	18002526 	beq	r3,zero,804a6c <_fflush_r+0x18c>
  8049d8:	0005883a 	mov	r2,zero
  8049dc:	90800215 	stw	r2,8(r18)
  8049e0:	0400170e 	bge	zero,r16,804a40 <_fflush_r+0x160>
  8049e4:	90c00917 	ldw	r3,36(r18)
  8049e8:	91400717 	ldw	r5,28(r18)
  8049ec:	880d883a 	mov	r6,r17
  8049f0:	800f883a 	mov	r7,r16
  8049f4:	9809883a 	mov	r4,r19
  8049f8:	183ee83a 	callr	r3
  8049fc:	88a3883a 	add	r17,r17,r2
  804a00:	80a1c83a 	sub	r16,r16,r2
  804a04:	00bff616 	blt	zero,r2,8049e0 <_fflush_r+0x100>
  804a08:	9080030b 	ldhu	r2,12(r18)
  804a0c:	00ffffc4 	movi	r3,-1
  804a10:	10801014 	ori	r2,r2,64
  804a14:	9080030d 	sth	r2,12(r18)
  804a18:	1805883a 	mov	r2,r3
  804a1c:	dfc00417 	ldw	ra,16(sp)
  804a20:	dcc00317 	ldw	r19,12(sp)
  804a24:	dc800217 	ldw	r18,8(sp)
  804a28:	dc400117 	ldw	r17,4(sp)
  804a2c:	dc000017 	ldw	r16,0(sp)
  804a30:	dec00504 	addi	sp,sp,20
  804a34:	f800283a 	ret
  804a38:	90800f17 	ldw	r2,60(r18)
  804a3c:	00bfbe16 	blt	zero,r2,804938 <_fflush_r+0x58>
  804a40:	0007883a 	mov	r3,zero
  804a44:	1805883a 	mov	r2,r3
  804a48:	dfc00417 	ldw	ra,16(sp)
  804a4c:	dcc00317 	ldw	r19,12(sp)
  804a50:	dc800217 	ldw	r18,8(sp)
  804a54:	dc400117 	ldw	r17,4(sp)
  804a58:	dc000017 	ldw	r16,0(sp)
  804a5c:	dec00504 	addi	sp,sp,20
  804a60:	f800283a 	ret
  804a64:	0804b780 	call	804b78 <__sinit>
  804a68:	003fa806 	br	80490c <_fflush_r+0x2c>
  804a6c:	90800517 	ldw	r2,20(r18)
  804a70:	90800215 	stw	r2,8(r18)
  804a74:	003fda06 	br	8049e0 <_fflush_r+0x100>
  804a78:	90800117 	ldw	r2,4(r18)
  804a7c:	90c00c17 	ldw	r3,48(r18)
  804a80:	80a1c83a 	sub	r16,r16,r2
  804a84:	183fb426 	beq	r3,zero,804958 <_fflush_r+0x78>
  804a88:	90800f17 	ldw	r2,60(r18)
  804a8c:	80a1c83a 	sub	r16,r16,r2
  804a90:	003fb106 	br	804958 <_fflush_r+0x78>
  804a94:	91400717 	ldw	r5,28(r18)
  804a98:	9809883a 	mov	r4,r19
  804a9c:	000d883a 	mov	r6,zero
  804aa0:	01c00044 	movi	r7,1
  804aa4:	403ee83a 	callr	r8
  804aa8:	1021883a 	mov	r16,r2
  804aac:	00bfffc4 	movi	r2,-1
  804ab0:	80800226 	beq	r16,r2,804abc <_fflush_r+0x1dc>
  804ab4:	92000a17 	ldw	r8,40(r18)
  804ab8:	003fa406 	br	80494c <_fflush_r+0x6c>
  804abc:	98c00017 	ldw	r3,0(r19)
  804ac0:	00800744 	movi	r2,29
  804ac4:	18bfde26 	beq	r3,r2,804a40 <_fflush_r+0x160>
  804ac8:	9080030b 	ldhu	r2,12(r18)
  804acc:	8007883a 	mov	r3,r16
  804ad0:	10801014 	ori	r2,r2,64
  804ad4:	9080030d 	sth	r2,12(r18)
  804ad8:	003fcf06 	br	804a18 <_fflush_r+0x138>

00804adc <fflush>:
  804adc:	01402034 	movhi	r5,128
  804ae0:	29523804 	addi	r5,r5,18656
  804ae4:	2007883a 	mov	r3,r4
  804ae8:	20000526 	beq	r4,zero,804b00 <fflush+0x24>
  804aec:	00802074 	movhi	r2,129
  804af0:	10b0e304 	addi	r2,r2,-15476
  804af4:	11000017 	ldw	r4,0(r2)
  804af8:	180b883a 	mov	r5,r3
  804afc:	08048e01 	jmpi	8048e0 <_fflush_r>
  804b00:	00802074 	movhi	r2,129
  804b04:	10b0e404 	addi	r2,r2,-15472
  804b08:	11000017 	ldw	r4,0(r2)
  804b0c:	08052101 	jmpi	805210 <_fwalk_reent>

00804b10 <std>:
  804b10:	00802034 	movhi	r2,128
  804b14:	10956f04 	addi	r2,r2,21948
  804b18:	20800b15 	stw	r2,44(r4)
  804b1c:	00802034 	movhi	r2,128
  804b20:	1095aa04 	addi	r2,r2,22184
  804b24:	20800815 	stw	r2,32(r4)
  804b28:	00c02034 	movhi	r3,128
  804b2c:	18d58b04 	addi	r3,r3,22060
  804b30:	00802034 	movhi	r2,128
  804b34:	10957104 	addi	r2,r2,21956
  804b38:	2140030d 	sth	r5,12(r4)
  804b3c:	2180038d 	sth	r6,14(r4)
  804b40:	20c00915 	stw	r3,36(r4)
  804b44:	20800a15 	stw	r2,40(r4)
  804b48:	20000015 	stw	zero,0(r4)
  804b4c:	20000115 	stw	zero,4(r4)
  804b50:	20000215 	stw	zero,8(r4)
  804b54:	20000415 	stw	zero,16(r4)
  804b58:	20000515 	stw	zero,20(r4)
  804b5c:	20000615 	stw	zero,24(r4)
  804b60:	21000715 	stw	r4,28(r4)
  804b64:	f800283a 	ret

00804b68 <__sfp_lock_acquire>:
  804b68:	f800283a 	ret

00804b6c <__sfp_lock_release>:
  804b6c:	f800283a 	ret

00804b70 <__sinit_lock_acquire>:
  804b70:	f800283a 	ret

00804b74 <__sinit_lock_release>:
  804b74:	f800283a 	ret

00804b78 <__sinit>:
  804b78:	20800e17 	ldw	r2,56(r4)
  804b7c:	defffd04 	addi	sp,sp,-12
  804b80:	dc400115 	stw	r17,4(sp)
  804b84:	dc000015 	stw	r16,0(sp)
  804b88:	dfc00215 	stw	ra,8(sp)
  804b8c:	04400044 	movi	r17,1
  804b90:	01400104 	movi	r5,4
  804b94:	000d883a 	mov	r6,zero
  804b98:	2021883a 	mov	r16,r4
  804b9c:	2200bb04 	addi	r8,r4,748
  804ba0:	200f883a 	mov	r7,r4
  804ba4:	10000526 	beq	r2,zero,804bbc <__sinit+0x44>
  804ba8:	dfc00217 	ldw	ra,8(sp)
  804bac:	dc400117 	ldw	r17,4(sp)
  804bb0:	dc000017 	ldw	r16,0(sp)
  804bb4:	dec00304 	addi	sp,sp,12
  804bb8:	f800283a 	ret
  804bbc:	21000117 	ldw	r4,4(r4)
  804bc0:	00802034 	movhi	r2,128
  804bc4:	10931704 	addi	r2,r2,19548
  804bc8:	00c000c4 	movi	r3,3
  804bcc:	80800f15 	stw	r2,60(r16)
  804bd0:	80c0b915 	stw	r3,740(r16)
  804bd4:	8200ba15 	stw	r8,744(r16)
  804bd8:	84400e15 	stw	r17,56(r16)
  804bdc:	8000b815 	stw	zero,736(r16)
  804be0:	0804b100 	call	804b10 <std>
  804be4:	81000217 	ldw	r4,8(r16)
  804be8:	880d883a 	mov	r6,r17
  804bec:	800f883a 	mov	r7,r16
  804bf0:	01400284 	movi	r5,10
  804bf4:	0804b100 	call	804b10 <std>
  804bf8:	81000317 	ldw	r4,12(r16)
  804bfc:	800f883a 	mov	r7,r16
  804c00:	01400484 	movi	r5,18
  804c04:	01800084 	movi	r6,2
  804c08:	dfc00217 	ldw	ra,8(sp)
  804c0c:	dc400117 	ldw	r17,4(sp)
  804c10:	dc000017 	ldw	r16,0(sp)
  804c14:	dec00304 	addi	sp,sp,12
  804c18:	0804b101 	jmpi	804b10 <std>

00804c1c <__fp_lock>:
  804c1c:	0005883a 	mov	r2,zero
  804c20:	f800283a 	ret

00804c24 <__fp_unlock>:
  804c24:	0005883a 	mov	r2,zero
  804c28:	f800283a 	ret

00804c2c <__fp_unlock_all>:
  804c2c:	00802074 	movhi	r2,129
  804c30:	10b0e304 	addi	r2,r2,-15476
  804c34:	11000017 	ldw	r4,0(r2)
  804c38:	01402034 	movhi	r5,128
  804c3c:	29530904 	addi	r5,r5,19492
  804c40:	08052d81 	jmpi	8052d8 <_fwalk>

00804c44 <__fp_lock_all>:
  804c44:	00802074 	movhi	r2,129
  804c48:	10b0e304 	addi	r2,r2,-15476
  804c4c:	11000017 	ldw	r4,0(r2)
  804c50:	01402034 	movhi	r5,128
  804c54:	29530704 	addi	r5,r5,19484
  804c58:	08052d81 	jmpi	8052d8 <_fwalk>

00804c5c <_cleanup_r>:
  804c5c:	01402034 	movhi	r5,128
  804c60:	29564004 	addi	r5,r5,22784
  804c64:	08052d81 	jmpi	8052d8 <_fwalk>

00804c68 <_cleanup>:
  804c68:	00802074 	movhi	r2,129
  804c6c:	10b0e404 	addi	r2,r2,-15472
  804c70:	11000017 	ldw	r4,0(r2)
  804c74:	0804c5c1 	jmpi	804c5c <_cleanup_r>

00804c78 <__sfmoreglue>:
  804c78:	defffc04 	addi	sp,sp,-16
  804c7c:	dc400115 	stw	r17,4(sp)
  804c80:	2c401724 	muli	r17,r5,92
  804c84:	dc800215 	stw	r18,8(sp)
  804c88:	2825883a 	mov	r18,r5
  804c8c:	89400304 	addi	r5,r17,12
  804c90:	dc000015 	stw	r16,0(sp)
  804c94:	dfc00315 	stw	ra,12(sp)
  804c98:	080379c0 	call	80379c <_malloc_r>
  804c9c:	0021883a 	mov	r16,zero
  804ca0:	880d883a 	mov	r6,r17
  804ca4:	000b883a 	mov	r5,zero
  804ca8:	10000626 	beq	r2,zero,804cc4 <__sfmoreglue+0x4c>
  804cac:	11000304 	addi	r4,r2,12
  804cb0:	14800115 	stw	r18,4(r2)
  804cb4:	10000015 	stw	zero,0(r2)
  804cb8:	11000215 	stw	r4,8(r2)
  804cbc:	1021883a 	mov	r16,r2
  804cc0:	08055240 	call	805524 <memset>
  804cc4:	8005883a 	mov	r2,r16
  804cc8:	dfc00317 	ldw	ra,12(sp)
  804ccc:	dc800217 	ldw	r18,8(sp)
  804cd0:	dc400117 	ldw	r17,4(sp)
  804cd4:	dc000017 	ldw	r16,0(sp)
  804cd8:	dec00404 	addi	sp,sp,16
  804cdc:	f800283a 	ret

00804ce0 <__sfp>:
  804ce0:	defffd04 	addi	sp,sp,-12
  804ce4:	00802074 	movhi	r2,129
  804ce8:	10b0e404 	addi	r2,r2,-15472
  804cec:	dc000015 	stw	r16,0(sp)
  804cf0:	14000017 	ldw	r16,0(r2)
  804cf4:	dc400115 	stw	r17,4(sp)
  804cf8:	dfc00215 	stw	ra,8(sp)
  804cfc:	80800e17 	ldw	r2,56(r16)
  804d00:	2023883a 	mov	r17,r4
  804d04:	10002626 	beq	r2,zero,804da0 <__sfp+0xc0>
  804d08:	8400b804 	addi	r16,r16,736
  804d0c:	80800117 	ldw	r2,4(r16)
  804d10:	81000217 	ldw	r4,8(r16)
  804d14:	10ffffc4 	addi	r3,r2,-1
  804d18:	18000916 	blt	r3,zero,804d40 <__sfp+0x60>
  804d1c:	2080030f 	ldh	r2,12(r4)
  804d20:	10000b26 	beq	r2,zero,804d50 <__sfp+0x70>
  804d24:	017fffc4 	movi	r5,-1
  804d28:	00000206 	br	804d34 <__sfp+0x54>
  804d2c:	2080030f 	ldh	r2,12(r4)
  804d30:	10000726 	beq	r2,zero,804d50 <__sfp+0x70>
  804d34:	18ffffc4 	addi	r3,r3,-1
  804d38:	21001704 	addi	r4,r4,92
  804d3c:	197ffb1e 	bne	r3,r5,804d2c <__sfp+0x4c>
  804d40:	80800017 	ldw	r2,0(r16)
  804d44:	10001926 	beq	r2,zero,804dac <__sfp+0xcc>
  804d48:	1021883a 	mov	r16,r2
  804d4c:	003fef06 	br	804d0c <__sfp+0x2c>
  804d50:	00bfffc4 	movi	r2,-1
  804d54:	00c00044 	movi	r3,1
  804d58:	2080038d 	sth	r2,14(r4)
  804d5c:	20c0030d 	sth	r3,12(r4)
  804d60:	20000015 	stw	zero,0(r4)
  804d64:	20000215 	stw	zero,8(r4)
  804d68:	20000115 	stw	zero,4(r4)
  804d6c:	20000415 	stw	zero,16(r4)
  804d70:	20000515 	stw	zero,20(r4)
  804d74:	20000615 	stw	zero,24(r4)
  804d78:	20000c15 	stw	zero,48(r4)
  804d7c:	20000d15 	stw	zero,52(r4)
  804d80:	20001115 	stw	zero,68(r4)
  804d84:	20001215 	stw	zero,72(r4)
  804d88:	2005883a 	mov	r2,r4
  804d8c:	dfc00217 	ldw	ra,8(sp)
  804d90:	dc400117 	ldw	r17,4(sp)
  804d94:	dc000017 	ldw	r16,0(sp)
  804d98:	dec00304 	addi	sp,sp,12
  804d9c:	f800283a 	ret
  804da0:	8009883a 	mov	r4,r16
  804da4:	0804b780 	call	804b78 <__sinit>
  804da8:	003fd706 	br	804d08 <__sfp+0x28>
  804dac:	8809883a 	mov	r4,r17
  804db0:	01400104 	movi	r5,4
  804db4:	0804c780 	call	804c78 <__sfmoreglue>
  804db8:	80800015 	stw	r2,0(r16)
  804dbc:	103fe21e 	bne	r2,zero,804d48 <__sfp+0x68>
  804dc0:	00800304 	movi	r2,12
  804dc4:	0009883a 	mov	r4,zero
  804dc8:	88800015 	stw	r2,0(r17)
  804dcc:	003fee06 	br	804d88 <__sfp+0xa8>

00804dd0 <_malloc_trim_r>:
  804dd0:	defffb04 	addi	sp,sp,-20
  804dd4:	dcc00315 	stw	r19,12(sp)
  804dd8:	04c02074 	movhi	r19,129
  804ddc:	9ceae504 	addi	r19,r19,-21612
  804de0:	dc800215 	stw	r18,8(sp)
  804de4:	dc400115 	stw	r17,4(sp)
  804de8:	dc000015 	stw	r16,0(sp)
  804dec:	2823883a 	mov	r17,r5
  804df0:	2025883a 	mov	r18,r4
  804df4:	dfc00415 	stw	ra,16(sp)
  804df8:	08064800 	call	806480 <__malloc_lock>
  804dfc:	98800217 	ldw	r2,8(r19)
  804e00:	9009883a 	mov	r4,r18
  804e04:	000b883a 	mov	r5,zero
  804e08:	10c00117 	ldw	r3,4(r2)
  804e0c:	00bfff04 	movi	r2,-4
  804e10:	18a0703a 	and	r16,r3,r2
  804e14:	8463c83a 	sub	r17,r16,r17
  804e18:	8c43fbc4 	addi	r17,r17,4079
  804e1c:	8822d33a 	srli	r17,r17,12
  804e20:	0083ffc4 	movi	r2,4095
  804e24:	8c7fffc4 	addi	r17,r17,-1
  804e28:	8822933a 	slli	r17,r17,12
  804e2c:	1440060e 	bge	r2,r17,804e48 <_malloc_trim_r+0x78>
  804e30:	08047340 	call	804734 <_sbrk_r>
  804e34:	98c00217 	ldw	r3,8(r19)
  804e38:	9009883a 	mov	r4,r18
  804e3c:	044bc83a 	sub	r5,zero,r17
  804e40:	80c7883a 	add	r3,r16,r3
  804e44:	10c00926 	beq	r2,r3,804e6c <_malloc_trim_r+0x9c>
  804e48:	08064a00 	call	8064a0 <__malloc_unlock>
  804e4c:	0005883a 	mov	r2,zero
  804e50:	dfc00417 	ldw	ra,16(sp)
  804e54:	dcc00317 	ldw	r19,12(sp)
  804e58:	dc800217 	ldw	r18,8(sp)
  804e5c:	dc400117 	ldw	r17,4(sp)
  804e60:	dc000017 	ldw	r16,0(sp)
  804e64:	dec00504 	addi	sp,sp,20
  804e68:	f800283a 	ret
  804e6c:	9009883a 	mov	r4,r18
  804e70:	08047340 	call	804734 <_sbrk_r>
  804e74:	844dc83a 	sub	r6,r16,r17
  804e78:	00ffffc4 	movi	r3,-1
  804e7c:	9009883a 	mov	r4,r18
  804e80:	000b883a 	mov	r5,zero
  804e84:	01c02074 	movhi	r7,129
  804e88:	39f88604 	addi	r7,r7,-7656
  804e8c:	31800054 	ori	r6,r6,1
  804e90:	10c00926 	beq	r2,r3,804eb8 <_malloc_trim_r+0xe8>
  804e94:	38800017 	ldw	r2,0(r7)
  804e98:	98c00217 	ldw	r3,8(r19)
  804e9c:	9009883a 	mov	r4,r18
  804ea0:	1445c83a 	sub	r2,r2,r17
  804ea4:	38800015 	stw	r2,0(r7)
  804ea8:	19800115 	stw	r6,4(r3)
  804eac:	08064a00 	call	8064a0 <__malloc_unlock>
  804eb0:	00800044 	movi	r2,1
  804eb4:	003fe606 	br	804e50 <_malloc_trim_r+0x80>
  804eb8:	08047340 	call	804734 <_sbrk_r>
  804ebc:	99800217 	ldw	r6,8(r19)
  804ec0:	100f883a 	mov	r7,r2
  804ec4:	9009883a 	mov	r4,r18
  804ec8:	1187c83a 	sub	r3,r2,r6
  804ecc:	008003c4 	movi	r2,15
  804ed0:	19400054 	ori	r5,r3,1
  804ed4:	10ffdc0e 	bge	r2,r3,804e48 <_malloc_trim_r+0x78>
  804ed8:	00802074 	movhi	r2,129
  804edc:	10b0e604 	addi	r2,r2,-15464
  804ee0:	10c00017 	ldw	r3,0(r2)
  804ee4:	00802074 	movhi	r2,129
  804ee8:	10b88604 	addi	r2,r2,-7656
  804eec:	31400115 	stw	r5,4(r6)
  804ef0:	38c7c83a 	sub	r3,r7,r3
  804ef4:	10c00015 	stw	r3,0(r2)
  804ef8:	003fd306 	br	804e48 <_malloc_trim_r+0x78>

00804efc <_free_r>:
  804efc:	defffd04 	addi	sp,sp,-12
  804f00:	dc400115 	stw	r17,4(sp)
  804f04:	dc000015 	stw	r16,0(sp)
  804f08:	dfc00215 	stw	ra,8(sp)
  804f0c:	2821883a 	mov	r16,r5
  804f10:	2023883a 	mov	r17,r4
  804f14:	28005a26 	beq	r5,zero,805080 <_free_r+0x184>
  804f18:	08064800 	call	806480 <__malloc_lock>
  804f1c:	823ffe04 	addi	r8,r16,-8
  804f20:	41400117 	ldw	r5,4(r8)
  804f24:	00bfff84 	movi	r2,-2
  804f28:	02802074 	movhi	r10,129
  804f2c:	52aae504 	addi	r10,r10,-21612
  804f30:	288e703a 	and	r7,r5,r2
  804f34:	41cd883a 	add	r6,r8,r7
  804f38:	30c00117 	ldw	r3,4(r6)
  804f3c:	51000217 	ldw	r4,8(r10)
  804f40:	00bfff04 	movi	r2,-4
  804f44:	1892703a 	and	r9,r3,r2
  804f48:	5017883a 	mov	r11,r10
  804f4c:	31006726 	beq	r6,r4,8050ec <_free_r+0x1f0>
  804f50:	2880004c 	andi	r2,r5,1
  804f54:	1005003a 	cmpeq	r2,r2,zero
  804f58:	32400115 	stw	r9,4(r6)
  804f5c:	10001a1e 	bne	r2,zero,804fc8 <_free_r+0xcc>
  804f60:	000b883a 	mov	r5,zero
  804f64:	3247883a 	add	r3,r6,r9
  804f68:	18800117 	ldw	r2,4(r3)
  804f6c:	1080004c 	andi	r2,r2,1
  804f70:	1000231e 	bne	r2,zero,805000 <_free_r+0x104>
  804f74:	280ac03a 	cmpne	r5,r5,zero
  804f78:	3a4f883a 	add	r7,r7,r9
  804f7c:	2800451e 	bne	r5,zero,805094 <_free_r+0x198>
  804f80:	31000217 	ldw	r4,8(r6)
  804f84:	00802074 	movhi	r2,129
  804f88:	10aae704 	addi	r2,r2,-21604
  804f8c:	20807b26 	beq	r4,r2,80517c <_free_r+0x280>
  804f90:	30800317 	ldw	r2,12(r6)
  804f94:	3a07883a 	add	r3,r7,r8
  804f98:	19c00015 	stw	r7,0(r3)
  804f9c:	11000215 	stw	r4,8(r2)
  804fa0:	20800315 	stw	r2,12(r4)
  804fa4:	38800054 	ori	r2,r7,1
  804fa8:	40800115 	stw	r2,4(r8)
  804fac:	28001a26 	beq	r5,zero,805018 <_free_r+0x11c>
  804fb0:	8809883a 	mov	r4,r17
  804fb4:	dfc00217 	ldw	ra,8(sp)
  804fb8:	dc400117 	ldw	r17,4(sp)
  804fbc:	dc000017 	ldw	r16,0(sp)
  804fc0:	dec00304 	addi	sp,sp,12
  804fc4:	08064a01 	jmpi	8064a0 <__malloc_unlock>
  804fc8:	80bffe17 	ldw	r2,-8(r16)
  804fcc:	50c00204 	addi	r3,r10,8
  804fd0:	4091c83a 	sub	r8,r8,r2
  804fd4:	41000217 	ldw	r4,8(r8)
  804fd8:	388f883a 	add	r7,r7,r2
  804fdc:	20c06126 	beq	r4,r3,805164 <_free_r+0x268>
  804fe0:	40800317 	ldw	r2,12(r8)
  804fe4:	3247883a 	add	r3,r6,r9
  804fe8:	000b883a 	mov	r5,zero
  804fec:	11000215 	stw	r4,8(r2)
  804ff0:	20800315 	stw	r2,12(r4)
  804ff4:	18800117 	ldw	r2,4(r3)
  804ff8:	1080004c 	andi	r2,r2,1
  804ffc:	103fdd26 	beq	r2,zero,804f74 <_free_r+0x78>
  805000:	38800054 	ori	r2,r7,1
  805004:	3a07883a 	add	r3,r7,r8
  805008:	280ac03a 	cmpne	r5,r5,zero
  80500c:	40800115 	stw	r2,4(r8)
  805010:	19c00015 	stw	r7,0(r3)
  805014:	283fe61e 	bne	r5,zero,804fb0 <_free_r+0xb4>
  805018:	00807fc4 	movi	r2,511
  80501c:	11c01f2e 	bgeu	r2,r7,80509c <_free_r+0x1a0>
  805020:	3806d27a 	srli	r3,r7,9
  805024:	1800481e 	bne	r3,zero,805148 <_free_r+0x24c>
  805028:	3804d0fa 	srli	r2,r7,3
  80502c:	100690fa 	slli	r3,r2,3
  805030:	1acd883a 	add	r6,r3,r11
  805034:	31400217 	ldw	r5,8(r6)
  805038:	31405926 	beq	r6,r5,8051a0 <_free_r+0x2a4>
  80503c:	28800117 	ldw	r2,4(r5)
  805040:	00ffff04 	movi	r3,-4
  805044:	10c4703a 	and	r2,r2,r3
  805048:	3880022e 	bgeu	r7,r2,805054 <_free_r+0x158>
  80504c:	29400217 	ldw	r5,8(r5)
  805050:	317ffa1e 	bne	r6,r5,80503c <_free_r+0x140>
  805054:	29800317 	ldw	r6,12(r5)
  805058:	41800315 	stw	r6,12(r8)
  80505c:	41400215 	stw	r5,8(r8)
  805060:	8809883a 	mov	r4,r17
  805064:	2a000315 	stw	r8,12(r5)
  805068:	32000215 	stw	r8,8(r6)
  80506c:	dfc00217 	ldw	ra,8(sp)
  805070:	dc400117 	ldw	r17,4(sp)
  805074:	dc000017 	ldw	r16,0(sp)
  805078:	dec00304 	addi	sp,sp,12
  80507c:	08064a01 	jmpi	8064a0 <__malloc_unlock>
  805080:	dfc00217 	ldw	ra,8(sp)
  805084:	dc400117 	ldw	r17,4(sp)
  805088:	dc000017 	ldw	r16,0(sp)
  80508c:	dec00304 	addi	sp,sp,12
  805090:	f800283a 	ret
  805094:	31000217 	ldw	r4,8(r6)
  805098:	003fbd06 	br	804f90 <_free_r+0x94>
  80509c:	3806d0fa 	srli	r3,r7,3
  8050a0:	00800044 	movi	r2,1
  8050a4:	51400117 	ldw	r5,4(r10)
  8050a8:	180890fa 	slli	r4,r3,3
  8050ac:	1807d0ba 	srai	r3,r3,2
  8050b0:	22c9883a 	add	r4,r4,r11
  8050b4:	21800217 	ldw	r6,8(r4)
  8050b8:	10c4983a 	sll	r2,r2,r3
  8050bc:	41000315 	stw	r4,12(r8)
  8050c0:	41800215 	stw	r6,8(r8)
  8050c4:	288ab03a 	or	r5,r5,r2
  8050c8:	22000215 	stw	r8,8(r4)
  8050cc:	8809883a 	mov	r4,r17
  8050d0:	51400115 	stw	r5,4(r10)
  8050d4:	32000315 	stw	r8,12(r6)
  8050d8:	dfc00217 	ldw	ra,8(sp)
  8050dc:	dc400117 	ldw	r17,4(sp)
  8050e0:	dc000017 	ldw	r16,0(sp)
  8050e4:	dec00304 	addi	sp,sp,12
  8050e8:	08064a01 	jmpi	8064a0 <__malloc_unlock>
  8050ec:	2880004c 	andi	r2,r5,1
  8050f0:	3a4d883a 	add	r6,r7,r9
  8050f4:	1000071e 	bne	r2,zero,805114 <_free_r+0x218>
  8050f8:	80bffe17 	ldw	r2,-8(r16)
  8050fc:	4091c83a 	sub	r8,r8,r2
  805100:	41000317 	ldw	r4,12(r8)
  805104:	40c00217 	ldw	r3,8(r8)
  805108:	308d883a 	add	r6,r6,r2
  80510c:	20c00215 	stw	r3,8(r4)
  805110:	19000315 	stw	r4,12(r3)
  805114:	00802074 	movhi	r2,129
  805118:	10b0e504 	addi	r2,r2,-15468
  80511c:	11000017 	ldw	r4,0(r2)
  805120:	30c00054 	ori	r3,r6,1
  805124:	52000215 	stw	r8,8(r10)
  805128:	40c00115 	stw	r3,4(r8)
  80512c:	313fa036 	bltu	r6,r4,804fb0 <_free_r+0xb4>
  805130:	00802074 	movhi	r2,129
  805134:	10b84004 	addi	r2,r2,-7936
  805138:	11400017 	ldw	r5,0(r2)
  80513c:	8809883a 	mov	r4,r17
  805140:	0804dd00 	call	804dd0 <_malloc_trim_r>
  805144:	003f9a06 	br	804fb0 <_free_r+0xb4>
  805148:	00800104 	movi	r2,4
  80514c:	10c0072e 	bgeu	r2,r3,80516c <_free_r+0x270>
  805150:	00800504 	movi	r2,20
  805154:	10c01936 	bltu	r2,r3,8051bc <_free_r+0x2c0>
  805158:	188016c4 	addi	r2,r3,91
  80515c:	100690fa 	slli	r3,r2,3
  805160:	003fb306 	br	805030 <_free_r+0x134>
  805164:	01400044 	movi	r5,1
  805168:	003f7e06 	br	804f64 <_free_r+0x68>
  80516c:	3804d1ba 	srli	r2,r7,6
  805170:	10800e04 	addi	r2,r2,56
  805174:	100690fa 	slli	r3,r2,3
  805178:	003fad06 	br	805030 <_free_r+0x134>
  80517c:	22000315 	stw	r8,12(r4)
  805180:	22000215 	stw	r8,8(r4)
  805184:	3a05883a 	add	r2,r7,r8
  805188:	38c00054 	ori	r3,r7,1
  80518c:	11c00015 	stw	r7,0(r2)
  805190:	41000215 	stw	r4,8(r8)
  805194:	40c00115 	stw	r3,4(r8)
  805198:	41000315 	stw	r4,12(r8)
  80519c:	003f8406 	br	804fb0 <_free_r+0xb4>
  8051a0:	1005d0ba 	srai	r2,r2,2
  8051a4:	00c00044 	movi	r3,1
  8051a8:	51000117 	ldw	r4,4(r10)
  8051ac:	1886983a 	sll	r3,r3,r2
  8051b0:	20c8b03a 	or	r4,r4,r3
  8051b4:	51000115 	stw	r4,4(r10)
  8051b8:	003fa706 	br	805058 <_free_r+0x15c>
  8051bc:	00801504 	movi	r2,84
  8051c0:	10c00436 	bltu	r2,r3,8051d4 <_free_r+0x2d8>
  8051c4:	3804d33a 	srli	r2,r7,12
  8051c8:	10801b84 	addi	r2,r2,110
  8051cc:	100690fa 	slli	r3,r2,3
  8051d0:	003f9706 	br	805030 <_free_r+0x134>
  8051d4:	00805504 	movi	r2,340
  8051d8:	10c00436 	bltu	r2,r3,8051ec <_free_r+0x2f0>
  8051dc:	3804d3fa 	srli	r2,r7,15
  8051e0:	10801dc4 	addi	r2,r2,119
  8051e4:	100690fa 	slli	r3,r2,3
  8051e8:	003f9106 	br	805030 <_free_r+0x134>
  8051ec:	00815504 	movi	r2,1364
  8051f0:	10c0032e 	bgeu	r2,r3,805200 <_free_r+0x304>
  8051f4:	00801f84 	movi	r2,126
  8051f8:	00c0fc04 	movi	r3,1008
  8051fc:	003f8c06 	br	805030 <_free_r+0x134>
  805200:	3804d4ba 	srli	r2,r7,18
  805204:	10801f04 	addi	r2,r2,124
  805208:	100690fa 	slli	r3,r2,3
  80520c:	003f8806 	br	805030 <_free_r+0x134>

00805210 <_fwalk_reent>:
  805210:	defff704 	addi	sp,sp,-36
  805214:	dcc00315 	stw	r19,12(sp)
  805218:	24c0b804 	addi	r19,r4,736
  80521c:	dd800615 	stw	r22,24(sp)
  805220:	dd400515 	stw	r21,20(sp)
  805224:	dfc00815 	stw	ra,32(sp)
  805228:	ddc00715 	stw	r23,28(sp)
  80522c:	dd000415 	stw	r20,16(sp)
  805230:	dc800215 	stw	r18,8(sp)
  805234:	dc400115 	stw	r17,4(sp)
  805238:	dc000015 	stw	r16,0(sp)
  80523c:	202b883a 	mov	r21,r4
  805240:	282d883a 	mov	r22,r5
  805244:	0804b680 	call	804b68 <__sfp_lock_acquire>
  805248:	98002126 	beq	r19,zero,8052d0 <_fwalk_reent+0xc0>
  80524c:	002f883a 	mov	r23,zero
  805250:	9c800117 	ldw	r18,4(r19)
  805254:	9c000217 	ldw	r16,8(r19)
  805258:	90bfffc4 	addi	r2,r18,-1
  80525c:	10000d16 	blt	r2,zero,805294 <_fwalk_reent+0x84>
  805260:	0023883a 	mov	r17,zero
  805264:	053fffc4 	movi	r20,-1
  805268:	8080030f 	ldh	r2,12(r16)
  80526c:	8c400044 	addi	r17,r17,1
  805270:	10000626 	beq	r2,zero,80528c <_fwalk_reent+0x7c>
  805274:	8080038f 	ldh	r2,14(r16)
  805278:	800b883a 	mov	r5,r16
  80527c:	a809883a 	mov	r4,r21
  805280:	15000226 	beq	r2,r20,80528c <_fwalk_reent+0x7c>
  805284:	b03ee83a 	callr	r22
  805288:	b8aeb03a 	or	r23,r23,r2
  80528c:	84001704 	addi	r16,r16,92
