
assignment1.elf:     file format elf32-littlenios2
assignment1.elf
architecture: nios2, flags 0x00000112:
EXEC_P, HAS_SYMS, D_PAGED
start address 0x008001b4

Program Header:
    LOAD off    0x00001000 vaddr 0x00800000 paddr 0x00800000 align 2**12
         filesz 0x00000020 memsz 0x00000020 flags r-x
    LOAD off    0x00001020 vaddr 0x00800020 paddr 0x00800020 align 2**12
         filesz 0x000151a8 memsz 0x000151a8 flags r-x
    LOAD off    0x000161c8 vaddr 0x008151c8 paddr 0x00816ea4 align 2**12
         filesz 0x00001cdc memsz 0x00001cdc flags rw-
    LOAD off    0x00018b80 vaddr 0x00818b80 paddr 0x00818b80 align 2**12
         filesz 0x00000000 memsz 0x00000450 flags rw-

Sections:
Idx Name          Size      VMA       LMA       File off  Algn
  0 .entry        00000020  00800000  00800000  00001000  2**5
                  CONTENTS, ALLOC, LOAD, READONLY, CODE
  1 .exceptions   00000194  00800020  00800020  00001020  2**2
                  CONTENTS, ALLOC, LOAD, READONLY, CODE
  2 .text         00014920  008001b4  008001b4  000011b4  2**2
                  CONTENTS, ALLOC, LOAD, READONLY, CODE
  3 .rodata       000006f4  00814ad4  00814ad4  00015ad4  2**2
                  CONTENTS, ALLOC, LOAD, READONLY, DATA
  4 .rwdata       00001cdc  008151c8  00816ea4  000161c8  2**2
                  CONTENTS, ALLOC, LOAD, DATA, SMALL_DATA
  5 .bss          00000450  00818b80  00818b80  00018b80  2**2
                  ALLOC, SMALL_DATA
  6 .comment      00000023  00000000  00000000  00017ea4  2**0
                  CONTENTS, READONLY
  7 .debug_aranges 000011f8  00000000  00000000  00017ec8  2**3
                  CONTENTS, READONLY, DEBUGGING
  8 .debug_pubnames 00001c21  00000000  00000000  000190c0  2**0
                  CONTENTS, READONLY, DEBUGGING
  9 .debug_info   000369a0  00000000  00000000  0001ace1  2**0
                  CONTENTS, READONLY, DEBUGGING
 10 .debug_abbrev 0000b9f2  00000000  00000000  00051681  2**0
                  CONTENTS, READONLY, DEBUGGING
 11 .debug_line   0001d778  00000000  00000000  0005d073  2**0
                  CONTENTS, READONLY, DEBUGGING
 12 .debug_frame  000025a0  00000000  00000000  0007a7ec  2**2
                  CONTENTS, READONLY, DEBUGGING
 13 .debug_str    00002d36  00000000  00000000  0007cd8c  2**0
                  CONTENTS, READONLY, DEBUGGING
 14 .debug_loc    00012c20  00000000  00000000  0007fac2  2**0
                  CONTENTS, READONLY, DEBUGGING
 15 .debug_alt_sim_info 00000060  00000000  00000000  000926e4  2**2
                  CONTENTS, READONLY, DEBUGGING
 16 .debug_ranges 00000b30  00000000  00000000  00092748  2**3
                  CONTENTS, READONLY, DEBUGGING
 17 .thread_model 00000003  00000000  00000000  000974c5  2**0
                  CONTENTS, READONLY
 18 .cpu          00000003  00000000  00000000  000974c8  2**0
                  CONTENTS, READONLY
 19 .qsys         00000001  00000000  00000000  000974cb  2**0
                  CONTENTS, READONLY
 20 .simulation_enabled 00000001  00000000  00000000  000974cc  2**0
                  CONTENTS, READONLY
 21 .sysid_hash   00000004  00000000  00000000  000974cd  2**0
                  CONTENTS, READONLY
 22 .sysid_base   00000004  00000000  00000000  000974d1  2**0
                  CONTENTS, READONLY
 23 .sysid_time   00000004  00000000  00000000  000974d5  2**0
                  CONTENTS, READONLY
 24 .stderr_dev   00000009  00000000  00000000  000974d9  2**0
                  CONTENTS, READONLY
 25 .stdin_dev    00000009  00000000  00000000  000974e2  2**0
                  CONTENTS, READONLY
 26 .stdout_dev   00000009  00000000  00000000  000974eb  2**0
                  CONTENTS, READONLY
 27 .sopc_system_name 00000006  00000000  00000000  000974f4  2**0
                  CONTENTS, READONLY
 28 .quartus_project_dir 00000033  00000000  00000000  000974fa  2**0
                  CONTENTS, READONLY
 29 .sopcinfo     00062390  00000000  00000000  0009752d  2**0
                  CONTENTS, READONLY
SYMBOL TABLE:
00800000 l    d  .entry	00000000 .entry
00800020 l    d  .exceptions	00000000 .exceptions
008001b4 l    d  .text	00000000 .text
00814ad4 l    d  .rodata	00000000 .rodata
008151c8 l    d  .rwdata	00000000 .rwdata
00818b80 l    d  .bss	00000000 .bss
00000000 l    d  .comment	00000000 .comment
00000000 l    d  .debug_aranges	00000000 .debug_aranges
00000000 l    d  .debug_pubnames	00000000 .debug_pubnames
00000000 l    d  .debug_info	00000000 .debug_info
00000000 l    d  .debug_abbrev	00000000 .debug_abbrev
00000000 l    d  .debug_line	00000000 .debug_line
00000000 l    d  .debug_frame	00000000 .debug_frame
00000000 l    d  .debug_str	00000000 .debug_str
00000000 l    d  .debug_loc	00000000 .debug_loc
00000000 l    d  .debug_alt_sim_info	00000000 .debug_alt_sim_info
00000000 l    d  .debug_ranges	00000000 .debug_ranges
008001fc l       .text	00000000 alt_after_alt_main
00000000 l    df *ABS*	00000000 alt_irq_handler.c
00000000 l    df *ABS*	00000000 trafficController.c
00818b80 l     O .bss	00000004 tlc_timer_event
00818b84 l     O .bss	00000004 camera_timer_event
00818b88 l     O .bss	00000004 pedestrianNS
00818b8c l     O .bss	00000004 pedestrianEW
00818b90 l     O .bss	00000004 newTimeoutValues
00818b94 l     O .bss	00000004 vehicle_detected
008151c8 l     O .rwdata	00000018 timeout
008151e0 l     O .rwdata	0000001c timeout_buf
00818b98 l     O .bss	00000004 valueCount
008151fc l     O .rwdata	00000018 tempBuffer
00816e54 l     O .rwdata	00000006 traffic_lights
00818b9c l     O .bss	00000004 mode
00815214 l     O .rwdata	00000010 proc_state
00818ba0 l     O .bss	00000004 camera_count
00818be8 l     O .bss	00000018 tlc_timer
00818ba4 l     O .bss	00000004 state.3067
00818ba8 l     O .bss	00000004 c
00818bac l     O .bss	00000004 timeoutValue
00818c00 l     O .bss	00000018 camera_timer
00000000 l    df *ABS*	00000000 fclose.c
00000000 l    df *ABS*	00000000 fflush.c
00000000 l    df *ABS*	00000000 fgetc.c
00000000 l    df *ABS*	00000000 findfp.c
00801404 l     F .text	00000058 std
00801510 l     F .text	00000008 __fp_lock
00801518 l     F .text	00000008 __fp_unlock
00000000 l    df *ABS*	00000000 fopen.c
00000000 l    df *ABS*	00000000 fprintf.c
00000000 l    df *ABS*	00000000 fputs.c
00000000 l    df *ABS*	00000000 mallocr.c
00000000 l    df *ABS*	00000000 fseek.c
00000000 l    df *ABS*	00000000 fstatr.c
00000000 l    df *ABS*	00000000 fvwrite.c
00000000 l    df *ABS*	00000000 fwalk.c
00000000 l    df *ABS*	00000000 impure.c
00815224 l     O .rwdata	00000400 impure_data
00000000 l    df *ABS*	00000000 int_errno.c
00000000 l    df *ABS*	00000000 makebuf.c
00000000 l    df *ABS*	00000000 mallocr.c
00000000 l    df *ABS*	00000000 memchr.c
00000000 l    df *ABS*	00000000 memcpy.c
00000000 l    df *ABS*	00000000 memmove.c
00000000 l    df *ABS*	00000000 memset.c
00000000 l    df *ABS*	00000000 openr.c
00000000 l    df *ABS*	00000000 printf.c
00000000 l    df *ABS*	00000000 mallocr.c
00000000 l    df *ABS*	00000000 refill.c
00803c6c l     F .text	0000001c lflush
00000000 l    df *ABS*	00000000 rget.c
00000000 l    df *ABS*	00000000 sbrkr.c
00000000 l    df *ABS*	00000000 sprintf.c
00000000 l    df *ABS*	00000000 sscanf.c
00803e2c l     F .text	00000008 eofread
00000000 l    df *ABS*	00000000 stdio.c
00000000 l    df *ABS*	00000000 strlen.c
00000000 l    df *ABS*	00000000 vfprintf.c
00804100 l     F .text	00000058 __sprint_r
00814be8 l     O .rodata	00000010 blanks.3452
00814bd8 l     O .rodata	00000010 zeroes.3453
00000000 l    df *ABS*	00000000 vfscanf.c
00814c00 l     O .rodata	00000022 basefix.3357
00000000 l    df *ABS*	00000000 writer.c
00000000 l    df *ABS*	00000000 wsetup.c
00000000 l    df *ABS*	00000000 closer.c
00000000 l    df *ABS*	00000000 ctype_.c
00814d28 l     O .rodata	00000180 _ctype_b
00000000 l    df *ABS*	00000000 dtoa.c
008079cc l     F .text	00000218 quorem
00000000 l    df *ABS*	00000000 flags.c
00000000 l    df *ABS*	00000000 fread.c
00000000 l    df *ABS*	00000000 isattyr.c
00000000 l    df *ABS*	00000000 iswspace.c
00000000 l    df *ABS*	00000000 locale.c
00816e74 l     O .rwdata	00000004 charset
00814ec8 l     O .rodata	00000030 lconv
00000000 l    df *ABS*	00000000 lseekr.c
00000000 l    df *ABS*	00000000 mbrtowc.c
00000000 l    df *ABS*	00000000 mbtowc_r.c
00000000 l    df *ABS*	00000000 mprec.c
00815010 l     O .rodata	0000000c p05.2458
00000000 l    df *ABS*	00000000 readr.c
00000000 l    df *ABS*	00000000 s_isinfd.c
00000000 l    df *ABS*	00000000 s_isnand.c
00000000 l    df *ABS*	00000000 sccl.c
00000000 l    df *ABS*	00000000 sf_nan.c
00000000 l    df *ABS*	00000000 strcmp.c
00000000 l    df *ABS*	00000000 strtod.c
0080a9ac l     F .text	00000048 match
00815a4c l     O .rwdata	00000014 fpi.1950
0081502c l     O .rodata	00000028 tinytens
00815a38 l     O .rwdata	00000014 fpinan.1986
00000000 l    df *ABS*	00000000 strtol.c
00000000 l    df *ABS*	00000000 strtoll_r.c
00000000 l    df *ABS*	00000000 strtoul.c
00000000 l    df *ABS*	00000000 strtoull_r.c
00000000 l    df *ABS*	00000000 ungetc.c
00000000 l    df *ABS*	00000000 mallocr.c
00000000 l    df *ABS*	00000000 gdtoa-gethex.c
0080ce24 l     F .text	00000024 htinit
0080ceb0 l     F .text	000000b0 rshift
00000000 l    df *ABS*	00000000 gdtoa-hexnan.c
0080d718 l     F .text	0000004c L_shift
00000000 l    df *ABS*	00000000 libgcc2.c
00000000 l    df *ABS*	00000000 libgcc2.c
00000000 l    df *ABS*	00000000 libgcc2.c
00000000 l    df *ABS*	00000000 libgcc2.c
00000000 l    df *ABS*	00000000 fp-bit.c
00000000 l    df *ABS*	00000000 fp-bit.c
00000000 l    df *ABS*	00000000 fp-bit.c
00000000 l    df *ABS*	00000000 dp-bit.c
0080e7dc l     F .text	00000410 _fpadd_parts
00000000 l    df *ABS*	00000000 dp-bit.c
00000000 l    df *ABS*	00000000 dp-bit.c
00000000 l    df *ABS*	00000000 dp-bit.c
00000000 l    df *ABS*	00000000 dp-bit.c
00000000 l    df *ABS*	00000000 dp-bit.c
00000000 l    df *ABS*	00000000 dp-bit.c
00000000 l    df *ABS*	00000000 dp-bit.c
00000000 l    df *ABS*	00000000 dp-bit.c
00000000 l    df *ABS*	00000000 dp-bit.c
00000000 l    df *ABS*	00000000 dp-bit.c
00000000 l    df *ABS*	00000000 dp-bit.c
00000000 l    df *ABS*	00000000 dp-bit.c
00000000 l    df *ABS*	00000000 dp-bit.c
00000000 l    df *ABS*	00000000 lib2-divmod.c
0080fa04 l     F .text	0000007c udivmodsi4
00000000 l    df *ABS*	00000000 libgcc2.c
00000000 l    df *ABS*	00000000 libgcc2.c
00000000 l    df *ABS*	00000000 fp-bit.c
00000000 l    df *ABS*	00000000 fp-bit.c
00000000 l    df *ABS*	00000000 fp-bit.c
00000000 l    df *ABS*	00000000 dp-bit.c
00000000 l    df *ABS*	00000000 dp-bit.c
00000000 l    df *ABS*	00000000 dp-bit.c
00000000 l    df *ABS*	00000000 fp-bit.c
00000000 l    df *ABS*	00000000 alt_alarm_start.c
00000000 l    df *ABS*	00000000 alt_close.c
00810630 l     F .text	00000060 alt_get_errno
00000000 l    df *ABS*	00000000 alt_dev.c
00810690 l     F .text	0000002c alt_dev_null_write
00000000 l    df *ABS*	00000000 alt_errno.c
00000000 l    df *ABS*	00000000 alt_fstat.c
00810790 l     F .text	00000060 alt_get_errno
00000000 l    df *ABS*	00000000 alt_irq_register.c
00000000 l    df *ABS*	00000000 alt_irq_vars.c
00000000 l    df *ABS*	00000000 alt_isatty.c
00810a70 l     F .text	00000060 alt_get_errno
00000000 l    df *ABS*	00000000 alt_load.c
00810b50 l     F .text	0000006c alt_load_section
00000000 l    df *ABS*	00000000 alt_lseek.c
00810cac l     F .text	00000060 alt_get_errno
00000000 l    df *ABS*	00000000 alt_main.c
00000000 l    df *ABS*	00000000 alt_malloc_lock.c
00000000 l    df *ABS*	00000000 alt_open.c
00810db8 l     F .text	000000dc alt_file_locked
0081101c l     F .text	00000060 alt_get_errno
00000000 l    df *ABS*	00000000 alt_read.c
0081119c l     F .text	00000060 alt_get_errno
00000000 l    df *ABS*	00000000 alt_release_fd.c
00000000 l    df *ABS*	00000000 alt_sbrk.c
00816e94 l     O .rwdata	00000004 heap_end
00000000 l    df *ABS*	00000000 alt_tick.c
00000000 l    df *ABS*	00000000 alt_write.c
008115dc l     F .text	00000060 alt_get_errno
00000000 l    df *ABS*	00000000 alt_sys_init.c
00815c08 l     O .rwdata	00001060 jtag_uart
00816c68 l     O .rwdata	00000120 lcd
00816d88 l     O .rwdata	000000c4 uart
00811704 l     F .text	00000038 alt_dev_reg
00000000 l    df *ABS*	00000000 altera_avalon_jtag_uart_fd.c
00000000 l    df *ABS*	00000000 altera_avalon_jtag_uart_init.c
00811944 l     F .text	00000228 altera_avalon_jtag_uart_irq
00811b6c l     F .text	000000b0 altera_avalon_jtag_uart_timeout
00000000 l    df *ABS*	00000000 altera_avalon_jtag_uart_ioctl.c
00000000 l    df *ABS*	00000000 altera_avalon_jtag_uart_read.c
00000000 l    df *ABS*	00000000 altera_avalon_jtag_uart_write.c
00000000 l    df *ABS*	00000000 altera_avalon_lcd_16207.c
00816ea0 l     O .rwdata	00000004 colstart
008121e8 l     F .text	000000b8 lcd_write_command
008122a0 l     F .text	000000d4 lcd_write_data
00812374 l     F .text	000000c4 lcd_clear_screen
00812438 l     F .text	000001ec lcd_repaint_screen
00812624 l     F .text	000000c8 lcd_scroll_up
008126ec l     F .text	000002d0 lcd_handle_escape
00812ec8 l     F .text	000000cc alt_lcd_16207_timeout
00000000 l    df *ABS*	00000000 altera_avalon_lcd_16207_fd.c
00000000 l    df *ABS*	00000000 altera_avalon_timer_sc.c
00813128 l     F .text	00000070 alt_avalon_timer_sc_irq
00000000 l    df *ABS*	00000000 altera_avalon_uart_fd.c
00000000 l    df *ABS*	00000000 altera_avalon_uart_init.c
008133e8 l     F .text	0000009c altera_avalon_uart_irq
00813484 l     F .text	000000e0 altera_avalon_uart_rxirq
00813564 l     F .text	0000015c altera_avalon_uart_txirq
00000000 l    df *ABS*	00000000 altera_avalon_uart_read.c
00813950 l     F .text	00000060 alt_get_errno
00000000 l    df *ABS*	00000000 altera_avalon_uart_write.c
00813b78 l     F .text	00000060 alt_get_errno
00000000 l    df *ABS*	00000000 alt_dcache_flush_all.c
00000000 l    df *ABS*	00000000 alt_dev_llist_insert.c
00813cd0 l     F .text	00000060 alt_get_errno
00000000 l    df *ABS*	00000000 alt_do_ctors.c
00000000 l    df *ABS*	00000000 alt_do_dtors.c
00000000 l    df *ABS*	00000000 alt_find_dev.c
00000000 l    df *ABS*	00000000 alt_find_file.c
00000000 l    df *ABS*	00000000 alt_get_fd.c
00000000 l    df *ABS*	00000000 alt_icache_flush_all.c
00000000 l    df *ABS*	00000000 alt_iic.c
00000000 l    df *ABS*	00000000 alt_iic_isr_register.c
00000000 l    df *ABS*	00000000 alt_io_redirect.c
00814360 l     F .text	000000c4 alt_open_fd
00000000 l    df *ABS*	00000000 alt_usleep.c
00000000 l    df *ABS*	00000000 altera_nios2_qsys_irq.c
00000000 l    df *ABS*	00000000 alt_busy_sleep.c
00000000 l    df *ABS*	00000000 alt_icache_flush.c
00000000 l    df *ABS*	00000000 atexit.c
00000000 l    df *ABS*	00000000 exit.c
00000000 l    df *ABS*	00000000 memcmp.c
00000000 l    df *ABS*	00000000 __atexit.c
00000000 l    df *ABS*	00000000 __call_atexit.c
008148bc l     F .text	00000004 register_fini
00000000 l    df *ABS*	00000000 alt_exit.c
00814a70 l     F .text	00000040 alt_sim_halt
00809b58 g     F .text	00000094 _mprec_log10
00800248 g     F .text	00000068 lcd_set_mode
00809c44 g     F .text	00000088 __any_on
00809474 g     F .text	00000070 _isatty_r
00814fe8 g     O .rodata	00000028 __mprec_tinytens
00810d0c g     F .text	0000006c alt_main
00818d40 g     O .bss	00000100 alt_irq
008095d4 g     F .text	00000078 _lseek_r
00816ea4 g       *ABS*	00000000 __flash_rwdata_start
00809198 g     F .text	000000a0 __sflags
0080f2fc g     F .text	00000088 __eqdf2
00818fd0 g       *ABS*	00000000 __alt_heap_start
00800dc0 g     F .text	00000060 printToUART
0080343c g     F .text	00000044 printf
00803f48 g     F .text	00000068 __sseek
0080146c g     F .text	000000a4 __sinit
00809534 g     F .text	00000084 _setlocale_r
0080156c g     F .text	00000068 __sfmoreglue
0080cd54 g     F .text	0000001c ungetc
00810d98 g     F .text	00000020 __malloc_unlock
0080a9f4 g     F .text	000014e4 _strtod_r
00818bb0 g     O .bss	00000004 fp
0080324c g     F .text	000000e0 memmove
0080155c g     F .text	00000010 _cleanup
00809ccc g     F .text	000000bc _Balloc
00800bb0 g     F .text	00000020 buffer_timeout
0080f40c g     F .text	00000088 __gtdf2
00000000  w      *UND*	00000000 __errno
00800000 g     F .entry	0000001c __reset
00800020 g       *ABS*	00000000 __flash_exceptions_start
00802164 g     F .text	00000074 _fstat_r
00818bb4 g     O .bss	00000004 errno
00803cd4 g     F .text	00000014 __srget
008076a8 g     F .text	00000024 __svfscanf
00800000 g       *ABS*	00000000 __alt_mem_sdram_controller
0080fd40 g     F .text	0000002c __make_fp
00818bd8 g     O .bss	00000004 alt_argv
0081ee4c g       *ABS*	00000000 _gp
0081449c g     F .text	00000030 usleep
008003b8 g     F .text	0000002c handle_mode_button
00800560 g     F .text	00000088 tlc_timer_isr
00815a88 g     O .rwdata	00000180 alt_fd_list
00813df8 g     F .text	00000094 alt_find_dev
008031ac g     F .text	000000a0 memcpy
0080d764 g     F .text	00000248 __hexnan
00800bf0 g     F .text	000000b8 camera_timer_isr
00801550 g     F .text	0000000c _cleanup_r
0080f62c g     F .text	000000f8 __floatsidf
00814424 g     F .text	00000078 alt_io_redirect
0080f51c g     F .text	00000088 __ltdf2
00814ad4 g       *ABS*	00000000 __DTOR_END__
008096cc g     F .text	00000040 mbrtowc
008076cc g     F .text	00000068 _vfscanf_r
00809aa8 g     F .text	000000b0 __ratio
00800730 g     F .text	000001dc pedestrian_tlc
00811d84 g     F .text	00000224 altera_avalon_jtag_uart_read
00000000  w      *UND*	00000000 malloc
00803480 g     F .text	00000034 _printf_r
0080fb40 g     F .text	00000008 __udivsi3
008109b0 g     F .text	000000c0 isatty
008094e4 g     F .text	0000002c iswspace
00814ef8 g     O .rodata	000000c8 __mprec_tens
00809510 g     F .text	00000008 __locale_charset
0080da44 g     F .text	000000a4 __fixunsdfsi
00814638 g     F .text	00000090 alt_icache_flush
00818bb8 g     O .bss	00000004 __malloc_top_pad
0080c7c8 g     F .text	00000024 strtoul
00816e70 g     O .rwdata	00000004 __mb_cur_max
00809518 g     F .text	0000000c _localeconv_r
0080c7ec g     F .text	000002f0 _strtoull_r
0080a3c4 g     F .text	0000003c __i2b
008021d8 g     F .text	0000049c __sfvwrite_r
00803ce8 g     F .text	00000070 _sbrk_r
0080090c g     F .text	000000b4 configurable_tlc
0080a740 g     F .text	00000078 _read_r
00815a2c g     O .rwdata	0000000c __lc_ctype
00816e88 g     O .rwdata	00000004 alt_max_fd
00810080 g     F .text	00000138 __unpack_d
00800f88 g     F .text	00000110 _fclose_r
008012a8 g     F .text	00000034 fflush
00800e20 g     F .text	0000003c handle_vehicle_button
00818bbc g     O .bss	00000004 __malloc_max_sbrked_mem
008107f0 g     F .text	000001c0 alt_irq_register
00801374 g     F .text	00000090 _fgetc_r
0080ec6c g     F .text	00000074 __adddf3
0080e674 g     F .text	00000078 __nesf2
00809988 g     F .text	00000120 __b2d
0080e0c4 g     F .text	000005b0 __umoddi3
00810bbc g     F .text	000000f0 lseek
00816e60 g     O .rwdata	00000004 _global_impure_ptr
008034b4 g     F .text	000005f4 _realloc_r
00818fd0 g       *ABS*	00000000 __bss_end
00814268 g     F .text	000000f8 alt_iic_isr_register
008113b0 g     F .text	0000010c alt_tick
00818c40 g     O .bss	00000100 __hexdig
0080dae8 g     F .text	000005dc __udivdi3
00814fc0 g     O .rodata	00000028 __mprec_bigtens
0080a620 g     F .text	00000120 __s2b
0080f870 g     F .text	00000194 __floatunsidf
008098a8 g     F .text	00000060 __mcmp
00813320 g     F .text	000000c8 altera_avalon_uart_init
00816e6c g     O .rwdata	00000004 __ctype_ptr
00801538 g     F .text	00000018 __fp_lock_all
00814220 g     F .text	00000048 alt_ic_irq_enabled
00811318 g     F .text	00000098 alt_alarm_stop
00800ca8 g     F .text	00000118 camera_tlc
0080c25c g     F .text	00000024 strtol
00818bd0 g     O .bss	00000004 alt_irq_active
01008000 g       *ABS*	00000000 __alt_mem_onchip_mem
008000ec g     F .exceptions	000000c8 alt_irq_handler
00815a60 g     O .rwdata	00000028 alt_dev_null
0080fbd0 g     F .text	000000c8 __unpack_f
00813bd8 g     F .text	00000044 alt_dcache_flush_all
00809774 g     F .text	00000070 __hi0bits
0080f724 g     F .text	000000d8 __fixdfsi
0080bffc g     F .text	0000001c strtod
00816ea4 g       *ABS*	00000000 __ram_rwdata_end
00816e80 g     O .rwdata	00000008 alt_dev_list
008114bc g     F .text	00000120 write
0080e6ec g     F .text	00000078 __gtsf2
008151c8 g       *ABS*	00000000 __ram_rodata_end
008106bc g     F .text	000000d4 fstat
008017d4 g     F .text	0000002c fprintf
0080f5a4 g     F .text	00000088 __ledf2
0080a500 g     F .text	00000120 __pow5mult
00818bc4 g     O .bss	00000004 __nlocale_changed
0080fb48 g     F .text	00000008 __umodsi3
00818fd0 g       *ABS*	00000000 end
00810280 g     F .text	00000160 __pack_f
008129bc g     F .text	0000050c altera_avalon_lcd_16207_write
008139b0 g     F .text	000001c8 altera_avalon_uart_write
00802140 g     F .text	00000024 fseek
00811884 g     F .text	000000c0 altera_avalon_jtag_uart_init
00814ad0 g       *ABS*	00000000 __CTOR_LIST__
01000000 g       *ABS*	00000000 __alt_stack_pointer
00813198 g     F .text	00000090 alt_avalon_timer_sc_init
00813280 g     F .text	00000058 altera_avalon_uart_write_fd
0080fb50 g     F .text	00000080 __clzsi2
008132d8 g     F .text	00000048 altera_avalon_uart_close_fd
00811fa8 g     F .text	00000240 altera_avalon_jtag_uart_write
0080145c g     F .text	00000004 __sfp_lock_acquire
008030c8 g     F .text	000000e4 memchr
00804158 g     F .text	00001eac ___vfprintf_internal_r
00803dcc g     F .text	00000060 _sprintf_r
008019f0 g     F .text	00000314 _free_r
008148c0 g     F .text	000001b0 __call_exitprocs
00803c88 g     F .text	0000004c __srget_r
00818bc8 g     O .bss	00000004 __mlocale_changed
00816e68 g     O .rwdata	00000004 __malloc_sbrk_base
008001b4 g     F .text	0000004c _start
00818be0 g     O .bss	00000004 _alt_tick_rate
0080c280 g     F .text	00000318 _strtoll_r
00816e4c g     O .rwdata	00000005 chararray
0080a090 g     F .text	0000014c __lshift
00818be4 g     O .bss	00000004 _alt_nticks
0081107c g     F .text	00000120 read
00811670 g     F .text	00000094 alt_sys_init
008033c4 g     F .text	00000078 _open_r
00814788 g     F .text	00000134 __register_exitproc
0080a1dc g     F .text	000001e8 __multiply
00811c1c g     F .text	00000074 altera_avalon_jtag_uart_close
008151c8 g       *ABS*	00000000 __ram_rwdata_start
00814ad4 g       *ABS*	00000000 __ram_rodata_start
00818c18 g     O .bss	00000028 __malloc_current_mallinfo
00809d88 g     F .text	0000017c __d2b
0081173c g     F .text	00000058 altera_avalon_jtag_uart_read_fd
0080c598 g     F .text	00000230 _strtoul_r
00813fac g     F .text	000000b8 alt_get_fd
008144ec g     F .text	0000014c alt_busy_sleep
008101b8 g     F .text	000000c8 __fpcmp_parts_d
0080795c g     F .text	00000070 _close_r
00814714 g     F .text	00000074 memcmp
008117ec g     F .text	00000048 altera_avalon_jtag_uart_close_fd
00818fd0 g       *ABS*	00000000 __alt_stack_base
00811834 g     F .text	00000050 altera_avalon_jtag_uart_ioctl_fd
00803ebc g     F .text	00000084 sscanf
00807820 g     F .text	0000013c __swsetup_r
0080f0a4 g     F .text	00000258 __divdf3
008015d4 g     F .text	000000f0 __sfp
00809bec g     F .text	00000058 __copybits
00815624 g     O .rwdata	00000408 __malloc_av_
00801468 g     F .text	00000004 __sinit_lock_release
0080ece0 g     F .text	000003c4 __muldf3
0080402c g     F .text	00000060 __sread
00809434 g     F .text	00000040 fread
00813e8c g     F .text	00000120 alt_find_file
00813c1c g     F .text	000000b4 alt_dev_llist_insert
00810d78 g     F .text	00000020 __malloc_lock
00801800 g     F .text	00000034 _fprintf_r
0081125c g     F .text	000000bc sbrk
008010ac g     F .text	000001fc _fflush_r
0080cd70 g     F .text	000000b4 _calloc_r
008017b8 g     F .text	0000001c fopen
00818b80 g       *ABS*	00000000 __bss_start
0080332c g     F .text	00000098 memset
00800e5c g     F .text	0000012c main
00818bdc g     O .bss	00000004 alt_envp
00818bc0 g     O .bss	00000004 __malloc_max_total_mem
00811794 g     F .text	00000058 altera_avalon_jtag_uart_write_fd
0080e764 g     F .text	00000078 __ltsf2
00809238 g     F .text	000001fc _fread_r
00812f94 g     F .text	0000013c altera_avalon_lcd_16207_init
008009c0 g     F .text	00000048 config_tlc
00803f40 g     F .text	00000008 __sclose
01000000 g       *ABS*	00000000 __alt_heap_limit
00801098 g     F .text	00000014 fclose
0080c018 g     F .text	00000244 _strtol_r
0080f7fc g     F .text	00000074 __truncdfsf2
00818e40 g     O .bss	00000190 _atexit0
008002b0 g     F .text	00000108 buttons_driver
00807be4 g     F .text	000015b4 _dtoa_r
00802988 g     F .text	00000740 _malloc_r
00816e8c g     O .rwdata	00000004 alt_errno
0080cadc g     F .text	000000dc __submore
008005e8 g     F .text	000000e4 NSEW_ped_isr
0080273c g     F .text	000000b8 _fwalk
0080970c g     F .text	00000040 _mbtowc_r
0080fa80 g     F .text	00000060 __divsi3
00815070 g     O .rodata	00000014 __thenan_df
008018c4 g     F .text	0000012c _malloc_trim_r
00800bd0 g     F .text	00000020 update_timeout
00814ad4 g       *ABS*	00000000 __CTOR_END__
0080a8f0 g     F .text	000000bc strcmp
00814ad4 g       *ABS*	00000000 __flash_rodata_start
00814ad4 g       *ABS*	00000000 __DTOR_LIST__
0080f384 g     F .text	00000088 __nedf2
0081163c g     F .text	00000034 alt_irq_init
008111fc g     F .text	00000060 alt_release_fd
008012dc g     F .text	00000098 fgetc
00803d58 g     F .text	00000074 sprintf
00815084 g     O .rodata	00000100 __clz_tab
00818bcc g     O .bss	00000004 _PathLocale
0080bed8 g     F .text	00000124 strtof
008146c8 g     F .text	00000014 atexit
008077a8 g     F .text	00000078 _write_r
008095b8 g     F .text	0000001c setlocale
0080a8e8 g     F .text	00000008 nanf
00816e5c g     O .rwdata	00000004 _impure_ptr
00818bd4 g     O .bss	00000004 alt_argc
0080964c g     F .text	00000080 _mbrtowc_r
00813d94 g     F .text	00000064 _do_dtors
00801d04 g     F .text	0000043c _fseek_r
00800a08 g     F .text	000001a8 timeout_data_handler
00803aa8 g     F .text	000001c4 __srefill_r
00800020 g       .exceptions	00000000 alt_irq_entry
00809908 g     F .text	00000080 __ulp
0080a7b8 g     F .text	00000040 __isinfd
00801520 g     F .text	00000018 __fp_unlock_all
008130d0 g     F .text	00000058 altera_avalon_lcd_16207_write_fd
00816e78 g     O .rwdata	00000008 alt_fs_list
00800020 g       *ABS*	00000000 __ram_exceptions_start
00809524 g     F .text	00000010 localeconv
00814094 g     F .text	00000050 alt_ic_isr_register
0080ce48 g     F .text	00000068 __hexdig_init
00803e34 g     F .text	00000088 _sscanf_r
00816ea4 g       *ABS*	00000000 _edata
00813228 g     F .text	00000058 altera_avalon_uart_read_fd
00818fd0 g       *ABS*	00000000 _end
008001b4 g       *ABS*	00000000 __ram_exceptions_end
00807734 g     F .text	00000074 vfscanf
00811c90 g     F .text	000000f4 altera_avalon_jtag_uart_ioctl
00801834 g     F .text	00000074 _fputs_r
00814180 g     F .text	000000a0 alt_ic_irq_disable
00803fb0 g     F .text	0000007c __swrite
00816e64 g     O .rwdata	00000004 __malloc_trim_threshold
008144cc g     F .text	00000020 altera_nios2_qsys_irq_init
008146dc g     F .text	00000038 exit
00802674 g     F .text	000000c8 _fwalk_reent
00809f04 g     F .text	0000018c __mdiff
008003e4 g     F .text	0000017c simple_tlc
0080fae0 g     F .text	00000060 __modsi3
01000000 g       *ABS*	00000000 __alt_data_end
00800020 g     F .exceptions	00000000 alt_exception
00801460 g     F .text	00000004 __sfp_lock_release
0080a828 g     F .text	000000c0 __sccl
00800200 g     F .text	00000048 init_tlc
00814c24 g     O .rodata	00000101 _ctype_
008136c0 g     F .text	00000060 altera_avalon_uart_close
0080fc98 g     F .text	000000a8 __fpcmp_parts_f
008016c4 g     F .text	000000f4 _fopen_r
00814ab0 g     F .text	00000020 _exit
0080a7f8 g     F .text	00000030 __isnand
008103e0 g     F .text	00000154 alt_alarm_start
0080d9ac g     F .text	00000098 __muldi3
008027f4 g     F .text	00000194 __smakebuf_r
0080408c g     F .text	00000074 strlen
00810e94 g     F .text	00000188 open
0080f494 g     F .text	00000088 __gedf2
0080cf60 g     F .text	000007b8 __gethex
00814064 g     F .text	00000030 alt_icache_flush_all
008018a8 g     F .text	0000001c fputs
00816e90 g     O .rwdata	00000004 alt_priority_mask
008140e4 g     F .text	0000009c alt_ic_irq_enable
00806004 g     F .text	00000024 __vfprintf_internal
00813720 g     F .text	00000230 altera_avalon_uart_read
0080ebec g     F .text	00000080 __subdf3
008097e4 g     F .text	000000c4 __lo0bits
00806028 g     F .text	00001680 __svfscanf_r
00816e98 g     O .rwdata	00000008 alt_alarm_list
0080cbb8 g     F .text	0000019c _ungetc_r
00813d30 g     F .text	00000064 _do_ctors
00810534 g     F .text	000000fc close
008006cc g     F .text	00000064 init_buttons_pio
00810ad0 g     F .text	00000080 alt_load
0080fd6c g     F .text	00000314 __pack_d
00000000  w      *UND*	00000000 free
00801464 g     F .text	00000004 __sinit_lock_acquire
0080a400 g     F .text	00000100 __multadd
0080974c g     F .text	00000028 _Bfree



Disassembly of section .entry:

00800000 <__reset>:
#if NIOS2_ICACHE_SIZE > 0 && defined(ALT_ALLOW_CODE_AT_RESET) && !defined(ALT_SIM_OPTIMIZE)
    /* Assume the instruction cache size is always a power of two. */
#if NIOS2_ICACHE_SIZE > 0x8000
    movhi r2, %hi(NIOS2_ICACHE_SIZE)
#else
    movui r2, NIOS2_ICACHE_SIZE
  800000:	00840014 	movui	r2,4096
#endif

0:
    initi r2
  800004:	1001483a 	initi	r2
    addi r2, r2, -NIOS2_ICACHE_LINE_SIZE
  800008:	10bff804 	addi	r2,r2,-32
    bgt r2, zero, 0b
  80000c:	00bffd16 	blt	zero,r2,800004 <__reset+0x4>
 * Jump to the _start entry point in the .text section if reset code
 * is allowed or if optimizing for RTL simulation.
 */
#if defined(ALT_ALLOW_CODE_AT_RESET) || defined(ALT_SIM_OPTIMIZE)
    /* Jump to the _start entry point in the .text section. */
    movhi r1, %hi(_start)
  800010:	00402034 	movhi	at,128
    ori r1, r1, %lo(_start)
  800014:	08406d14 	ori	at,at,436
    jmp r1
  800018:	0800683a 	jmp	at
  80001c:	00000000 	call	0 <__reset-0x800000>

Disassembly of section .exceptions:

00800020 <alt_exception>:
         * Process an exception.  For all exceptions we must preserve all
         * caller saved registers on the stack (See the Nios2 ABI
         * documentation for details).
         */

        addi  sp, sp, -76
  800020:	deffed04 	addi	sp,sp,-76

#endif

#endif

        stw   ra,  0(sp)
  800024:	dfc00015 	stw	ra,0(sp)
        /*
         * Leave a gap in the stack frame at 4(sp) for the muldiv handler to
         * store zero into.
         */

        stw   r1,   8(sp)
  800028:	d8400215 	stw	at,8(sp)
        stw   r2,  12(sp)
  80002c:	d8800315 	stw	r2,12(sp)
        stw   r3,  16(sp)
  800030:	d8c00415 	stw	r3,16(sp)
        stw   r4,  20(sp)
  800034:	d9000515 	stw	r4,20(sp)
        stw   r5,  24(sp)
  800038:	d9400615 	stw	r5,24(sp)
        stw   r6,  28(sp)
  80003c:	d9800715 	stw	r6,28(sp)
        stw   r7,  32(sp)
  800040:	d9c00815 	stw	r7,32(sp)

        rdctl r5, estatus
  800044:	000b307a 	rdctl	r5,estatus

        stw   r8,  36(sp)
  800048:	da000915 	stw	r8,36(sp)
        stw   r9,  40(sp)
  80004c:	da400a15 	stw	r9,40(sp)
        stw   r10, 44(sp)
  800050:	da800b15 	stw	r10,44(sp)
        stw   r11, 48(sp)
  800054:	dac00c15 	stw	r11,48(sp)
        stw   r12, 52(sp)
  800058:	db000d15 	stw	r12,52(sp)
        stw   r13, 56(sp)
  80005c:	db400e15 	stw	r13,56(sp)
        stw   r14, 60(sp)
  800060:	db800f15 	stw	r14,60(sp)
        stw   r15, 64(sp)
  800064:	dbc01015 	stw	r15,64(sp)
        /*
         * ea-4 contains the address of the instruction being executed
         * when the exception occured. For interrupt exceptions, we will
         * will be re-issue the isntruction. Store it in 72(sp)
         */
        stw   r5,  68(sp)  /* estatus */
  800068:	d9401115 	stw	r5,68(sp)
        addi  r15, ea, -4  /* instruction that caused exception */
  80006c:	ebffff04 	addi	r15,ea,-4
        stw   r15,  72(sp)
  800070:	dbc01215 	stw	r15,72(sp)
#else
        /*
         * Test to see if the exception was a software exception or caused 
         * by an external interrupt, and vector accordingly.
         */
        rdctl r4, ipending
  800074:	0009313a 	rdctl	r4,ipending
        andi  r2, r5, 1
  800078:	2880004c 	andi	r2,r5,1
        beq   r2, zero, .Lnot_irq
  80007c:	10000326 	beq	r2,zero,80008c <alt_exception+0x6c>
        beq   r4, zero, .Lnot_irq
  800080:	20000226 	beq	r4,zero,80008c <alt_exception+0x6c>
        /*
         * Now that all necessary registers have been preserved, call 
         * alt_irq_handler() to process the interrupts.
         */

        call alt_irq_handler
  800084:	08000ec0 	call	8000ec <alt_irq_handler>

        .section .exceptions.irqreturn, "xa"

        br    .Lexception_exit
  800088:	00000306 	br	800098 <alt_exception+0x78>
         * upon completion, so we write ea (address of instruction *after*
         * the one where the exception occured) into 72(sp). The actual
         * instruction that caused the exception is written in r2, which these
         * handlers will utilize.
         */
        stw   ea,  72(sp)  /* Don't re-issue */
  80008c:	df401215 	stw	ea,72(sp)
        ldw   r2, -4(ea)   /* Instruction that caused exception */
  800090:	e8bfff17 	ldw	r2,-4(ea)
#ifdef NIOS2_HAS_DEBUG_STUB
       /*
        *  Either tell the user now (if there is a debugger attached) or go into
        *  the debug monitor which will loop until a debugger is attached.
        */
        break
  800094:	003da03a 	break	0
        /* 
         * Restore the saved registers, so that all general purpose registers 
         * have been restored to their state at the time the interrupt occured.
         */

        ldw   r5,  68(sp)
  800098:	d9401117 	ldw	r5,68(sp)
        ldw   ea,  72(sp)  /* This becomes the PC once eret is executed */
  80009c:	df401217 	ldw	ea,72(sp)
        ldw   ra,   0(sp)
  8000a0:	dfc00017 	ldw	ra,0(sp)

        wrctl estatus, r5
  8000a4:	2801707a 	wrctl	estatus,r5

        ldw   r1,   8(sp)
  8000a8:	d8400217 	ldw	at,8(sp)
        ldw   r2,  12(sp)
  8000ac:	d8800317 	ldw	r2,12(sp)
        ldw   r3,  16(sp)
  8000b0:	d8c00417 	ldw	r3,16(sp)
        ldw   r4,  20(sp)
  8000b4:	d9000517 	ldw	r4,20(sp)
        ldw   r5,  24(sp)
  8000b8:	d9400617 	ldw	r5,24(sp)
        ldw   r6,  28(sp)
  8000bc:	d9800717 	ldw	r6,28(sp)
        ldw   r7,  32(sp)
  8000c0:	d9c00817 	ldw	r7,32(sp)
#ifdef ALT_STACK_CHECK
        ldw   et, %gprel(alt_exception_old_stack_limit)(gp)
#endif
#endif

        ldw   r8,  36(sp)
  8000c4:	da000917 	ldw	r8,36(sp)
        ldw   r9,  40(sp)
  8000c8:	da400a17 	ldw	r9,40(sp)
        ldw   r10, 44(sp)
  8000cc:	da800b17 	ldw	r10,44(sp)
        ldw   r11, 48(sp)
  8000d0:	dac00c17 	ldw	r11,48(sp)
        ldw   r12, 52(sp)
  8000d4:	db000d17 	ldw	r12,52(sp)
        ldw   r13, 56(sp)
  8000d8:	db400e17 	ldw	r13,56(sp)
        ldw   r14, 60(sp)
  8000dc:	db800f17 	ldw	r14,60(sp)
        ldw   r15, 64(sp)
  8000e0:	dbc01017 	ldw	r15,64(sp)
#endif

        ldw   sp,  76(sp)

#else
        addi  sp, sp, 76
  8000e4:	dec01304 	addi	sp,sp,76

        /*
         * Return to the interrupted instruction.
         */

        eret
  8000e8:	ef80083a 	eret

008000ec <alt_irq_handler>:
 * instruction is present if the macro ALT_CI_INTERRUPT_VECTOR defined.
 */

void alt_irq_handler (void) __attribute__ ((section (".exceptions")));
void alt_irq_handler (void)
{
  8000ec:	defff904 	addi	sp,sp,-28
  8000f0:	dfc00615 	stw	ra,24(sp)
  8000f4:	df000515 	stw	fp,20(sp)
  8000f8:	df000504 	addi	fp,sp,20
#ifndef NIOS2_EIC_PRESENT
static ALT_INLINE alt_u32 ALT_ALWAYS_INLINE alt_irq_pending (void)
{
  alt_u32 active;

  NIOS2_READ_IPENDING (active);
  8000fc:	0005313a 	rdctl	r2,ipending
  800100:	e0bffc15 	stw	r2,-16(fp)

  return active;
  800104:	e0bffc17 	ldw	r2,-16(fp)
   * Consider the case where the high priority interupt is asserted during
   * the interrupt entry sequence for a lower priority interrupt to see why
   * this is the case.
   */

  active = alt_irq_pending ();
  800108:	e0bfff15 	stw	r2,-4(fp)

  do
  {
    i = 0;
  80010c:	e03ffd15 	stw	zero,-12(fp)
    mask = 1;
  800110:	00800044 	movi	r2,1
  800114:	e0bffe15 	stw	r2,-8(fp)
     * called to clear the interrupt condition.
     */

    do
    {
      if (active & mask)
  800118:	e0ffff17 	ldw	r3,-4(fp)
  80011c:	e0bffe17 	ldw	r2,-8(fp)
  800120:	1884703a 	and	r2,r3,r2
  800124:	1005003a 	cmpeq	r2,r2,zero
  800128:	1000161e 	bne	r2,zero,800184 <alt_irq_handler+0x98>
      { 
#ifdef ALT_ENHANCED_INTERRUPT_API_PRESENT
        alt_irq[i].handler(alt_irq[i].context); 
  80012c:	e0bffd17 	ldw	r2,-12(fp)
  800130:	00c020b4 	movhi	r3,130
  800134:	18e35004 	addi	r3,r3,-29376
  800138:	100490fa 	slli	r2,r2,3
  80013c:	10c5883a 	add	r2,r2,r3
  800140:	11400017 	ldw	r5,0(r2)
  800144:	e0bffd17 	ldw	r2,-12(fp)
  800148:	00c020b4 	movhi	r3,130
  80014c:	18e35004 	addi	r3,r3,-29376
  800150:	100490fa 	slli	r2,r2,3
  800154:	10c5883a 	add	r2,r2,r3
  800158:	10800104 	addi	r2,r2,4
  80015c:	11000017 	ldw	r4,0(r2)
  800160:	283ee83a 	callr	r5
#ifndef NIOS2_EIC_PRESENT
static ALT_INLINE alt_u32 ALT_ALWAYS_INLINE alt_irq_pending (void)
{
  alt_u32 active;

  NIOS2_READ_IPENDING (active);
  800164:	0005313a 	rdctl	r2,ipending
  800168:	e0bffb15 	stw	r2,-20(fp)

  return active;
  80016c:	e0bffb17 	ldw	r2,-20(fp)
      mask <<= 1;
      i++;

    } while (1);

    active = alt_irq_pending ();
  800170:	e0bfff15 	stw	r2,-4(fp)
    
  } while (active);
  800174:	e0bfff17 	ldw	r2,-4(fp)
  800178:	1004c03a 	cmpne	r2,r2,zero
  80017c:	103fe31e 	bne	r2,zero,80010c <alt_irq_handler+0x20>
  800180:	00000706 	br	8001a0 <alt_irq_handler+0xb4>
#else
        alt_irq[i].handler(alt_irq[i].context, i); 
#endif
        break;
      }
      mask <<= 1;
  800184:	e0bffe17 	ldw	r2,-8(fp)
  800188:	1085883a 	add	r2,r2,r2
  80018c:	e0bffe15 	stw	r2,-8(fp)
      i++;
  800190:	e0bffd17 	ldw	r2,-12(fp)
  800194:	10800044 	addi	r2,r2,1
  800198:	e0bffd15 	stw	r2,-12(fp)

    } while (1);
  80019c:	003fde06 	br	800118 <alt_irq_handler+0x2c>
  /*
   * Notify the operating system that interrupt processing is complete.
   */ 

  ALT_OS_INT_EXIT();
}
  8001a0:	e037883a 	mov	sp,fp
  8001a4:	dfc00117 	ldw	ra,4(sp)
  8001a8:	df000017 	ldw	fp,0(sp)
  8001ac:	dec00204 	addi	sp,sp,8
  8001b0:	f800283a 	ret

Disassembly of section .text:

008001b4 <_start>:

    /* Assume the data cache size is always a power of two. */
#if NIOS2_DCACHE_SIZE > 0x8000
    movhi r2, %hi(NIOS2_DCACHE_SIZE)
#else
    movui r2, NIOS2_DCACHE_SIZE
  8001b4:	00820014 	movui	r2,2048
#endif

0:
    initd 0(r2)
  8001b8:	10000033 	initd	0(r2)
    addi r2, r2, -NIOS2_DCACHE_LINE_SIZE
  8001bc:	10bff804 	addi	r2,r2,-32
    bgt r2, zero, 0b
  8001c0:	00bffd16 	blt	zero,r2,8001b8 <_start+0x4>
#if (NIOS2_NUM_OF_SHADOW_REG_SETS == 0)    
    /*
     * Now that the caches are initialized, set up the stack pointer.
     * The value provided by the linker is assumed to be correctly aligned.
     */
    movhi sp, %hi(__alt_stack_pointer)
  8001c4:	06c04034 	movhi	sp,256
    ori sp, sp, %lo(__alt_stack_pointer)
  8001c8:	dec00014 	ori	sp,sp,0

    /* Set up the global pointer. */
    movhi gp, %hi(_gp)
  8001cc:	06802074 	movhi	gp,129
    ori gp, gp, %lo(_gp)
  8001d0:	d6bb9314 	ori	gp,gp,61004
 */
#ifndef ALT_SIM_OPTIMIZE
    /* Log that the BSS is about to be cleared. */
    ALT_LOG_PUTS(alt_log_msg_bss)

    movhi r2, %hi(__bss_start)
  8001d4:	00802074 	movhi	r2,129
    ori r2, r2, %lo(__bss_start)
  8001d8:	10a2e014 	ori	r2,r2,35712

    movhi r3, %hi(__bss_end)
  8001dc:	00c02074 	movhi	r3,129
    ori r3, r3, %lo(__bss_end)
  8001e0:	18e3f414 	ori	r3,r3,36816

    beq r2, r3, 1f
  8001e4:	10c00326 	beq	r2,r3,8001f4 <_start+0x40>

0:
    stw zero, (r2)
  8001e8:	10000015 	stw	zero,0(r2)
    addi r2, r2, 4
  8001ec:	10800104 	addi	r2,r2,4
    bltu r2, r3, 0b
  8001f0:	10fffd36 	bltu	r2,r3,8001e8 <_start+0x34>
     * section aren't defined until alt_load() has been called).
     */
    mov   et, zero
#endif

    call alt_load
  8001f4:	0810ad00 	call	810ad0 <alt_load>

    /* Log that alt_main is about to be called. */
    ALT_LOG_PUTS(alt_log_msg_alt_main)

    /* Call the C entry point. It should never return. */
    call alt_main
  8001f8:	0810d0c0 	call	810d0c <alt_main>

008001fc <alt_after_alt_main>:

    /* Wait in infinite loop in case alt_main does return. */
alt_after_alt_main:
    br alt_after_alt_main
  8001fc:	003fff06 	br	8001fc <alt_after_alt_main>

00800200 <init_tlc>:
static int proc_state[OPERATION_MODES + 1] = {-1, -1, -1, -1}; // Process states: use -1 as initialisation state
static int camera_count = 0;

// Code =======================================
// Initialise the traffic light controller for all modes
void init_tlc() {
  800200:	defffd04 	addi	sp,sp,-12
  800204:	dfc00215 	stw	ra,8(sp)
  800208:	df000115 	stw	fp,4(sp)
  80020c:	df000104 	addi	fp,sp,4
	void* timerContext = (void*) mode;
  800210:	d0a75417 	ldw	r2,-25264(gp)
  800214:	e0bfff15 	stw	r2,-4(fp)
	alt_alarm_start(&tlc_timer, 1000, tlc_timer_isr, timerContext);
  800218:	010020b4 	movhi	r4,130
  80021c:	2122fa04 	addi	r4,r4,-29720
  800220:	0140fa04 	movi	r5,1000
  800224:	01802034 	movhi	r6,128
  800228:	31815804 	addi	r6,r6,1376
  80022c:	e1ffff17 	ldw	r7,-4(fp)
  800230:	08103e00 	call	8103e0 <alt_alarm_start>
}
  800234:	e037883a 	mov	sp,fp
  800238:	dfc00117 	ldw	ra,4(sp)
  80023c:	df000017 	ldw	fp,0(sp)
  800240:	dec00204 	addi	sp,sp,8
  800244:	f800283a 	ret

00800248 <lcd_set_mode>:

/* DESCRIPTION: Writes the mode to the LCD screen
 * PARAMETER:   mode - the current mode
 * RETURNS:     none
 */
void lcd_set_mode(unsigned int mode, FILE* lcd) {
  800248:	defffc04 	addi	sp,sp,-16
  80024c:	dfc00315 	stw	ra,12(sp)
  800250:	df000215 	stw	fp,8(sp)
  800254:	df000204 	addi	fp,sp,8
  800258:	e13ffe15 	stw	r4,-8(fp)
  80025c:	e17fff15 	stw	r5,-4(fp)
	if(lcd != NULL) {
  800260:	e0bfff17 	ldw	r2,-4(fp)
  800264:	1005003a 	cmpeq	r2,r2,zero
  800268:	10000c1e 	bne	r2,zero,80029c <lcd_set_mode+0x54>
		#define ESC 27
		#define CLEAR_LCD_STRING "[2J"
		fprintf(lcd, "%c%s", ESC, CLEAR_LCD_STRING);
  80026c:	e13fff17 	ldw	r4,-4(fp)
  800270:	01402074 	movhi	r5,129
  800274:	2952b504 	addi	r5,r5,19156
  800278:	018006c4 	movi	r6,27
  80027c:	01c02074 	movhi	r7,129
  800280:	39d2b704 	addi	r7,r7,19164
  800284:	08017d40 	call	8017d4 <fprintf>
		fprintf(lcd, "Mode: %d\n",mode);
  800288:	e13fff17 	ldw	r4,-4(fp)
  80028c:	01402074 	movhi	r5,129
  800290:	2952b804 	addi	r5,r5,19168
  800294:	e1bffe17 	ldw	r6,-8(fp)
  800298:	08017d40 	call	8017d4 <fprintf>
	}
}
  80029c:	e037883a 	mov	sp,fp
  8002a0:	dfc00117 	ldw	ra,4(sp)
  8002a4:	df000017 	ldw	fp,0(sp)
  8002a8:	dec00204 	addi	sp,sp,8
  8002ac:	f800283a 	ret

008002b0 <buttons_driver>:

/* DESCRIPTION: Performs button-press detection and debouncing
 * PARAMETER:   button - referenced argument to indicate the state of the button
 * RETURNS:     none
 */
void buttons_driver(unsigned int* button) {
  8002b0:	defffd04 	addi	sp,sp,-12
  8002b4:	dfc00215 	stw	ra,8(sp)
  8002b8:	df000115 	stw	fp,4(sp)
  8002bc:	df000104 	addi	fp,sp,4
  8002c0:	e13fff15 	stw	r4,-4(fp)
	if ((IORD_ALTERA_AVALON_PIO_DATA(BUTTONS_BASE) & 0x08) == 0) { // KEY 3
  8002c4:	00804074 	movhi	r2,257
  8002c8:	10842804 	addi	r2,r2,4256
  8002cc:	10800037 	ldwio	r2,0(r2)
  8002d0:	1080020c 	andi	r2,r2,8
  8002d4:	1004c03a 	cmpne	r2,r2,zero
  8002d8:	10002b1e 	bne	r2,zero,800388 <buttons_driver+0xd8>
		if ((proc_state[*button] == 0) || (proc_state[*button] == 3)) {
  8002dc:	e0bfff17 	ldw	r2,-4(fp)
  8002e0:	10800017 	ldw	r2,0(r2)
  8002e4:	00c02074 	movhi	r3,129
  8002e8:	18d48504 	addi	r3,r3,21012
  8002ec:	1085883a 	add	r2,r2,r2
  8002f0:	1085883a 	add	r2,r2,r2
  8002f4:	10c5883a 	add	r2,r2,r3
  8002f8:	10800017 	ldw	r2,0(r2)
  8002fc:	1005003a 	cmpeq	r2,r2,zero
  800300:	10000a1e 	bne	r2,zero,80032c <buttons_driver+0x7c>
  800304:	e0bfff17 	ldw	r2,-4(fp)
  800308:	10800017 	ldw	r2,0(r2)
  80030c:	00c02074 	movhi	r3,129
  800310:	18d48504 	addi	r3,r3,21012
  800314:	1085883a 	add	r2,r2,r2
  800318:	1085883a 	add	r2,r2,r2
  80031c:	10c5883a 	add	r2,r2,r3
  800320:	10800017 	ldw	r2,0(r2)
  800324:	108000d8 	cmpnei	r2,r2,3
  800328:	1000171e 	bne	r2,zero,800388 <buttons_driver+0xd8>
			if (*button < 4) {
  80032c:	e0bfff17 	ldw	r2,-4(fp)
  800330:	10800017 	ldw	r2,0(r2)
  800334:	10800128 	cmpgeui	r2,r2,4
  800338:	1000061e 	bne	r2,zero,800354 <buttons_driver+0xa4>
				*button = *button + 1;
  80033c:	e0bfff17 	ldw	r2,-4(fp)
  800340:	10800017 	ldw	r2,0(r2)
  800344:	10c00044 	addi	r3,r2,1
  800348:	e0bfff17 	ldw	r2,-4(fp)
  80034c:	10c00015 	stw	r3,0(r2)
  800350:	00000206 	br	80035c <buttons_driver+0xac>
			} else {
				*button = 0;
  800354:	e0bfff17 	ldw	r2,-4(fp)
  800358:	10000015 	stw	zero,0(r2)
			}
			proc_state[*button] = -1;
  80035c:	e0bfff17 	ldw	r2,-4(fp)
  800360:	10800017 	ldw	r2,0(r2)
  800364:	00c02074 	movhi	r3,129
  800368:	18d48504 	addi	r3,r3,21012
  80036c:	1085883a 	add	r2,r2,r2
  800370:	1085883a 	add	r2,r2,r2
  800374:	10c7883a 	add	r3,r2,r3
  800378:	00bfffc4 	movi	r2,-1
  80037c:	18800015 	stw	r2,0(r3)
			handle_mode_button(button);
  800380:	e13fff17 	ldw	r4,-4(fp)
  800384:	08003b80 	call	8003b8 <handle_mode_button>
		}
	}

	if ((IORD_ALTERA_AVALON_PIO_DATA(BUTTONS_BASE) & 0x04) == 0) { // KEY 2
  800388:	00804074 	movhi	r2,257
  80038c:	10842804 	addi	r2,r2,4256
  800390:	10800037 	ldwio	r2,0(r2)
  800394:	1080010c 	andi	r2,r2,4
  800398:	1004c03a 	cmpne	r2,r2,zero
  80039c:	1000011e 	bne	r2,zero,8003a4 <buttons_driver+0xf4>
		handle_vehicle_button();
  8003a0:	0800e200 	call	800e20 <handle_vehicle_button>
	}
}
  8003a4:	e037883a 	mov	sp,fp
  8003a8:	dfc00117 	ldw	ra,4(sp)
  8003ac:	df000017 	ldw	fp,0(sp)
  8003b0:	dec00204 	addi	sp,sp,8
  8003b4:	f800283a 	ret

008003b8 <handle_mode_button>:

/* DESCRIPTION: Updates the ID of the task to be executed and the 7-segment display
 * PARAMETER:   buttonState - current button state
 * RETURNS:     none
 */
void handle_mode_button(unsigned int* buttonState) {
  8003b8:	defffe04 	addi	sp,sp,-8
  8003bc:	df000115 	stw	fp,4(sp)
  8003c0:	df000104 	addi	fp,sp,4
  8003c4:	e13fff15 	stw	r4,-4(fp)
	mode = *buttonState;
  8003c8:	e0bfff17 	ldw	r2,-4(fp)
  8003cc:	10800017 	ldw	r2,0(r2)
  8003d0:	d0a75415 	stw	r2,-25264(gp)
	// Update Mode-display
}
  8003d4:	e037883a 	mov	sp,fp
  8003d8:	df000017 	ldw	fp,0(sp)
  8003dc:	dec00104 	addi	sp,sp,4
  8003e0:	f800283a 	ret

008003e4 <simple_tlc>:

/* DESCRIPTION: Simple traffic light controller
 * PARAMETER:   state - state of the controller
 * RETURNS:     none
 */
void simple_tlc(int* state) {
  8003e4:	defffd04 	addi	sp,sp,-12
  8003e8:	dfc00215 	stw	ra,8(sp)
  8003ec:	df000115 	stw	fp,4(sp)
  8003f0:	df000104 	addi	fp,sp,4
  8003f4:	e13fff15 	stw	r4,-4(fp)
	if (*state == -1) {
  8003f8:	e0bfff17 	ldw	r2,-4(fp)
  8003fc:	10800017 	ldw	r2,0(r2)
  800400:	10bfffd8 	cmpnei	r2,r2,-1
  800404:	10000b1e 	bne	r2,zero,800434 <simple_tlc+0x50>
		// Process initialisation state
		init_tlc();
  800408:	08002000 	call	800200 <init_tlc>
		(*state)++;
  80040c:	e0bfff17 	ldw	r2,-4(fp)
  800410:	10800017 	ldw	r2,0(r2)
  800414:	10c00044 	addi	r3,r2,1
  800418:	e0bfff17 	ldw	r2,-4(fp)
  80041c:	10c00015 	stw	r3,0(r2)
		IOWR_ALTERA_AVALON_PIO_DATA(LEDS_GREEN_BASE, 0x24);//both traffic lights will be red by default
  800420:	00c04074 	movhi	r3,257
  800424:	18c41804 	addi	r3,r3,4192
  800428:	00800904 	movi	r2,36
  80042c:	18800035 	stwio	r2,0(r3)
		return;
  800430:	00004606 	br	80054c <simple_tlc+0x168>
	// If the timeout has occurred
	/*
		// Increase state number (within bounds)
		// Restart timer with new timeout value
	*/
	if (tlc_timer_event == 1) {
  800434:	d0a74d17 	ldw	r2,-25292(gp)
  800438:	10800058 	cmpnei	r2,r2,1
  80043c:	1000431e 	bne	r2,zero,80054c <simple_tlc+0x168>
		if (*state == 0) { // R, R state
  800440:	e0bfff17 	ldw	r2,-4(fp)
  800444:	10800017 	ldw	r2,0(r2)
  800448:	1004c03a 	cmpne	r2,r2,zero
  80044c:	1000081e 	bne	r2,zero,800470 <simple_tlc+0x8c>
			*state = 1; // G, R
  800450:	e0ffff17 	ldw	r3,-4(fp)
  800454:	00800044 	movi	r2,1
  800458:	18800015 	stw	r2,0(r3)
			IOWR_ALTERA_AVALON_PIO_DATA(LEDS_GREEN_BASE, 0x4C);			
  80045c:	00c04074 	movhi	r3,257
  800460:	18c41804 	addi	r3,r3,4192
  800464:	00801304 	movi	r2,76
  800468:	18800035 	stwio	r2,0(r3)
  80046c:	00003606 	br	800548 <simple_tlc+0x164>
		} else if (*state == 1) {
  800470:	e0bfff17 	ldw	r2,-4(fp)
  800474:	10800017 	ldw	r2,0(r2)
  800478:	10800058 	cmpnei	r2,r2,1
  80047c:	1000081e 	bne	r2,zero,8004a0 <simple_tlc+0xbc>
			*state = 2; // Y, R
  800480:	e0ffff17 	ldw	r3,-4(fp)
  800484:	00800084 	movi	r2,2
  800488:	18800015 	stw	r2,0(r3)
			IOWR_ALTERA_AVALON_PIO_DATA(LEDS_GREEN_BASE, 0x14);
  80048c:	00c04074 	movhi	r3,257
  800490:	18c41804 	addi	r3,r3,4192
  800494:	00800504 	movi	r2,20
  800498:	18800035 	stwio	r2,0(r3)
  80049c:	00002a06 	br	800548 <simple_tlc+0x164>
		} else if (*state == 2) {
  8004a0:	e0bfff17 	ldw	r2,-4(fp)
  8004a4:	10800017 	ldw	r2,0(r2)
  8004a8:	10800098 	cmpnei	r2,r2,2
  8004ac:	1000081e 	bne	r2,zero,8004d0 <simple_tlc+0xec>
			*state = 3; // R, R
  8004b0:	e0ffff17 	ldw	r3,-4(fp)
  8004b4:	008000c4 	movi	r2,3
  8004b8:	18800015 	stw	r2,0(r3)
			IOWR_ALTERA_AVALON_PIO_DATA(LEDS_GREEN_BASE, 0x24);
  8004bc:	00c04074 	movhi	r3,257
  8004c0:	18c41804 	addi	r3,r3,4192
  8004c4:	00800904 	movi	r2,36
  8004c8:	18800035 	stwio	r2,0(r3)
  8004cc:	00001e06 	br	800548 <simple_tlc+0x164>
		} else if (*state == 3) {
  8004d0:	e0bfff17 	ldw	r2,-4(fp)
  8004d4:	10800017 	ldw	r2,0(r2)
  8004d8:	108000d8 	cmpnei	r2,r2,3
  8004dc:	1000081e 	bne	r2,zero,800500 <simple_tlc+0x11c>
			*state = 4; // R, G
  8004e0:	e0ffff17 	ldw	r3,-4(fp)
  8004e4:	00800104 	movi	r2,4
  8004e8:	18800015 	stw	r2,0(r3)
			IOWR_ALTERA_AVALON_PIO_DATA(LEDS_GREEN_BASE, 0xA1);			
  8004ec:	00c04074 	movhi	r3,257
  8004f0:	18c41804 	addi	r3,r3,4192
  8004f4:	00802844 	movi	r2,161
  8004f8:	18800035 	stwio	r2,0(r3)
  8004fc:	00001206 	br	800548 <simple_tlc+0x164>
		} else if (*state == 4) {
  800500:	e0bfff17 	ldw	r2,-4(fp)
  800504:	10800017 	ldw	r2,0(r2)
  800508:	10800118 	cmpnei	r2,r2,4
  80050c:	1000081e 	bne	r2,zero,800530 <simple_tlc+0x14c>
			*state = 5; // R, Y
  800510:	e0ffff17 	ldw	r3,-4(fp)
  800514:	00800144 	movi	r2,5
  800518:	18800015 	stw	r2,0(r3)
			IOWR_ALTERA_AVALON_PIO_DATA(LEDS_GREEN_BASE, 0x22);
  80051c:	00c04074 	movhi	r3,257
  800520:	18c41804 	addi	r3,r3,4192
  800524:	00800884 	movi	r2,34
  800528:	18800035 	stwio	r2,0(r3)
  80052c:	00000606 	br	800548 <simple_tlc+0x164>
		} else {
			*state = 0; // R, R
  800530:	e0bfff17 	ldw	r2,-4(fp)
  800534:	10000015 	stw	zero,0(r2)
			IOWR_ALTERA_AVALON_PIO_DATA(LEDS_GREEN_BASE, 0x24);
  800538:	00c04074 	movhi	r3,257
  80053c:	18c41804 	addi	r3,r3,4192
  800540:	00800904 	movi	r2,36
  800544:	18800035 	stwio	r2,0(r3)
		}
		tlc_timer_event = 0;
  800548:	d0274d15 	stw	zero,-25292(gp)
		return;
	}
}
  80054c:	e037883a 	mov	sp,fp
  800550:	dfc00117 	ldw	ra,4(sp)
  800554:	df000017 	ldw	fp,0(sp)
  800558:	dec00204 	addi	sp,sp,8
  80055c:	f800283a 	ret

00800560 <tlc_timer_isr>:
/* DESCRIPTION: Handles the traffic light timer interrupt
 * PARAMETER:   context - opaque reference to user data
 * RETURNS:     Number of 'ticks' until the next timer interrupt. A return value
 *              of zero stops the timer.
 */
alt_u32 tlc_timer_isr(void* context) {
  800560:	defffb04 	addi	sp,sp,-20
  800564:	dfc00415 	stw	ra,16(sp)
  800568:	df000315 	stw	fp,12(sp)
  80056c:	df000304 	addi	fp,sp,12
  800570:	e13fff15 	stw	r4,-4(fp)
	volatile int* trigger = (volatile int*)context;
  800574:	e0bfff17 	ldw	r2,-4(fp)
  800578:	e0bffe15 	stw	r2,-8(fp)
	int	nextTimeout = timeout[proc_state[*trigger]];
  80057c:	e0bffe17 	ldw	r2,-8(fp)
  800580:	10800017 	ldw	r2,0(r2)
  800584:	00c02074 	movhi	r3,129
  800588:	18d48504 	addi	r3,r3,21012
  80058c:	1085883a 	add	r2,r2,r2
  800590:	1085883a 	add	r2,r2,r2
  800594:	10c5883a 	add	r2,r2,r3
  800598:	10800017 	ldw	r2,0(r2)
  80059c:	00c02074 	movhi	r3,129
  8005a0:	18d47204 	addi	r3,r3,20936
  8005a4:	1085883a 	add	r2,r2,r2
  8005a8:	1085883a 	add	r2,r2,r2
  8005ac:	10c5883a 	add	r2,r2,r3
  8005b0:	10800017 	ldw	r2,0(r2)
  8005b4:	e0bffd15 	stw	r2,-12(fp)
	printf("next timeout:%d\n", nextTimeout);
  8005b8:	01002074 	movhi	r4,129
  8005bc:	2112bb04 	addi	r4,r4,19180
  8005c0:	e17ffd17 	ldw	r5,-12(fp)
  8005c4:	080343c0 	call	80343c <printf>
	tlc_timer_event = 1;
  8005c8:	00800044 	movi	r2,1
  8005cc:	d0a74d15 	stw	r2,-25292(gp)
	return nextTimeout;
  8005d0:	e0bffd17 	ldw	r2,-12(fp)
}
  8005d4:	e037883a 	mov	sp,fp
  8005d8:	dfc00117 	ldw	ra,4(sp)
  8005dc:	df000017 	ldw	fp,0(sp)
  8005e0:	dec00204 	addi	sp,sp,8
  8005e4:	f800283a 	ret

008005e8 <NSEW_ped_isr>:
/* DESCRIPTION: Handles the NSEW pedestrian button interrupt
 * PARAMETER:   context - opaque reference to user data
 *              id - hardware interrupt number for the device
 * RETURNS:     none
 */
void NSEW_ped_isr(void* context, alt_u32 id) {
  8005e8:	defffa04 	addi	sp,sp,-24
  8005ec:	dfc00515 	stw	ra,20(sp)
  8005f0:	df000415 	stw	fp,16(sp)
  8005f4:	df000404 	addi	fp,sp,16
  8005f8:	e13ffe15 	stw	r4,-8(fp)
  8005fc:	e17fff15 	stw	r5,-4(fp)
	if ((IORD_ALTERA_AVALON_PIO_DATA(BUTTONS_BASE) & 0x01) == 0) { // KEY 0 = NS Pedestrian button
  800600:	00804074 	movhi	r2,257
  800604:	10842804 	addi	r2,r2,4256
  800608:	10800037 	ldwio	r2,0(r2)
  80060c:	1080004c 	andi	r2,r2,1
  800610:	1004c03a 	cmpne	r2,r2,zero
  800614:	1000111e 	bne	r2,zero,80065c <NSEW_ped_isr+0x74>
		volatile int* temp = (volatile int*) context;
  800618:	e0bffe17 	ldw	r2,-8(fp)
  80061c:	e0bffd15 	stw	r2,-12(fp)
		(*temp) = IORD_ALTERA_AVALON_PIO_EDGE_CAP(BUTTONS_BASE);
  800620:	00804074 	movhi	r2,257
  800624:	10842b04 	addi	r2,r2,4268
  800628:	10c00037 	ldwio	r3,0(r2)
  80062c:	e0bffd17 	ldw	r2,-12(fp)
  800630:	10c00015 	stw	r3,0(r2)
		IOWR_ALTERA_AVALON_PIO_EDGE_CAP(BUTTONS_BASE, 0); // clear the edge capture register
  800634:	00804074 	movhi	r2,257
  800638:	10842b04 	addi	r2,r2,4268
  80063c:	10000035 	stwio	zero,0(r2)
		pedestrianNS = 1;
  800640:	00800044 	movi	r2,1
  800644:	d0a74f15 	stw	r2,-25284(gp)
		printf("button: %i\n", *temp);
  800648:	e0bffd17 	ldw	r2,-12(fp)
  80064c:	11400017 	ldw	r5,0(r2)
  800650:	01002074 	movhi	r4,129
  800654:	2112c004 	addi	r4,r4,19200
  800658:	080343c0 	call	80343c <printf>
	}

	if ((IORD_ALTERA_AVALON_PIO_DATA(BUTTONS_BASE) & 0x02) == 0) {
  80065c:	00804074 	movhi	r2,257
  800660:	10842804 	addi	r2,r2,4256
  800664:	10800037 	ldwio	r2,0(r2)
  800668:	1080008c 	andi	r2,r2,2
  80066c:	1004c03a 	cmpne	r2,r2,zero
  800670:	1000111e 	bne	r2,zero,8006b8 <NSEW_ped_isr+0xd0>
		volatile int* temp = (volatile int*) context;
  800674:	e0bffe17 	ldw	r2,-8(fp)
  800678:	e0bffc15 	stw	r2,-16(fp)
		(*temp) = IORD_ALTERA_AVALON_PIO_EDGE_CAP(BUTTONS_BASE); // KEY 1 = EW Pedestrian button
  80067c:	00804074 	movhi	r2,257
  800680:	10842b04 	addi	r2,r2,4268
  800684:	10c00037 	ldwio	r3,0(r2)
  800688:	e0bffc17 	ldw	r2,-16(fp)
  80068c:	10c00015 	stw	r3,0(r2)
		IOWR_ALTERA_AVALON_PIO_EDGE_CAP(BUTTONS_BASE, 0); // clear the edge capture register
  800690:	00804074 	movhi	r2,257
  800694:	10842b04 	addi	r2,r2,4268
  800698:	10000035 	stwio	zero,0(r2)
		pedestrianEW = 1;
  80069c:	00800044 	movi	r2,1
  8006a0:	d0a75015 	stw	r2,-25280(gp)
		printf("button: %i\n", *temp);
  8006a4:	e0bffc17 	ldw	r2,-16(fp)
  8006a8:	11400017 	ldw	r5,0(r2)
  8006ac:	01002074 	movhi	r4,129
  8006b0:	2112c004 	addi	r4,r4,19200
  8006b4:	080343c0 	call	80343c <printf>
	}
}
  8006b8:	e037883a 	mov	sp,fp
  8006bc:	dfc00117 	ldw	ra,4(sp)
  8006c0:	df000017 	ldw	fp,0(sp)
  8006c4:	dec00204 	addi	sp,sp,8
  8006c8:	f800283a 	ret

008006cc <init_buttons_pio>:

/* DESCRIPTION: Initialise the interrupts for pedestrian buttons
 * PARAMETER:   none
 * RETURNS:     none
 */
void init_buttons_pio(void) {
  8006cc:	defffc04 	addi	sp,sp,-16
  8006d0:	dfc00315 	stw	ra,12(sp)
  8006d4:	df000215 	stw	fp,8(sp)
  8006d8:	df000204 	addi	fp,sp,8
	int buttonValue = 1;
  8006dc:	00800044 	movi	r2,1
  8006e0:	e0bfff15 	stw	r2,-4(fp)

	void* context_going_to_be_passed = (void*) &buttonValue; 								// cast before passing to ISR
  8006e4:	e0bfff04 	addi	r2,fp,-4
  8006e8:	e0bffe15 	stw	r2,-8(fp)
	IOWR_ALTERA_AVALON_PIO_EDGE_CAP(BUTTONS_BASE, 0); 										// clears the edge capture register
  8006ec:	00804074 	movhi	r2,257
  8006f0:	10842b04 	addi	r2,r2,4268
  8006f4:	10000035 	stwio	zero,0(r2)
	IOWR_ALTERA_AVALON_PIO_IRQ_MASK(BUTTONS_BASE, 0x3); 									// enable interrupts for all buttons
  8006f8:	00c04074 	movhi	r3,257
  8006fc:	18c42a04 	addi	r3,r3,4264
  800700:	008000c4 	movi	r2,3
  800704:	18800035 	stwio	r2,0(r3)
	alt_irq_register(BUTTONS_IRQ,context_going_to_be_passed, NSEW_ped_isr); 				// register the ISR
  800708:	01000104 	movi	r4,4
  80070c:	e17ffe17 	ldw	r5,-8(fp)
  800710:	01802034 	movhi	r6,128
  800714:	31817a04 	addi	r6,r6,1512
  800718:	08107f00 	call	8107f0 <alt_irq_register>
}
  80071c:	e037883a 	mov	sp,fp
  800720:	dfc00117 	ldw	ra,4(sp)
  800724:	df000017 	ldw	fp,0(sp)
  800728:	dec00204 	addi	sp,sp,8
  80072c:	f800283a 	ret

00800730 <pedestrian_tlc>:

/* DESCRIPTION: Pedestrian traffic light controller
 * PARAMETER:   state - state of the controller
 * RETURNS:     none
 */
void pedestrian_tlc(int* state) {
  800730:	defffd04 	addi	sp,sp,-12
  800734:	dfc00215 	stw	ra,8(sp)
  800738:	df000115 	stw	fp,4(sp)
  80073c:	df000104 	addi	fp,sp,4
  800740:	e13fff15 	stw	r4,-4(fp)
	if (*state == -1) {
  800744:	e0bfff17 	ldw	r2,-4(fp)
  800748:	10800017 	ldw	r2,0(r2)
  80074c:	10bfffd8 	cmpnei	r2,r2,-1
  800750:	10000b1e 	bne	r2,zero,800780 <pedestrian_tlc+0x50>
		init_tlc();
  800754:	08002000 	call	800200 <init_tlc>
		(*state)++;
  800758:	e0bfff17 	ldw	r2,-4(fp)
  80075c:	10800017 	ldw	r2,0(r2)
  800760:	10c00044 	addi	r3,r2,1
  800764:	e0bfff17 	ldw	r2,-4(fp)
  800768:	10c00015 	stw	r3,0(r2)
		IOWR_ALTERA_AVALON_PIO_DATA(LEDS_GREEN_BASE, 0x24);
  80076c:	00c04074 	movhi	r3,257
  800770:	18c41804 	addi	r3,r3,4192
  800774:	00800904 	movi	r2,36
  800778:	18800035 	stwio	r2,0(r3)
		return;
  80077c:	00005e06 	br	8008f8 <pedestrian_tlc+0x1c8>
	}

	if (tlc_timer_event == 1) {
  800780:	d0a74d17 	ldw	r2,-25292(gp)
  800784:	10800058 	cmpnei	r2,r2,1
  800788:	10005b1e 	bne	r2,zero,8008f8 <pedestrian_tlc+0x1c8>
		if (*state == 0) { // R, R state
  80078c:	e0bfff17 	ldw	r2,-4(fp)
  800790:	10800017 	ldw	r2,0(r2)
  800794:	1004c03a 	cmpne	r2,r2,zero
  800798:	1000141e 	bne	r2,zero,8007ec <pedestrian_tlc+0xbc>
			if (pedestrianNS == 0) {
  80079c:	d0a74f17 	ldw	r2,-25284(gp)
  8007a0:	1004c03a 	cmpne	r2,r2,zero
  8007a4:	1000081e 	bne	r2,zero,8007c8 <pedestrian_tlc+0x98>
				*state = 1; // G, R
  8007a8:	e0ffff17 	ldw	r3,-4(fp)
  8007ac:	00800044 	movi	r2,1
  8007b0:	18800015 	stw	r2,0(r3)
				IOWR_ALTERA_AVALON_PIO_DATA(LEDS_GREEN_BASE, 0x0C);
  8007b4:	00c04074 	movhi	r3,257
  8007b8:	18c41804 	addi	r3,r3,4192
  8007bc:	00800304 	movi	r2,12
  8007c0:	18800035 	stwio	r2,0(r3)
  8007c4:	00004b06 	br	8008f4 <pedestrian_tlc+0x1c4>
			} else {
				*state = 1; // G, R
  8007c8:	e0ffff17 	ldw	r3,-4(fp)
  8007cc:	00800044 	movi	r2,1
  8007d0:	18800015 	stw	r2,0(r3)
				IOWR_ALTERA_AVALON_PIO_DATA(LEDS_GREEN_BASE, 0x4C);
  8007d4:	00c04074 	movhi	r3,257
  8007d8:	18c41804 	addi	r3,r3,4192
  8007dc:	00801304 	movi	r2,76
  8007e0:	18800035 	stwio	r2,0(r3)
				pedestrianNS = 0;
  8007e4:	d0274f15 	stw	zero,-25284(gp)
  8007e8:	00004206 	br	8008f4 <pedestrian_tlc+0x1c4>
			}
		} else if (*state == 1) {
  8007ec:	e0bfff17 	ldw	r2,-4(fp)
  8007f0:	10800017 	ldw	r2,0(r2)
  8007f4:	10800058 	cmpnei	r2,r2,1
  8007f8:	1000081e 	bne	r2,zero,80081c <pedestrian_tlc+0xec>
			*state = 2; // Y, R
  8007fc:	e0ffff17 	ldw	r3,-4(fp)
  800800:	00800084 	movi	r2,2
  800804:	18800015 	stw	r2,0(r3)
			IOWR_ALTERA_AVALON_PIO_DATA(LEDS_GREEN_BASE, 0x14);
  800808:	00c04074 	movhi	r3,257
  80080c:	18c41804 	addi	r3,r3,4192
  800810:	00800504 	movi	r2,20
  800814:	18800035 	stwio	r2,0(r3)
  800818:	00003606 	br	8008f4 <pedestrian_tlc+0x1c4>
		} else if (*state == 2) {
  80081c:	e0bfff17 	ldw	r2,-4(fp)
  800820:	10800017 	ldw	r2,0(r2)
  800824:	10800098 	cmpnei	r2,r2,2
  800828:	1000081e 	bne	r2,zero,80084c <pedestrian_tlc+0x11c>
			*state = 3; // R, R
  80082c:	e0ffff17 	ldw	r3,-4(fp)
  800830:	008000c4 	movi	r2,3
  800834:	18800015 	stw	r2,0(r3)
			IOWR_ALTERA_AVALON_PIO_DATA(LEDS_GREEN_BASE, 0x24);
  800838:	00c04074 	movhi	r3,257
  80083c:	18c41804 	addi	r3,r3,4192
  800840:	00800904 	movi	r2,36
  800844:	18800035 	stwio	r2,0(r3)
  800848:	00002a06 	br	8008f4 <pedestrian_tlc+0x1c4>
		} else if (*state == 3) {
  80084c:	e0bfff17 	ldw	r2,-4(fp)
  800850:	10800017 	ldw	r2,0(r2)
  800854:	108000d8 	cmpnei	r2,r2,3
  800858:	1000141e 	bne	r2,zero,8008ac <pedestrian_tlc+0x17c>
			if (pedestrianEW == 0) {
  80085c:	d0a75017 	ldw	r2,-25280(gp)
  800860:	1004c03a 	cmpne	r2,r2,zero
  800864:	1000081e 	bne	r2,zero,800888 <pedestrian_tlc+0x158>
				*state = 4; // R, G
  800868:	e0ffff17 	ldw	r3,-4(fp)
  80086c:	00800104 	movi	r2,4
  800870:	18800015 	stw	r2,0(r3)
				IOWR_ALTERA_AVALON_PIO_DATA(LEDS_GREEN_BASE, 0x21);
  800874:	00c04074 	movhi	r3,257
  800878:	18c41804 	addi	r3,r3,4192
  80087c:	00800844 	movi	r2,33
  800880:	18800035 	stwio	r2,0(r3)
  800884:	00001b06 	br	8008f4 <pedestrian_tlc+0x1c4>
			} else {
				*state = 4; // R, G, P2
  800888:	e0ffff17 	ldw	r3,-4(fp)
  80088c:	00800104 	movi	r2,4
  800890:	18800015 	stw	r2,0(r3)
				IOWR_ALTERA_AVALON_PIO_DATA(LEDS_GREEN_BASE, 0xA1);
  800894:	00c04074 	movhi	r3,257
  800898:	18c41804 	addi	r3,r3,4192
  80089c:	00802844 	movi	r2,161
  8008a0:	18800035 	stwio	r2,0(r3)
				pedestrianEW = 0;
  8008a4:	d0275015 	stw	zero,-25280(gp)
  8008a8:	00001206 	br	8008f4 <pedestrian_tlc+0x1c4>
			}
		} else if (*state == 4) {
  8008ac:	e0bfff17 	ldw	r2,-4(fp)
  8008b0:	10800017 	ldw	r2,0(r2)
  8008b4:	10800118 	cmpnei	r2,r2,4
  8008b8:	1000081e 	bne	r2,zero,8008dc <pedestrian_tlc+0x1ac>
			*state = 5; // R, Y
  8008bc:	e0ffff17 	ldw	r3,-4(fp)
  8008c0:	00800144 	movi	r2,5
  8008c4:	18800015 	stw	r2,0(r3)
			IOWR_ALTERA_AVALON_PIO_DATA(LEDS_GREEN_BASE, 0x22);
  8008c8:	00c04074 	movhi	r3,257
  8008cc:	18c41804 	addi	r3,r3,4192
  8008d0:	00800884 	movi	r2,34
  8008d4:	18800035 	stwio	r2,0(r3)
  8008d8:	00000606 	br	8008f4 <pedestrian_tlc+0x1c4>
		} else {	// this accounts for state 5
			*state = 0; // R, R
  8008dc:	e0bfff17 	ldw	r2,-4(fp)
  8008e0:	10000015 	stw	zero,0(r2)
			IOWR_ALTERA_AVALON_PIO_DATA(LEDS_GREEN_BASE, 0x24);
  8008e4:	00c04074 	movhi	r3,257
  8008e8:	18c41804 	addi	r3,r3,4192
  8008ec:	00800904 	movi	r2,36
  8008f0:	18800035 	stwio	r2,0(r3)
		}
		tlc_timer_event = 0;
  8008f4:	d0274d15 	stw	zero,-25292(gp)
		return;
	}
}
  8008f8:	e037883a 	mov	sp,fp
  8008fc:	dfc00117 	ldw	ra,4(sp)
  800900:	df000017 	ldw	fp,0(sp)
  800904:	dec00204 	addi	sp,sp,8
  800908:	f800283a 	ret

0080090c <configurable_tlc>:
 */
/*
If there is new configuration data... Load it.
Else run pedestrian_tlc();
*/
void configurable_tlc(int* state) {
  80090c:	defffd04 	addi	sp,sp,-12
  800910:	dfc00215 	stw	ra,8(sp)
  800914:	df000115 	stw	fp,4(sp)
  800918:	df000104 	addi	fp,sp,4
  80091c:	e13fff15 	stw	r4,-4(fp)
	if (*state == -1) {
  800920:	e0bfff17 	ldw	r2,-4(fp)
  800924:	10800017 	ldw	r2,0(r2)
  800928:	10bfffd8 	cmpnei	r2,r2,-1
  80092c:	10000b1e 	bne	r2,zero,80095c <configurable_tlc+0x50>
		init_tlc();
  800930:	08002000 	call	800200 <init_tlc>
		(*state)++;
  800934:	e0bfff17 	ldw	r2,-4(fp)
  800938:	10800017 	ldw	r2,0(r2)
  80093c:	10c00044 	addi	r3,r2,1
  800940:	e0bfff17 	ldw	r2,-4(fp)
  800944:	10c00015 	stw	r3,0(r2)
		IOWR_ALTERA_AVALON_PIO_DATA(LEDS_GREEN_BASE, 0x24);
  800948:	00c04074 	movhi	r3,257
  80094c:	18c41804 	addi	r3,r3,4192
  800950:	00800904 	movi	r2,36
  800954:	18800035 	stwio	r2,0(r3)
		return;
  800958:	00001406 	br	8009ac <configurable_tlc+0xa0>
	}
	newTimeoutValues = IORD_ALTERA_AVALON_PIO_DATA(SWITCHES_BASE);
  80095c:	00804074 	movhi	r2,257
  800960:	10842404 	addi	r2,r2,4240
  800964:	10800037 	ldwio	r2,0(r2)
  800968:	d0a75115 	stw	r2,-25276(gp)
	if (((*state == 0) || (*state == 3))&& (newTimeoutValues > 0)){
  80096c:	e0bfff17 	ldw	r2,-4(fp)
  800970:	10800017 	ldw	r2,0(r2)
  800974:	1005003a 	cmpeq	r2,r2,zero
  800978:	1000041e 	bne	r2,zero,80098c <configurable_tlc+0x80>
  80097c:	e0bfff17 	ldw	r2,-4(fp)
  800980:	10800017 	ldw	r2,0(r2)
  800984:	108000d8 	cmpnei	r2,r2,3
  800988:	1000061e 	bne	r2,zero,8009a4 <configurable_tlc+0x98>
  80098c:	d0a75117 	ldw	r2,-25276(gp)
  800990:	10800050 	cmplti	r2,r2,1
  800994:	1000031e 	bne	r2,zero,8009a4 <configurable_tlc+0x98>
		timeout_data_handler();	
  800998:	0800a080 	call	800a08 <timeout_data_handler>
		newTimeoutValues = 0;
  80099c:	d0275115 	stw	zero,-25276(gp)
		(*state)++;
		IOWR_ALTERA_AVALON_PIO_DATA(LEDS_GREEN_BASE, 0x24);
		return;
	}
	newTimeoutValues = IORD_ALTERA_AVALON_PIO_DATA(SWITCHES_BASE);
	if (((*state == 0) || (*state == 3))&& (newTimeoutValues > 0)){
  8009a0:	00000206 	br	8009ac <configurable_tlc+0xa0>
		timeout_data_handler();	
		newTimeoutValues = 0;
	} else {
		pedestrian_tlc(state);
  8009a4:	e13fff17 	ldw	r4,-4(fp)
  8009a8:	08007300 	call	800730 <pedestrian_tlc>
	}
}
  8009ac:	e037883a 	mov	sp,fp
  8009b0:	dfc00117 	ldw	ra,4(sp)
  8009b4:	df000017 	ldw	fp,0(sp)
  8009b8:	dec00204 	addi	sp,sp,8
  8009bc:	f800283a 	ret

008009c0 <config_tlc>:
 * RETURNS:     Returns the state of the configuration phase
 */
/*
Puts the TLC in a 'safe' state... then begins update
*/
int config_tlc(int* tl_state) {
  8009c0:	defffd04 	addi	sp,sp,-12
  8009c4:	df000215 	stw	fp,8(sp)
  8009c8:	df000204 	addi	fp,sp,8
  8009cc:	e13ffe15 	stw	r4,-8(fp)
	// State of configuration
	static int state = 0;

	if (*tl_state == -1) {
  8009d0:	e0bffe17 	ldw	r2,-8(fp)
  8009d4:	10800017 	ldw	r2,0(r2)
  8009d8:	10bfffd8 	cmpnei	r2,r2,-1
  8009dc:	1000031e 	bne	r2,zero,8009ec <config_tlc+0x2c>
		// Process initialisation state
		state = 0;
  8009e0:	d0275615 	stw	zero,-25256(gp)
		return 0;
  8009e4:	e03fff15 	stw	zero,-4(fp)
  8009e8:	00000206 	br	8009f4 <config_tlc+0x34>
	}

	return state;
  8009ec:	d0a75617 	ldw	r2,-25256(gp)
  8009f0:	e0bfff15 	stw	r2,-4(fp)
  8009f4:	e0bfff17 	ldw	r2,-4(fp)
}
  8009f8:	e037883a 	mov	sp,fp
  8009fc:	df000017 	ldw	fp,0(sp)
  800a00:	dec00104 	addi	sp,sp,4
  800a04:	f800283a 	ret

00800a08 <timeout_data_handler>:
 * RETURNS:     none
 */
/*
 buffer_timeout() must be used 'for atomic transfer to the main timeout buffer'
*/
void timeout_data_handler(void) {
  800a08:	defffc04 	addi	sp,sp,-16
  800a0c:	dfc00315 	stw	ra,12(sp)
  800a10:	df000215 	stw	fp,8(sp)
  800a14:	df000204 	addi	fp,sp,8
	fp = fopen(UART_NAME, "rw"); // open up UART with read and write access
  800a18:	01002074 	movhi	r4,129
  800a1c:	2112c304 	addi	r4,r4,19212
  800a20:	01402074 	movhi	r5,129
  800a24:	2952c604 	addi	r5,r5,19224
  800a28:	08017b80 	call	8017b8 <fopen>
  800a2c:	d0a75915 	stw	r2,-25244(gp)
	if (fp != NULL) {// check if the UART is open successfully
  800a30:	d0a75917 	ldw	r2,-25244(gp)
  800a34:	1005003a 	cmpeq	r2,r2,zero
  800a38:	10003e1e 	bne	r2,zero,800b34 <timeout_data_handler+0x12c>
		int k = 0;
  800a3c:	e03fff15 	stw	zero,-4(fp)
  800a40:	00000006 	br	800a44 <timeout_data_handler+0x3c>
		while(1) {
			c = fgetc(fp);
  800a44:	d1275917 	ldw	r4,-25244(gp)
  800a48:	08012dc0 	call	8012dc <fgetc>
  800a4c:	d0a75715 	stw	r2,-25252(gp)
			if (c== '\n') {
  800a50:	d0a75717 	ldw	r2,-25252(gp)
  800a54:	108002a0 	cmpeqi	r2,r2,10
  800a58:	1000341e 	bne	r2,zero,800b2c <timeout_data_handler+0x124>
				break;
			} 
			if (c == '\r') {
  800a5c:	d0a75717 	ldw	r2,-25252(gp)
  800a60:	10800360 	cmpeqi	r2,r2,13
  800a64:	1000311e 	bne	r2,zero,800b2c <timeout_data_handler+0x124>
				break;
			}
			if (c == ',') {
  800a68:	d0a75717 	ldw	r2,-25252(gp)
  800a6c:	10800b18 	cmpnei	r2,r2,44
  800a70:	1000241e 	bne	r2,zero,800b04 <timeout_data_handler+0xfc>
				sscanf(chararray, "%d", &timeoutValue);
  800a74:	d1200004 	addi	r4,gp,-32768
  800a78:	01402074 	movhi	r5,129
  800a7c:	2952c704 	addi	r5,r5,19228
  800a80:	d1a75804 	addi	r6,gp,-25248
  800a84:	0803ebc0 	call	803ebc <sscanf>
				tempBuffer[valueCount] = timeoutValue;
  800a88:	d0e75317 	ldw	r3,-25268(gp)
  800a8c:	d0a75817 	ldw	r2,-25248(gp)
  800a90:	100b883a 	mov	r5,r2
  800a94:	01002074 	movhi	r4,129
  800a98:	21147f04 	addi	r4,r4,20988
  800a9c:	18c5883a 	add	r2,r3,r3
  800aa0:	1085883a 	add	r2,r2,r2
  800aa4:	1105883a 	add	r2,r2,r4
  800aa8:	11400015 	stw	r5,0(r2)
				chararray[0] = '0';
  800aac:	00800c04 	movi	r2,48
  800ab0:	d0a00005 	stb	r2,-32768(gp)
				chararray[1] = '0';
  800ab4:	00c02074 	movhi	r3,129
  800ab8:	18db9344 	addi	r3,r3,28237
  800abc:	00800c04 	movi	r2,48
  800ac0:	18800005 	stb	r2,0(r3)
				chararray[2] = '0';
  800ac4:	00c02074 	movhi	r3,129
  800ac8:	18db9384 	addi	r3,r3,28238
  800acc:	00800c04 	movi	r2,48
  800ad0:	18800005 	stb	r2,0(r3)
				chararray[3] = '0';
  800ad4:	00c02074 	movhi	r3,129
  800ad8:	18db93c4 	addi	r3,r3,28239
  800adc:	00800c04 	movi	r2,48
  800ae0:	18800005 	stb	r2,0(r3)
				chararray[4] = '\0';
  800ae4:	00802074 	movhi	r2,129
  800ae8:	109b9404 	addi	r2,r2,28240
  800aec:	10000005 	stb	zero,0(r2)
				k = 0;
  800af0:	e03fff15 	stw	zero,-4(fp)
				valueCount += 1;
  800af4:	d0a75317 	ldw	r2,-25268(gp)
  800af8:	10800044 	addi	r2,r2,1
  800afc:	d0a75315 	stw	r2,-25268(gp)
  800b00:	003fd006 	br	800a44 <timeout_data_handler+0x3c>
			} else {
				chararray[k] = c;
  800b04:	e13fff17 	ldw	r4,-4(fp)
  800b08:	d0a75717 	ldw	r2,-25252(gp)
  800b0c:	1007883a 	mov	r3,r2
  800b10:	d0a00004 	addi	r2,gp,-32768
  800b14:	2085883a 	add	r2,r4,r2
  800b18:	10c00005 	stb	r3,0(r2)
				k += 1;
  800b1c:	e0bfff17 	ldw	r2,-4(fp)
  800b20:	10800044 	addi	r2,r2,1
  800b24:	e0bfff15 	stw	r2,-4(fp)
			}
		}
  800b28:	003fc606 	br	800a44 <timeout_data_handler+0x3c>
		fclose(fp); // remember to close the file
  800b2c:	d1275917 	ldw	r4,-25244(gp)
  800b30:	08010980 	call	801098 <fclose>
	}
	if (valueCount == 6) {
  800b34:	d0a75317 	ldw	r2,-25268(gp)
  800b38:	10800198 	cmpnei	r2,r2,6
  800b3c:	1000161e 	bne	r2,zero,800b98 <timeout_data_handler+0x190>
		int j;
		for (j=0; j<6; j++) {
  800b40:	e03ffe15 	stw	zero,-8(fp)
  800b44:	00001106 	br	800b8c <timeout_data_handler+0x184>
			timeout[j]=tempBuffer[j];
  800b48:	e17ffe17 	ldw	r5,-8(fp)
  800b4c:	e0bffe17 	ldw	r2,-8(fp)
  800b50:	00c02074 	movhi	r3,129
  800b54:	18d47f04 	addi	r3,r3,20988
  800b58:	1085883a 	add	r2,r2,r2
  800b5c:	1085883a 	add	r2,r2,r2
  800b60:	10c5883a 	add	r2,r2,r3
  800b64:	11000017 	ldw	r4,0(r2)
  800b68:	00c02074 	movhi	r3,129
  800b6c:	18d47204 	addi	r3,r3,20936
  800b70:	2945883a 	add	r2,r5,r5
  800b74:	1085883a 	add	r2,r2,r2
  800b78:	10c5883a 	add	r2,r2,r3
  800b7c:	11000015 	stw	r4,0(r2)
		}
		fclose(fp); // remember to close the file
	}
	if (valueCount == 6) {
		int j;
		for (j=0; j<6; j++) {
  800b80:	e0bffe17 	ldw	r2,-8(fp)
  800b84:	10800044 	addi	r2,r2,1
  800b88:	e0bffe15 	stw	r2,-8(fp)
  800b8c:	e0bffe17 	ldw	r2,-8(fp)
  800b90:	10800190 	cmplti	r2,r2,6
  800b94:	103fec1e 	bne	r2,zero,800b48 <timeout_data_handler+0x140>
			timeout[j]=tempBuffer[j];
		}
	}
	valueCount = 0;
  800b98:	d0275315 	stw	zero,-25268(gp)
}
  800b9c:	e037883a 	mov	sp,fp
  800ba0:	dfc00117 	ldw	ra,4(sp)
  800ba4:	df000017 	ldw	fp,0(sp)
  800ba8:	dec00204 	addi	sp,sp,8
  800bac:	f800283a 	ret

00800bb0 <buffer_timeout>:
/* DESCRIPTION: Stores the new timeout values in a secondary buffer for atomic
 *              transfer to the main timeout buffer at a later stage
 * PARAMETER:   value - value to store in the buffer
 * RETURNS:     none
 */
void buffer_timeout(int value) {
  800bb0:	defffe04 	addi	sp,sp,-8
  800bb4:	df000115 	stw	fp,4(sp)
  800bb8:	df000104 	addi	fp,sp,4
  800bbc:	e13fff15 	stw	r4,-4(fp)

}
  800bc0:	e037883a 	mov	sp,fp
  800bc4:	df000017 	ldw	fp,0(sp)
  800bc8:	dec00104 	addi	sp,sp,4
  800bcc:	f800283a 	ret

00800bd0 <update_timeout>:
 *              section by ensuring that timeouts are fully received before
 *              allowing the update
 * PARAMETER:   none
 * RETURNS:     1 if update is completed; 0 otherwise
 */
int update_timeout(void) {
  800bd0:	deffff04 	addi	sp,sp,-4
  800bd4:	df000015 	stw	fp,0(sp)
  800bd8:	d839883a 	mov	fp,sp

	return 0;
  800bdc:	0005883a 	mov	r2,zero
}
  800be0:	e037883a 	mov	sp,fp
  800be4:	df000017 	ldw	fp,0(sp)
  800be8:	dec00104 	addi	sp,sp,4
  800bec:	f800283a 	ret

00800bf0 <camera_timer_isr>:
/* DESCRIPTION: Handles the red light camera timer interrupt
 * PARAMETER:   context - opaque reference to user data
 * RETURNS:     Number of 'ticks' until the next timer interrupt. A return value
 *              of zero stops the timer.
 */
alt_u32 camera_timer_isr(void* context) {
  800bf0:	defff804 	addi	sp,sp,-32
  800bf4:	dfc00715 	stw	ra,28(sp)
  800bf8:	df000615 	stw	fp,24(sp)
  800bfc:	df000604 	addi	fp,sp,24
  800c00:	e13ffe15 	stw	r4,-8(fp)
	volatile int* trigger = (volatile int*)context;
  800c04:	e0bffe17 	ldw	r2,-8(fp)
  800c08:	e0bffa15 	stw	r2,-24(fp)
	(*trigger)++;
  800c0c:	e0bffa17 	ldw	r2,-24(fp)
  800c10:	10800017 	ldw	r2,0(r2)
  800c14:	10c00044 	addi	r3,r2,1
  800c18:	e0bffa17 	ldw	r2,-24(fp)
  800c1c:	10c00015 	stw	r3,0(r2)
	if (*trigger == CAMERA_TIMEOUT) {
  800c20:	e0bffa17 	ldw	r2,-24(fp)
  800c24:	10800017 	ldw	r2,0(r2)
  800c28:	1081f418 	cmpnei	r2,r2,2000
  800c2c:	1000051e 	bne	r2,zero,800c44 <camera_timer_isr+0x54>
		printToUART("Snapshot Taken");
  800c30:	01002074 	movhi	r4,129
  800c34:	2112c804 	addi	r4,r4,19232
  800c38:	0800dc00 	call	800dc0 <printToUART>
		return 0;
  800c3c:	e03fff15 	stw	zero,-4(fp)
  800c40:	00001306 	br	800c90 <camera_timer_isr+0xa0>
	}
	if (vehicle_detected != 2) {
  800c44:	d0a75217 	ldw	r2,-25272(gp)
  800c48:	108000a0 	cmpeqi	r2,r2,2
  800c4c:	10000e1e 	bne	r2,zero,800c88 <camera_timer_isr+0x98>
		char countString[10];
		sprintf(countString, "%d", *trigger);
  800c50:	e0bffa17 	ldw	r2,-24(fp)
  800c54:	11800017 	ldw	r6,0(r2)
  800c58:	e13ffb04 	addi	r4,fp,-20
  800c5c:	01402074 	movhi	r5,129
  800c60:	2952c704 	addi	r5,r5,19228
  800c64:	0803d580 	call	803d58 <sprintf>
		printToUART("Vehicle left at: ");
  800c68:	01002074 	movhi	r4,129
  800c6c:	2112cc04 	addi	r4,r4,19248
  800c70:	0800dc00 	call	800dc0 <printToUART>
		printToUART(countString);
  800c74:	e13ffb04 	addi	r4,fp,-20
  800c78:	0800dc00 	call	800dc0 <printToUART>
		vehicle_detected = 0;
  800c7c:	d0275215 	stw	zero,-25272(gp)
		return 0;
  800c80:	e03fff15 	stw	zero,-4(fp)
  800c84:	00000206 	br	800c90 <camera_timer_isr+0xa0>
	}
	return 1;
  800c88:	00800044 	movi	r2,1
  800c8c:	e0bfff15 	stw	r2,-4(fp)
  800c90:	e0bfff17 	ldw	r2,-4(fp)
}
  800c94:	e037883a 	mov	sp,fp
  800c98:	dfc00117 	ldw	ra,4(sp)
  800c9c:	df000017 	ldw	fp,0(sp)
  800ca0:	dec00204 	addi	sp,sp,8
  800ca4:	f800283a 	ret

00800ca8 <camera_tlc>:
 */
 /*
 Same functionality as configurable_tlc
 But also handles Red-light camera
 */
void camera_tlc(int* state) {
  800ca8:	defffc04 	addi	sp,sp,-16
  800cac:	dfc00315 	stw	ra,12(sp)
  800cb0:	df000215 	stw	fp,8(sp)
  800cb4:	df000204 	addi	fp,sp,8
  800cb8:	e13fff15 	stw	r4,-4(fp)
	if (*state == -1) {
  800cbc:	e0bfff17 	ldw	r2,-4(fp)
  800cc0:	10800017 	ldw	r2,0(r2)
  800cc4:	10bfffd8 	cmpnei	r2,r2,-1
  800cc8:	10000b1e 	bne	r2,zero,800cf8 <camera_tlc+0x50>
		init_tlc();
  800ccc:	08002000 	call	800200 <init_tlc>
		(*state)++;
  800cd0:	e0bfff17 	ldw	r2,-4(fp)
  800cd4:	10800017 	ldw	r2,0(r2)
  800cd8:	10c00044 	addi	r3,r2,1
  800cdc:	e0bfff17 	ldw	r2,-4(fp)
  800ce0:	10c00015 	stw	r3,0(r2)
		IOWR_ALTERA_AVALON_PIO_DATA(LEDS_GREEN_BASE, 0x24);
  800ce4:	00c04074 	movhi	r3,257
  800ce8:	18c41804 	addi	r3,r3,4192
  800cec:	00800904 	movi	r2,36
  800cf0:	18800035 	stwio	r2,0(r3)
		return;
  800cf4:	00002d06 	br	800dac <camera_tlc+0x104>
	}
	newTimeoutValues = IORD_ALTERA_AVALON_PIO_DATA(SWITCHES_BASE);
  800cf8:	00804074 	movhi	r2,257
  800cfc:	10842404 	addi	r2,r2,4240
  800d00:	10800037 	ldwio	r2,0(r2)
  800d04:	d0a75115 	stw	r2,-25276(gp)
	if (((*state == 0) || (*state == 3))&& (newTimeoutValues > 0)){
  800d08:	e0bfff17 	ldw	r2,-4(fp)
  800d0c:	10800017 	ldw	r2,0(r2)
  800d10:	1005003a 	cmpeq	r2,r2,zero
  800d14:	1000041e 	bne	r2,zero,800d28 <camera_tlc+0x80>
  800d18:	e0bfff17 	ldw	r2,-4(fp)
  800d1c:	10800017 	ldw	r2,0(r2)
  800d20:	108000d8 	cmpnei	r2,r2,3
  800d24:	1000061e 	bne	r2,zero,800d40 <camera_tlc+0x98>
  800d28:	d0a75117 	ldw	r2,-25276(gp)
  800d2c:	10800050 	cmplti	r2,r2,1
  800d30:	1000031e 	bne	r2,zero,800d40 <camera_tlc+0x98>
		timeout_data_handler();
  800d34:	0800a080 	call	800a08 <timeout_data_handler>
		newTimeoutValues = 0;
  800d38:	d0275115 	stw	zero,-25276(gp)
		(*state)++;
		IOWR_ALTERA_AVALON_PIO_DATA(LEDS_GREEN_BASE, 0x24);
		return;
	}
	newTimeoutValues = IORD_ALTERA_AVALON_PIO_DATA(SWITCHES_BASE);
	if (((*state == 0) || (*state == 3))&& (newTimeoutValues > 0)){
  800d3c:	00000206 	br	800d48 <camera_tlc+0xa0>
		timeout_data_handler();
		newTimeoutValues = 0;
	} else {
		pedestrian_tlc(state);
  800d40:	e13fff17 	ldw	r4,-4(fp)
  800d44:	08007300 	call	800730 <pedestrian_tlc>
	}

	if (((*state == 2) || (*state == 5)) && (vehicle_detected == 1)) { // One light yellow and vehicle enters
  800d48:	e0bfff17 	ldw	r2,-4(fp)
  800d4c:	10800017 	ldw	r2,0(r2)
  800d50:	108000a0 	cmpeqi	r2,r2,2
  800d54:	1000041e 	bne	r2,zero,800d68 <camera_tlc+0xc0>
  800d58:	e0bfff17 	ldw	r2,-4(fp)
  800d5c:	10800017 	ldw	r2,0(r2)
  800d60:	10800158 	cmpnei	r2,r2,5
  800d64:	1000111e 	bne	r2,zero,800dac <camera_tlc+0x104>
  800d68:	d0a75217 	ldw	r2,-25272(gp)
  800d6c:	10800058 	cmpnei	r2,r2,1
  800d70:	10000e1e 	bne	r2,zero,800dac <camera_tlc+0x104>
		printToUART("Camera Activated");
  800d74:	01002074 	movhi	r4,129
  800d78:	2112d104 	addi	r4,r4,19268
  800d7c:	0800dc00 	call	800dc0 <printToUART>
		vehicle_detected = 2;
  800d80:	00800084 	movi	r2,2
  800d84:	d0a75215 	stw	r2,-25272(gp)
		void* cameraContext = (void*) camera_count;
  800d88:	d0a75517 	ldw	r2,-25260(gp)
  800d8c:	e0bffe15 	stw	r2,-8(fp)
		alt_alarm_start(&camera_timer, 1, camera_timer_isr, cameraContext);
  800d90:	010020b4 	movhi	r4,130
  800d94:	21230004 	addi	r4,r4,-29696
  800d98:	01400044 	movi	r5,1
  800d9c:	01802034 	movhi	r6,128
  800da0:	3182fc04 	addi	r6,r6,3056
  800da4:	e1fffe17 	ldw	r7,-8(fp)
  800da8:	08103e00 	call	8103e0 <alt_alarm_start>
	}
}
  800dac:	e037883a 	mov	sp,fp
  800db0:	dfc00117 	ldw	ra,4(sp)
  800db4:	df000017 	ldw	fp,0(sp)
  800db8:	dec00204 	addi	sp,sp,8
  800dbc:	f800283a 	ret

00800dc0 <printToUART>:

void printToUART(char* stringToPrint) {
  800dc0:	defffd04 	addi	sp,sp,-12
  800dc4:	dfc00215 	stw	ra,8(sp)
  800dc8:	df000115 	stw	fp,4(sp)
  800dcc:	df000104 	addi	fp,sp,4
  800dd0:	e13fff15 	stw	r4,-4(fp)
	fp = fopen(UART_NAME, "w");
  800dd4:	01002074 	movhi	r4,129
  800dd8:	2112c304 	addi	r4,r4,19212
  800ddc:	01402074 	movhi	r5,129
  800de0:	2952d604 	addi	r5,r5,19288
  800de4:	08017b80 	call	8017b8 <fopen>
  800de8:	d0a75915 	stw	r2,-25244(gp)
	if (fp != NULL) {
  800dec:	d0a75917 	ldw	r2,-25244(gp)
  800df0:	1005003a 	cmpeq	r2,r2,zero
  800df4:	1000051e 	bne	r2,zero,800e0c <printToUART+0x4c>
		fprintf(fp, "%s", stringToPrint);
  800df8:	d1675917 	ldw	r5,-25244(gp)
  800dfc:	e13fff17 	ldw	r4,-4(fp)
  800e00:	08018a80 	call	8018a8 <fputs>
		fclose(fp);
  800e04:	d1275917 	ldw	r4,-25244(gp)
  800e08:	08010980 	call	801098 <fclose>
	}
}
  800e0c:	e037883a 	mov	sp,fp
  800e10:	dfc00117 	ldw	ra,4(sp)
  800e14:	df000017 	ldw	fp,0(sp)
  800e18:	dec00204 	addi	sp,sp,8
  800e1c:	f800283a 	ret

00800e20 <handle_vehicle_button>:

/* DESCRIPTION: Simulates the entry and exit of vehicles at the intersection
 * PARAMETER:   none
 * RETURNS:     none
 */
void handle_vehicle_button(void) {
  800e20:	deffff04 	addi	sp,sp,-4
  800e24:	df000015 	stw	fp,0(sp)
  800e28:	d839883a 	mov	fp,sp
	if (vehicle_detected == 0) {
  800e2c:	d0a75217 	ldw	r2,-25272(gp)
  800e30:	1004c03a 	cmpne	r2,r2,zero
  800e34:	1000031e 	bne	r2,zero,800e44 <handle_vehicle_button+0x24>
		vehicle_detected = 1; // If vehicle absent, button press means vehicle has entered intersection
  800e38:	00800044 	movi	r2,1
  800e3c:	d0a75215 	stw	r2,-25272(gp)
  800e40:	00000206 	br	800e4c <handle_vehicle_button+0x2c>
	} else {
		vehicle_detected = 3; // If at any other time, button press means vehicle has left intersection
  800e44:	008000c4 	movi	r2,3
  800e48:	d0a75215 	stw	r2,-25272(gp)
	}
}
  800e4c:	e037883a 	mov	sp,fp
  800e50:	df000017 	ldw	fp,0(sp)
  800e54:	dec00104 	addi	sp,sp,4
  800e58:	f800283a 	ret

00800e5c <main>:

int main(void) {
  800e5c:	defffb04 	addi	sp,sp,-20
  800e60:	dfc00415 	stw	ra,16(sp)
  800e64:	df000315 	stw	fp,12(sp)
  800e68:	df000304 	addi	fp,sp,12
	unsigned int buttons = 0;			// status of mode button
  800e6c:	e03ffe15 	stw	zero,-8(fp)
	FILE *lcd;
	lcd = fopen(LCD_NAME, "w");
  800e70:	01002074 	movhi	r4,129
  800e74:	2112d704 	addi	r4,r4,19292
  800e78:	01402074 	movhi	r5,129
  800e7c:	2952d604 	addi	r5,r5,19288
  800e80:	08017b80 	call	8017b8 <fopen>
  800e84:	e0bffd15 	stw	r2,-12(fp)

	lcd_set_mode(0, lcd);		// initialise lcd
  800e88:	0009883a 	mov	r4,zero
  800e8c:	e17ffd17 	ldw	r5,-12(fp)
  800e90:	08002480 	call	800248 <lcd_set_mode>
	init_buttons_pio();			// initialise buttons
  800e94:	08006cc0 	call	8006cc <init_buttons_pio>
  800e98:	00000006 	br	800e9c <main+0x40>

	while (1) {
		// Button detection & debouncing
		buttons_driver(&buttons);
  800e9c:	e13ffe04 	addi	r4,fp,-8
  800ea0:	08002b00 	call	8002b0 <buttons_driver>

		// Execute the correct TLC
    	switch (mode) {
  800ea4:	d0a75417 	ldw	r2,-25264(gp)
  800ea8:	e0bfff15 	stw	r2,-4(fp)
  800eac:	e0ffff17 	ldw	r3,-4(fp)
  800eb0:	18800060 	cmpeqi	r2,r3,1
  800eb4:	10000e1e 	bne	r2,zero,800ef0 <main+0x94>
  800eb8:	e0ffff17 	ldw	r3,-4(fp)
  800ebc:	18800070 	cmpltui	r2,r3,1
  800ec0:	1000071e 	bne	r2,zero,800ee0 <main+0x84>
  800ec4:	e0ffff17 	ldw	r3,-4(fp)
  800ec8:	188000a0 	cmpeqi	r2,r3,2
  800ecc:	10000c1e 	bne	r2,zero,800f00 <main+0xa4>
  800ed0:	e0ffff17 	ldw	r3,-4(fp)
  800ed4:	188000e0 	cmpeqi	r2,r3,3
  800ed8:	10000d1e 	bne	r2,zero,800f10 <main+0xb4>
  800edc:	00000f06 	br	800f1c <main+0xc0>
			case 0:
				simple_tlc(&proc_state[0]);
  800ee0:	01002074 	movhi	r4,129
  800ee4:	21148504 	addi	r4,r4,21012
  800ee8:	08003e40 	call	8003e4 <simple_tlc>
				break;
  800eec:	00000b06 	br	800f1c <main+0xc0>
			case 1:
				pedestrian_tlc(&proc_state[1]);
  800ef0:	01002074 	movhi	r4,129
  800ef4:	21148604 	addi	r4,r4,21016
  800ef8:	08007300 	call	800730 <pedestrian_tlc>
				break;
  800efc:	00000706 	br	800f1c <main+0xc0>
			case 2:
				configurable_tlc(&proc_state[2]);
  800f00:	01002074 	movhi	r4,129
  800f04:	21148704 	addi	r4,r4,21020
  800f08:	080090c0 	call	80090c <configurable_tlc>
				break;
  800f0c:	00000306 	br	800f1c <main+0xc0>
			case 3:
				camera_tlc(&proc_state[3]);
  800f10:	01002074 	movhi	r4,129
  800f14:	21148804 	addi	r4,r4,21024
  800f18:	0800ca80 	call	800ca8 <camera_tlc>
				break;
		}
    	if(lcd != NULL) {
  800f1c:	e0bffd17 	ldw	r2,-12(fp)
  800f20:	1005003a 	cmpeq	r2,r2,zero
  800f24:	103fdd1e 	bne	r2,zero,800e9c <main+0x40>
    		#define ESC 27
    		#define CLEAR_LCD_STRING "[2J"
    		fprintf(lcd, "%c%s", ESC, CLEAR_LCD_STRING);
  800f28:	e13ffd17 	ldw	r4,-12(fp)
  800f2c:	01402074 	movhi	r5,129
  800f30:	2952b504 	addi	r5,r5,19156
  800f34:	018006c4 	movi	r6,27
  800f38:	01c02074 	movhi	r7,129
  800f3c:	39d2b704 	addi	r7,r7,19164
  800f40:	08017d40 	call	8017d4 <fprintf>
    		fprintf(lcd, "Mode: %d\n",mode);
  800f44:	d1a75417 	ldw	r6,-25264(gp)
  800f48:	e13ffd17 	ldw	r4,-12(fp)
  800f4c:	01402074 	movhi	r5,129
  800f50:	2952b804 	addi	r5,r5,19168
  800f54:	08017d40 	call	8017d4 <fprintf>
    		fprintf(lcd, "State: %d\n",proc_state[mode]);
  800f58:	d0a75417 	ldw	r2,-25264(gp)
  800f5c:	00c02074 	movhi	r3,129
  800f60:	18d48504 	addi	r3,r3,21012
  800f64:	1085883a 	add	r2,r2,r2
  800f68:	1085883a 	add	r2,r2,r2
  800f6c:	10c5883a 	add	r2,r2,r3
  800f70:	11800017 	ldw	r6,0(r2)
  800f74:	e13ffd17 	ldw	r4,-12(fp)
  800f78:	01402074 	movhi	r5,129
  800f7c:	2952da04 	addi	r5,r5,19304
  800f80:	08017d40 	call	8017d4 <fprintf>
    	}

	}
  800f84:	003fc506 	br	800e9c <main+0x40>

00800f88 <_fclose_r>:
  800f88:	defffc04 	addi	sp,sp,-16
  800f8c:	dc400115 	stw	r17,4(sp)
  800f90:	dc000015 	stw	r16,0(sp)
  800f94:	dfc00315 	stw	ra,12(sp)
  800f98:	dc800215 	stw	r18,8(sp)
  800f9c:	2821883a 	mov	r16,r5
  800fa0:	2023883a 	mov	r17,r4
  800fa4:	28002926 	beq	r5,zero,80104c <_fclose_r+0xc4>
  800fa8:	080145c0 	call	80145c <__sfp_lock_acquire>
  800fac:	88000226 	beq	r17,zero,800fb8 <_fclose_r+0x30>
  800fb0:	88800e17 	ldw	r2,56(r17)
  800fb4:	10002d26 	beq	r2,zero,80106c <_fclose_r+0xe4>
  800fb8:	8080030f 	ldh	r2,12(r16)
  800fbc:	10002226 	beq	r2,zero,801048 <_fclose_r+0xc0>
  800fc0:	8809883a 	mov	r4,r17
  800fc4:	800b883a 	mov	r5,r16
  800fc8:	08010ac0 	call	8010ac <_fflush_r>
  800fcc:	1025883a 	mov	r18,r2
  800fd0:	80800b17 	ldw	r2,44(r16)
  800fd4:	10000426 	beq	r2,zero,800fe8 <_fclose_r+0x60>
  800fd8:	81400717 	ldw	r5,28(r16)
  800fdc:	8809883a 	mov	r4,r17
  800fe0:	103ee83a 	callr	r2
  800fe4:	10002a16 	blt	r2,zero,801090 <_fclose_r+0x108>
  800fe8:	8080030b 	ldhu	r2,12(r16)
  800fec:	1080200c 	andi	r2,r2,128
  800ff0:	1000231e 	bne	r2,zero,801080 <_fclose_r+0xf8>
  800ff4:	81400c17 	ldw	r5,48(r16)
  800ff8:	28000526 	beq	r5,zero,801010 <_fclose_r+0x88>
  800ffc:	80801004 	addi	r2,r16,64
  801000:	28800226 	beq	r5,r2,80100c <_fclose_r+0x84>
  801004:	8809883a 	mov	r4,r17
  801008:	08019f00 	call	8019f0 <_free_r>
  80100c:	80000c15 	stw	zero,48(r16)
  801010:	81401117 	ldw	r5,68(r16)
  801014:	28000326 	beq	r5,zero,801024 <_fclose_r+0x9c>
  801018:	8809883a 	mov	r4,r17
  80101c:	08019f00 	call	8019f0 <_free_r>
  801020:	80001115 	stw	zero,68(r16)
  801024:	8000030d 	sth	zero,12(r16)
  801028:	08014600 	call	801460 <__sfp_lock_release>
  80102c:	9005883a 	mov	r2,r18
  801030:	dfc00317 	ldw	ra,12(sp)
  801034:	dc800217 	ldw	r18,8(sp)
  801038:	dc400117 	ldw	r17,4(sp)
  80103c:	dc000017 	ldw	r16,0(sp)
  801040:	dec00404 	addi	sp,sp,16
  801044:	f800283a 	ret
  801048:	08014600 	call	801460 <__sfp_lock_release>
  80104c:	0025883a 	mov	r18,zero
  801050:	9005883a 	mov	r2,r18
  801054:	dfc00317 	ldw	ra,12(sp)
  801058:	dc800217 	ldw	r18,8(sp)
  80105c:	dc400117 	ldw	r17,4(sp)
  801060:	dc000017 	ldw	r16,0(sp)
  801064:	dec00404 	addi	sp,sp,16
  801068:	f800283a 	ret
  80106c:	8809883a 	mov	r4,r17
  801070:	080146c0 	call	80146c <__sinit>
  801074:	8080030f 	ldh	r2,12(r16)
  801078:	103fd11e 	bne	r2,zero,800fc0 <_fclose_r+0x38>
  80107c:	003ff206 	br	801048 <_fclose_r+0xc0>
  801080:	81400417 	ldw	r5,16(r16)
  801084:	8809883a 	mov	r4,r17
  801088:	08019f00 	call	8019f0 <_free_r>
  80108c:	003fd906 	br	800ff4 <_fclose_r+0x6c>
  801090:	04bfffc4 	movi	r18,-1
  801094:	003fd406 	br	800fe8 <_fclose_r+0x60>

00801098 <fclose>:
  801098:	00802074 	movhi	r2,129
  80109c:	109b9704 	addi	r2,r2,28252
  8010a0:	200b883a 	mov	r5,r4
  8010a4:	11000017 	ldw	r4,0(r2)
  8010a8:	0800f881 	jmpi	800f88 <_fclose_r>

008010ac <_fflush_r>:
  8010ac:	defffb04 	addi	sp,sp,-20
  8010b0:	dcc00315 	stw	r19,12(sp)
  8010b4:	dc800215 	stw	r18,8(sp)
  8010b8:	dfc00415 	stw	ra,16(sp)
  8010bc:	dc400115 	stw	r17,4(sp)
  8010c0:	dc000015 	stw	r16,0(sp)
  8010c4:	2027883a 	mov	r19,r4
  8010c8:	2825883a 	mov	r18,r5
  8010cc:	20000226 	beq	r4,zero,8010d8 <_fflush_r+0x2c>
  8010d0:	20800e17 	ldw	r2,56(r4)
  8010d4:	10005626 	beq	r2,zero,801230 <_fflush_r+0x184>
  8010d8:	9100030b 	ldhu	r4,12(r18)
  8010dc:	20ffffcc 	andi	r3,r4,65535
  8010e0:	18e0001c 	xori	r3,r3,32768
  8010e4:	18e00004 	addi	r3,r3,-32768
  8010e8:	1880020c 	andi	r2,r3,8
  8010ec:	1000261e 	bne	r2,zero,801188 <_fflush_r+0xdc>
  8010f0:	90c00117 	ldw	r3,4(r18)
  8010f4:	20820014 	ori	r2,r4,2048
  8010f8:	9080030d 	sth	r2,12(r18)
  8010fc:	1009883a 	mov	r4,r2
  801100:	00c0400e 	bge	zero,r3,801204 <_fflush_r+0x158>
  801104:	92000a17 	ldw	r8,40(r18)
  801108:	40004026 	beq	r8,zero,80120c <_fflush_r+0x160>
  80110c:	2084000c 	andi	r2,r4,4096
  801110:	10005326 	beq	r2,zero,801260 <_fflush_r+0x1b4>
  801114:	94001417 	ldw	r16,80(r18)
  801118:	9080030b 	ldhu	r2,12(r18)
  80111c:	1080010c 	andi	r2,r2,4
  801120:	1000481e 	bne	r2,zero,801244 <_fflush_r+0x198>
  801124:	91400717 	ldw	r5,28(r18)
  801128:	9809883a 	mov	r4,r19
  80112c:	800d883a 	mov	r6,r16
  801130:	000f883a 	mov	r7,zero
  801134:	403ee83a 	callr	r8
  801138:	8080261e 	bne	r16,r2,8011d4 <_fflush_r+0x128>
  80113c:	9080030b 	ldhu	r2,12(r18)
  801140:	91000417 	ldw	r4,16(r18)
  801144:	90000115 	stw	zero,4(r18)
  801148:	10bdffcc 	andi	r2,r2,63487
  80114c:	10ffffcc 	andi	r3,r2,65535
  801150:	18c4000c 	andi	r3,r3,4096
  801154:	9080030d 	sth	r2,12(r18)
  801158:	91000015 	stw	r4,0(r18)
  80115c:	18002b26 	beq	r3,zero,80120c <_fflush_r+0x160>
  801160:	0007883a 	mov	r3,zero
  801164:	1805883a 	mov	r2,r3
  801168:	94001415 	stw	r16,80(r18)
  80116c:	dfc00417 	ldw	ra,16(sp)
  801170:	dcc00317 	ldw	r19,12(sp)
  801174:	dc800217 	ldw	r18,8(sp)
  801178:	dc400117 	ldw	r17,4(sp)
  80117c:	dc000017 	ldw	r16,0(sp)
  801180:	dec00504 	addi	sp,sp,20
  801184:	f800283a 	ret
  801188:	94400417 	ldw	r17,16(r18)
  80118c:	88001f26 	beq	r17,zero,80120c <_fflush_r+0x160>
  801190:	90800017 	ldw	r2,0(r18)
  801194:	18c000cc 	andi	r3,r3,3
  801198:	94400015 	stw	r17,0(r18)
  80119c:	1461c83a 	sub	r16,r2,r17
  8011a0:	18002526 	beq	r3,zero,801238 <_fflush_r+0x18c>
  8011a4:	0005883a 	mov	r2,zero
  8011a8:	90800215 	stw	r2,8(r18)
  8011ac:	0400170e 	bge	zero,r16,80120c <_fflush_r+0x160>
  8011b0:	90c00917 	ldw	r3,36(r18)
  8011b4:	91400717 	ldw	r5,28(r18)
  8011b8:	880d883a 	mov	r6,r17
  8011bc:	800f883a 	mov	r7,r16
  8011c0:	9809883a 	mov	r4,r19
  8011c4:	183ee83a 	callr	r3
  8011c8:	88a3883a 	add	r17,r17,r2
  8011cc:	80a1c83a 	sub	r16,r16,r2
  8011d0:	00bff616 	blt	zero,r2,8011ac <_fflush_r+0x100>
  8011d4:	9080030b 	ldhu	r2,12(r18)
  8011d8:	00ffffc4 	movi	r3,-1
  8011dc:	10801014 	ori	r2,r2,64
  8011e0:	9080030d 	sth	r2,12(r18)
  8011e4:	1805883a 	mov	r2,r3
  8011e8:	dfc00417 	ldw	ra,16(sp)
  8011ec:	dcc00317 	ldw	r19,12(sp)
  8011f0:	dc800217 	ldw	r18,8(sp)
  8011f4:	dc400117 	ldw	r17,4(sp)
  8011f8:	dc000017 	ldw	r16,0(sp)
  8011fc:	dec00504 	addi	sp,sp,20
  801200:	f800283a 	ret
  801204:	90800f17 	ldw	r2,60(r18)
  801208:	00bfbe16 	blt	zero,r2,801104 <_fflush_r+0x58>
  80120c:	0007883a 	mov	r3,zero
  801210:	1805883a 	mov	r2,r3
  801214:	dfc00417 	ldw	ra,16(sp)
  801218:	dcc00317 	ldw	r19,12(sp)
  80121c:	dc800217 	ldw	r18,8(sp)
  801220:	dc400117 	ldw	r17,4(sp)
  801224:	dc000017 	ldw	r16,0(sp)
  801228:	dec00504 	addi	sp,sp,20
  80122c:	f800283a 	ret
  801230:	080146c0 	call	80146c <__sinit>
  801234:	003fa806 	br	8010d8 <_fflush_r+0x2c>
  801238:	90800517 	ldw	r2,20(r18)
  80123c:	90800215 	stw	r2,8(r18)
  801240:	003fda06 	br	8011ac <_fflush_r+0x100>
  801244:	90800117 	ldw	r2,4(r18)
  801248:	90c00c17 	ldw	r3,48(r18)
  80124c:	80a1c83a 	sub	r16,r16,r2
  801250:	183fb426 	beq	r3,zero,801124 <_fflush_r+0x78>
  801254:	90800f17 	ldw	r2,60(r18)
  801258:	80a1c83a 	sub	r16,r16,r2
  80125c:	003fb106 	br	801124 <_fflush_r+0x78>
  801260:	91400717 	ldw	r5,28(r18)
  801264:	9809883a 	mov	r4,r19
  801268:	000d883a 	mov	r6,zero
  80126c:	01c00044 	movi	r7,1
  801270:	403ee83a 	callr	r8
  801274:	1021883a 	mov	r16,r2
  801278:	00bfffc4 	movi	r2,-1
  80127c:	80800226 	beq	r16,r2,801288 <_fflush_r+0x1dc>
  801280:	92000a17 	ldw	r8,40(r18)
  801284:	003fa406 	br	801118 <_fflush_r+0x6c>
  801288:	98c00017 	ldw	r3,0(r19)
  80128c:	00800744 	movi	r2,29
  801290:	18bfde26 	beq	r3,r2,80120c <_fflush_r+0x160>
  801294:	9080030b 	ldhu	r2,12(r18)
  801298:	8007883a 	mov	r3,r16
  80129c:	10801014 	ori	r2,r2,64
  8012a0:	9080030d 	sth	r2,12(r18)
  8012a4:	003fcf06 	br	8011e4 <_fflush_r+0x138>

008012a8 <fflush>:
  8012a8:	01402034 	movhi	r5,128
  8012ac:	29442b04 	addi	r5,r5,4268
  8012b0:	2007883a 	mov	r3,r4
  8012b4:	20000526 	beq	r4,zero,8012cc <fflush+0x24>
  8012b8:	00802074 	movhi	r2,129
  8012bc:	109b9704 	addi	r2,r2,28252
  8012c0:	11000017 	ldw	r4,0(r2)
  8012c4:	180b883a 	mov	r5,r3
  8012c8:	08010ac1 	jmpi	8010ac <_fflush_r>
  8012cc:	00802074 	movhi	r2,129
  8012d0:	109b9804 	addi	r2,r2,28256
  8012d4:	11000017 	ldw	r4,0(r2)
  8012d8:	08026741 	jmpi	802674 <_fwalk_reent>

008012dc <fgetc>:
  8012dc:	defffd04 	addi	sp,sp,-12
  8012e0:	dc400115 	stw	r17,4(sp)
  8012e4:	04402074 	movhi	r17,129
  8012e8:	8c5b9704 	addi	r17,r17,28252
  8012ec:	88c00017 	ldw	r3,0(r17)
  8012f0:	dc000015 	stw	r16,0(sp)
  8012f4:	dfc00215 	stw	ra,8(sp)
  8012f8:	2021883a 	mov	r16,r4
  8012fc:	18000326 	beq	r3,zero,80130c <fgetc+0x30>
  801300:	18800e17 	ldw	r2,56(r3)
  801304:	1809883a 	mov	r4,r3
  801308:	10000e26 	beq	r2,zero,801344 <fgetc+0x68>
  80130c:	80800117 	ldw	r2,4(r16)
  801310:	800b883a 	mov	r5,r16
  801314:	10bfffc4 	addi	r2,r2,-1
  801318:	80800115 	stw	r2,4(r16)
  80131c:	10000f16 	blt	r2,zero,80135c <fgetc+0x80>
  801320:	80c00017 	ldw	r3,0(r16)
  801324:	18800003 	ldbu	r2,0(r3)
  801328:	18c00044 	addi	r3,r3,1
  80132c:	80c00015 	stw	r3,0(r16)
  801330:	dfc00217 	ldw	ra,8(sp)
  801334:	dc400117 	ldw	r17,4(sp)
  801338:	dc000017 	ldw	r16,0(sp)
  80133c:	dec00304 	addi	sp,sp,12
  801340:	f800283a 	ret
  801344:	080146c0 	call	80146c <__sinit>
  801348:	80800117 	ldw	r2,4(r16)
  80134c:	800b883a 	mov	r5,r16
  801350:	10bfffc4 	addi	r2,r2,-1
  801354:	80800115 	stw	r2,4(r16)
  801358:	103ff10e 	bge	r2,zero,801320 <fgetc+0x44>
  80135c:	89000017 	ldw	r4,0(r17)
  801360:	dfc00217 	ldw	ra,8(sp)
  801364:	dc400117 	ldw	r17,4(sp)
  801368:	dc000017 	ldw	r16,0(sp)
  80136c:	dec00304 	addi	sp,sp,12
  801370:	0803c881 	jmpi	803c88 <__srget_r>

00801374 <_fgetc_r>:
  801374:	defffd04 	addi	sp,sp,-12
  801378:	dc400115 	stw	r17,4(sp)
  80137c:	dc000015 	stw	r16,0(sp)
  801380:	dfc00215 	stw	ra,8(sp)
  801384:	2021883a 	mov	r16,r4
  801388:	2823883a 	mov	r17,r5
  80138c:	20000226 	beq	r4,zero,801398 <_fgetc_r+0x24>
  801390:	20800e17 	ldw	r2,56(r4)
  801394:	10000f26 	beq	r2,zero,8013d4 <_fgetc_r+0x60>
  801398:	88800117 	ldw	r2,4(r17)
  80139c:	8009883a 	mov	r4,r16
  8013a0:	880b883a 	mov	r5,r17
  8013a4:	10bfffc4 	addi	r2,r2,-1
  8013a8:	88800115 	stw	r2,4(r17)
  8013ac:	10001016 	blt	r2,zero,8013f0 <_fgetc_r+0x7c>
  8013b0:	88c00017 	ldw	r3,0(r17)
  8013b4:	18800003 	ldbu	r2,0(r3)
  8013b8:	18c00044 	addi	r3,r3,1
  8013bc:	88c00015 	stw	r3,0(r17)
  8013c0:	dfc00217 	ldw	ra,8(sp)
  8013c4:	dc400117 	ldw	r17,4(sp)
  8013c8:	dc000017 	ldw	r16,0(sp)
  8013cc:	dec00304 	addi	sp,sp,12
  8013d0:	f800283a 	ret
  8013d4:	080146c0 	call	80146c <__sinit>
  8013d8:	88800117 	ldw	r2,4(r17)
  8013dc:	8009883a 	mov	r4,r16
  8013e0:	880b883a 	mov	r5,r17
  8013e4:	10bfffc4 	addi	r2,r2,-1
  8013e8:	88800115 	stw	r2,4(r17)
  8013ec:	103ff00e 	bge	r2,zero,8013b0 <_fgetc_r+0x3c>
  8013f0:	dfc00217 	ldw	ra,8(sp)
  8013f4:	dc400117 	ldw	r17,4(sp)
  8013f8:	dc000017 	ldw	r16,0(sp)
  8013fc:	dec00304 	addi	sp,sp,12
  801400:	0803c881 	jmpi	803c88 <__srget_r>

00801404 <std>:
  801404:	00802034 	movhi	r2,128
  801408:	108fd004 	addi	r2,r2,16192
  80140c:	20800b15 	stw	r2,44(r4)
  801410:	00802034 	movhi	r2,128
  801414:	10900b04 	addi	r2,r2,16428
  801418:	20800815 	stw	r2,32(r4)
  80141c:	00c02034 	movhi	r3,128
  801420:	18cfec04 	addi	r3,r3,16304
  801424:	00802034 	movhi	r2,128
  801428:	108fd204 	addi	r2,r2,16200
  80142c:	2140030d 	sth	r5,12(r4)
  801430:	2180038d 	sth	r6,14(r4)
  801434:	20c00915 	stw	r3,36(r4)
  801438:	20800a15 	stw	r2,40(r4)
  80143c:	20000015 	stw	zero,0(r4)
  801440:	20000115 	stw	zero,4(r4)
  801444:	20000215 	stw	zero,8(r4)
  801448:	20000415 	stw	zero,16(r4)
  80144c:	20000515 	stw	zero,20(r4)
  801450:	20000615 	stw	zero,24(r4)
  801454:	21000715 	stw	r4,28(r4)
  801458:	f800283a 	ret

0080145c <__sfp_lock_acquire>:
  80145c:	f800283a 	ret

00801460 <__sfp_lock_release>:
  801460:	f800283a 	ret

00801464 <__sinit_lock_acquire>:
  801464:	f800283a 	ret

00801468 <__sinit_lock_release>:
  801468:	f800283a 	ret

0080146c <__sinit>:
  80146c:	20800e17 	ldw	r2,56(r4)
  801470:	defffd04 	addi	sp,sp,-12
  801474:	dc400115 	stw	r17,4(sp)
  801478:	dc000015 	stw	r16,0(sp)
  80147c:	dfc00215 	stw	ra,8(sp)
  801480:	04400044 	movi	r17,1
  801484:	01400104 	movi	r5,4
  801488:	000d883a 	mov	r6,zero
  80148c:	2021883a 	mov	r16,r4
  801490:	2200bb04 	addi	r8,r4,748
  801494:	200f883a 	mov	r7,r4
  801498:	10000526 	beq	r2,zero,8014b0 <__sinit+0x44>
  80149c:	dfc00217 	ldw	ra,8(sp)
  8014a0:	dc400117 	ldw	r17,4(sp)
  8014a4:	dc000017 	ldw	r16,0(sp)
  8014a8:	dec00304 	addi	sp,sp,12
  8014ac:	f800283a 	ret
  8014b0:	21000117 	ldw	r4,4(r4)
  8014b4:	00802034 	movhi	r2,128
  8014b8:	10855404 	addi	r2,r2,5456
  8014bc:	00c000c4 	movi	r3,3
  8014c0:	80800f15 	stw	r2,60(r16)
  8014c4:	80c0b915 	stw	r3,740(r16)
  8014c8:	8200ba15 	stw	r8,744(r16)
  8014cc:	84400e15 	stw	r17,56(r16)
  8014d0:	8000b815 	stw	zero,736(r16)
  8014d4:	08014040 	call	801404 <std>
  8014d8:	81000217 	ldw	r4,8(r16)
  8014dc:	880d883a 	mov	r6,r17
  8014e0:	800f883a 	mov	r7,r16
  8014e4:	01400284 	movi	r5,10
  8014e8:	08014040 	call	801404 <std>
  8014ec:	81000317 	ldw	r4,12(r16)
  8014f0:	800f883a 	mov	r7,r16
  8014f4:	01400484 	movi	r5,18
  8014f8:	01800084 	movi	r6,2
  8014fc:	dfc00217 	ldw	ra,8(sp)
  801500:	dc400117 	ldw	r17,4(sp)
  801504:	dc000017 	ldw	r16,0(sp)
  801508:	dec00304 	addi	sp,sp,12
  80150c:	08014041 	jmpi	801404 <std>

00801510 <__fp_lock>:
  801510:	0005883a 	mov	r2,zero
  801514:	f800283a 	ret

00801518 <__fp_unlock>:
  801518:	0005883a 	mov	r2,zero
  80151c:	f800283a 	ret

00801520 <__fp_unlock_all>:
  801520:	00802074 	movhi	r2,129
  801524:	109b9704 	addi	r2,r2,28252
  801528:	11000017 	ldw	r4,0(r2)
  80152c:	01402034 	movhi	r5,128
  801530:	29454604 	addi	r5,r5,5400
  801534:	080273c1 	jmpi	80273c <_fwalk>

00801538 <__fp_lock_all>:
  801538:	00802074 	movhi	r2,129
  80153c:	109b9704 	addi	r2,r2,28252
  801540:	11000017 	ldw	r4,0(r2)
  801544:	01402034 	movhi	r5,128
  801548:	29454404 	addi	r5,r5,5392
  80154c:	080273c1 	jmpi	80273c <_fwalk>

00801550 <_cleanup_r>:
  801550:	01402034 	movhi	r5,128
  801554:	29442604 	addi	r5,r5,4248
  801558:	080273c1 	jmpi	80273c <_fwalk>

0080155c <_cleanup>:
  80155c:	00802074 	movhi	r2,129
  801560:	109b9804 	addi	r2,r2,28256
  801564:	11000017 	ldw	r4,0(r2)
  801568:	08015501 	jmpi	801550 <_cleanup_r>

0080156c <__sfmoreglue>:
  80156c:	defffc04 	addi	sp,sp,-16
  801570:	dc400115 	stw	r17,4(sp)
  801574:	2c401724 	muli	r17,r5,92
  801578:	dc800215 	stw	r18,8(sp)
  80157c:	2825883a 	mov	r18,r5
  801580:	89400304 	addi	r5,r17,12
  801584:	dc000015 	stw	r16,0(sp)
  801588:	dfc00315 	stw	ra,12(sp)
  80158c:	08029880 	call	802988 <_malloc_r>
  801590:	0021883a 	mov	r16,zero
  801594:	880d883a 	mov	r6,r17
  801598:	000b883a 	mov	r5,zero
  80159c:	10000626 	beq	r2,zero,8015b8 <__sfmoreglue+0x4c>
  8015a0:	11000304 	addi	r4,r2,12
  8015a4:	14800115 	stw	r18,4(r2)
  8015a8:	10000015 	stw	zero,0(r2)
  8015ac:	11000215 	stw	r4,8(r2)
  8015b0:	1021883a 	mov	r16,r2
  8015b4:	080332c0 	call	80332c <memset>
  8015b8:	8005883a 	mov	r2,r16
  8015bc:	dfc00317 	ldw	ra,12(sp)
  8015c0:	dc800217 	ldw	r18,8(sp)
  8015c4:	dc400117 	ldw	r17,4(sp)
  8015c8:	dc000017 	ldw	r16,0(sp)
  8015cc:	dec00404 	addi	sp,sp,16
  8015d0:	f800283a 	ret

008015d4 <__sfp>:
  8015d4:	defffd04 	addi	sp,sp,-12
  8015d8:	00802074 	movhi	r2,129
  8015dc:	109b9804 	addi	r2,r2,28256
  8015e0:	dc000015 	stw	r16,0(sp)
  8015e4:	14000017 	ldw	r16,0(r2)
  8015e8:	dc400115 	stw	r17,4(sp)
  8015ec:	dfc00215 	stw	ra,8(sp)
  8015f0:	80800e17 	ldw	r2,56(r16)
  8015f4:	2023883a 	mov	r17,r4
  8015f8:	10002626 	beq	r2,zero,801694 <__sfp+0xc0>
  8015fc:	8400b804 	addi	r16,r16,736
  801600:	80800117 	ldw	r2,4(r16)
  801604:	81000217 	ldw	r4,8(r16)
  801608:	10ffffc4 	addi	r3,r2,-1
  80160c:	18000916 	blt	r3,zero,801634 <__sfp+0x60>
  801610:	2080030f 	ldh	r2,12(r4)
  801614:	10000b26 	beq	r2,zero,801644 <__sfp+0x70>
  801618:	017fffc4 	movi	r5,-1
  80161c:	00000206 	br	801628 <__sfp+0x54>
  801620:	2080030f 	ldh	r2,12(r4)
  801624:	10000726 	beq	r2,zero,801644 <__sfp+0x70>
  801628:	18ffffc4 	addi	r3,r3,-1
  80162c:	21001704 	addi	r4,r4,92
  801630:	197ffb1e 	bne	r3,r5,801620 <__sfp+0x4c>
  801634:	80800017 	ldw	r2,0(r16)
  801638:	10001926 	beq	r2,zero,8016a0 <__sfp+0xcc>
  80163c:	1021883a 	mov	r16,r2
  801640:	003fef06 	br	801600 <__sfp+0x2c>
  801644:	00bfffc4 	movi	r2,-1
  801648:	00c00044 	movi	r3,1
  80164c:	2080038d 	sth	r2,14(r4)
  801650:	20c0030d 	sth	r3,12(r4)
  801654:	20000015 	stw	zero,0(r4)
  801658:	20000215 	stw	zero,8(r4)
  80165c:	20000115 	stw	zero,4(r4)
  801660:	20000415 	stw	zero,16(r4)
  801664:	20000515 	stw	zero,20(r4)
  801668:	20000615 	stw	zero,24(r4)
  80166c:	20000c15 	stw	zero,48(r4)
  801670:	20000d15 	stw	zero,52(r4)
  801674:	20001115 	stw	zero,68(r4)
  801678:	20001215 	stw	zero,72(r4)
  80167c:	2005883a 	mov	r2,r4
  801680:	dfc00217 	ldw	ra,8(sp)
  801684:	dc400117 	ldw	r17,4(sp)
  801688:	dc000017 	ldw	r16,0(sp)
  80168c:	dec00304 	addi	sp,sp,12
  801690:	f800283a 	ret
  801694:	8009883a 	mov	r4,r16
  801698:	080146c0 	call	80146c <__sinit>
  80169c:	003fd706 	br	8015fc <__sfp+0x28>
  8016a0:	8809883a 	mov	r4,r17
  8016a4:	01400104 	movi	r5,4
  8016a8:	080156c0 	call	80156c <__sfmoreglue>
  8016ac:	80800015 	stw	r2,0(r16)
  8016b0:	103fe21e 	bne	r2,zero,80163c <__sfp+0x68>
  8016b4:	00800304 	movi	r2,12
  8016b8:	0009883a 	mov	r4,zero
  8016bc:	88800015 	stw	r2,0(r17)
  8016c0:	003fee06 	br	80167c <__sfp+0xa8>

008016c4 <_fopen_r>:
  8016c4:	defffa04 	addi	sp,sp,-24
  8016c8:	dcc00415 	stw	r19,16(sp)
  8016cc:	2827883a 	mov	r19,r5
  8016d0:	300b883a 	mov	r5,r6
  8016d4:	d80d883a 	mov	r6,sp
  8016d8:	dc800315 	stw	r18,12(sp)
  8016dc:	dc400215 	stw	r17,8(sp)
  8016e0:	dc000115 	stw	r16,4(sp)
  8016e4:	dfc00515 	stw	ra,20(sp)
  8016e8:	2021883a 	mov	r16,r4
  8016ec:	08091980 	call	809198 <__sflags>
  8016f0:	1025883a 	mov	r18,r2
  8016f4:	8009883a 	mov	r4,r16
  8016f8:	0023883a 	mov	r17,zero
  8016fc:	1000081e 	bne	r2,zero,801720 <_fopen_r+0x5c>
  801700:	8805883a 	mov	r2,r17
  801704:	dfc00517 	ldw	ra,20(sp)
  801708:	dcc00417 	ldw	r19,16(sp)
  80170c:	dc800317 	ldw	r18,12(sp)
  801710:	dc400217 	ldw	r17,8(sp)
  801714:	dc000117 	ldw	r16,4(sp)
  801718:	dec00604 	addi	sp,sp,24
  80171c:	f800283a 	ret
  801720:	08015d40 	call	8015d4 <__sfp>
  801724:	1023883a 	mov	r17,r2
  801728:	980b883a 	mov	r5,r19
  80172c:	8009883a 	mov	r4,r16
  801730:	01c06d84 	movi	r7,438
  801734:	103ff226 	beq	r2,zero,801700 <_fopen_r+0x3c>
  801738:	d9800017 	ldw	r6,0(sp)
  80173c:	08033c40 	call	8033c4 <_open_r>
  801740:	10001816 	blt	r2,zero,8017a4 <_fopen_r+0xe0>
  801744:	00c02034 	movhi	r3,128
  801748:	18cfec04 	addi	r3,r3,16304
  80174c:	923fffcc 	andi	r8,r18,65535
  801750:	8880038d 	sth	r2,14(r17)
  801754:	00802034 	movhi	r2,128
  801758:	10900b04 	addi	r2,r2,16428
  80175c:	88800815 	stw	r2,32(r17)
  801760:	88c00915 	stw	r3,36(r17)
  801764:	00802034 	movhi	r2,128
  801768:	108fd204 	addi	r2,r2,16200
  80176c:	00c02034 	movhi	r3,128
  801770:	18cfd004 	addi	r3,r3,16192
  801774:	4200400c 	andi	r8,r8,256
  801778:	8c80030d 	sth	r18,12(r17)
  80177c:	8009883a 	mov	r4,r16
  801780:	880b883a 	mov	r5,r17
  801784:	000d883a 	mov	r6,zero
  801788:	01c00084 	movi	r7,2
  80178c:	88800a15 	stw	r2,40(r17)
  801790:	88c00b15 	stw	r3,44(r17)
  801794:	8c400715 	stw	r17,28(r17)
  801798:	403fd926 	beq	r8,zero,801700 <_fopen_r+0x3c>
  80179c:	0801d040 	call	801d04 <_fseek_r>
  8017a0:	003fd706 	br	801700 <_fopen_r+0x3c>
  8017a4:	080145c0 	call	80145c <__sfp_lock_acquire>
  8017a8:	8800030d 	sth	zero,12(r17)
  8017ac:	08014600 	call	801460 <__sfp_lock_release>
  8017b0:	0023883a 	mov	r17,zero
  8017b4:	003fd206 	br	801700 <_fopen_r+0x3c>

008017b8 <fopen>:
  8017b8:	01802074 	movhi	r6,129
  8017bc:	319b9704 	addi	r6,r6,28252
  8017c0:	2007883a 	mov	r3,r4
  8017c4:	31000017 	ldw	r4,0(r6)
  8017c8:	280d883a 	mov	r6,r5
  8017cc:	180b883a 	mov	r5,r3
  8017d0:	08016c41 	jmpi	8016c4 <_fopen_r>

008017d4 <fprintf>:
  8017d4:	defffc04 	addi	sp,sp,-16
  8017d8:	dfc00115 	stw	ra,4(sp)
  8017dc:	d9800215 	stw	r6,8(sp)
  8017e0:	d9c00315 	stw	r7,12(sp)
  8017e4:	d8800204 	addi	r2,sp,8
  8017e8:	100d883a 	mov	r6,r2
  8017ec:	d8800015 	stw	r2,0(sp)
  8017f0:	08060040 	call	806004 <__vfprintf_internal>
  8017f4:	dfc00117 	ldw	ra,4(sp)
  8017f8:	dec00404 	addi	sp,sp,16
  8017fc:	f800283a 	ret

00801800 <_fprintf_r>:
  801800:	defffd04 	addi	sp,sp,-12
  801804:	2807883a 	mov	r3,r5
  801808:	dfc00115 	stw	ra,4(sp)
  80180c:	d9c00215 	stw	r7,8(sp)
  801810:	d8800204 	addi	r2,sp,8
  801814:	300b883a 	mov	r5,r6
  801818:	1809883a 	mov	r4,r3
  80181c:	100d883a 	mov	r6,r2
  801820:	d8800015 	stw	r2,0(sp)
  801824:	08060040 	call	806004 <__vfprintf_internal>
  801828:	dfc00117 	ldw	ra,4(sp)
  80182c:	dec00304 	addi	sp,sp,12
  801830:	f800283a 	ret

00801834 <_fputs_r>:
  801834:	defff804 	addi	sp,sp,-32
  801838:	dc000515 	stw	r16,20(sp)
  80183c:	2021883a 	mov	r16,r4
  801840:	2809883a 	mov	r4,r5
  801844:	dc400615 	stw	r17,24(sp)
  801848:	dfc00715 	stw	ra,28(sp)
  80184c:	3023883a 	mov	r17,r6
  801850:	d9400015 	stw	r5,0(sp)
  801854:	080408c0 	call	80408c <strlen>
  801858:	00c00044 	movi	r3,1
  80185c:	d8800115 	stw	r2,4(sp)
  801860:	d8c00315 	stw	r3,12(sp)
  801864:	d8800415 	stw	r2,16(sp)
  801868:	dec00215 	stw	sp,8(sp)
  80186c:	80000326 	beq	r16,zero,80187c <_fputs_r+0x48>
  801870:	80800e17 	ldw	r2,56(r16)
  801874:	8009883a 	mov	r4,r16
  801878:	10000926 	beq	r2,zero,8018a0 <_fputs_r+0x6c>
  80187c:	8009883a 	mov	r4,r16
  801880:	880b883a 	mov	r5,r17
  801884:	d9800204 	addi	r6,sp,8
  801888:	08021d80 	call	8021d8 <__sfvwrite_r>
  80188c:	dfc00717 	ldw	ra,28(sp)
  801890:	dc400617 	ldw	r17,24(sp)
  801894:	dc000517 	ldw	r16,20(sp)
  801898:	dec00804 	addi	sp,sp,32
  80189c:	f800283a 	ret
  8018a0:	080146c0 	call	80146c <__sinit>
  8018a4:	003ff506 	br	80187c <_fputs_r+0x48>

008018a8 <fputs>:
  8018a8:	01802074 	movhi	r6,129
  8018ac:	319b9704 	addi	r6,r6,28252
  8018b0:	2007883a 	mov	r3,r4
  8018b4:	31000017 	ldw	r4,0(r6)
  8018b8:	280d883a 	mov	r6,r5
  8018bc:	180b883a 	mov	r5,r3
  8018c0:	08018341 	jmpi	801834 <_fputs_r>

008018c4 <_malloc_trim_r>:
  8018c4:	defffb04 	addi	sp,sp,-20
  8018c8:	dcc00315 	stw	r19,12(sp)
  8018cc:	04c02074 	movhi	r19,129
  8018d0:	9cd58904 	addi	r19,r19,22052
  8018d4:	dc800215 	stw	r18,8(sp)
  8018d8:	dc400115 	stw	r17,4(sp)
  8018dc:	dc000015 	stw	r16,0(sp)
  8018e0:	2823883a 	mov	r17,r5
  8018e4:	2025883a 	mov	r18,r4
  8018e8:	dfc00415 	stw	ra,16(sp)
  8018ec:	0810d780 	call	810d78 <__malloc_lock>
  8018f0:	98800217 	ldw	r2,8(r19)
  8018f4:	9009883a 	mov	r4,r18
  8018f8:	000b883a 	mov	r5,zero
  8018fc:	10c00117 	ldw	r3,4(r2)
  801900:	00bfff04 	movi	r2,-4
  801904:	18a0703a 	and	r16,r3,r2
  801908:	8463c83a 	sub	r17,r16,r17
  80190c:	8c43fbc4 	addi	r17,r17,4079
  801910:	8822d33a 	srli	r17,r17,12
  801914:	0083ffc4 	movi	r2,4095
  801918:	8c7fffc4 	addi	r17,r17,-1
  80191c:	8822933a 	slli	r17,r17,12
  801920:	1440060e 	bge	r2,r17,80193c <_malloc_trim_r+0x78>
  801924:	0803ce80 	call	803ce8 <_sbrk_r>
  801928:	98c00217 	ldw	r3,8(r19)
  80192c:	9009883a 	mov	r4,r18
  801930:	044bc83a 	sub	r5,zero,r17
  801934:	80c7883a 	add	r3,r16,r3
  801938:	10c00926 	beq	r2,r3,801960 <_malloc_trim_r+0x9c>
  80193c:	0810d980 	call	810d98 <__malloc_unlock>
  801940:	0005883a 	mov	r2,zero
  801944:	dfc00417 	ldw	ra,16(sp)
  801948:	dcc00317 	ldw	r19,12(sp)
  80194c:	dc800217 	ldw	r18,8(sp)
  801950:	dc400117 	ldw	r17,4(sp)
  801954:	dc000017 	ldw	r16,0(sp)
  801958:	dec00504 	addi	sp,sp,20
  80195c:	f800283a 	ret
  801960:	9009883a 	mov	r4,r18
  801964:	0803ce80 	call	803ce8 <_sbrk_r>
  801968:	844dc83a 	sub	r6,r16,r17
  80196c:	00ffffc4 	movi	r3,-1
  801970:	9009883a 	mov	r4,r18
  801974:	000b883a 	mov	r5,zero
  801978:	01c020b4 	movhi	r7,130
  80197c:	39e30604 	addi	r7,r7,-29672
  801980:	31800054 	ori	r6,r6,1
  801984:	10c00926 	beq	r2,r3,8019ac <_malloc_trim_r+0xe8>
  801988:	38800017 	ldw	r2,0(r7)
  80198c:	98c00217 	ldw	r3,8(r19)
  801990:	9009883a 	mov	r4,r18
  801994:	1445c83a 	sub	r2,r2,r17
  801998:	38800015 	stw	r2,0(r7)
  80199c:	19800115 	stw	r6,4(r3)
  8019a0:	0810d980 	call	810d98 <__malloc_unlock>
  8019a4:	00800044 	movi	r2,1
  8019a8:	003fe606 	br	801944 <_malloc_trim_r+0x80>
  8019ac:	0803ce80 	call	803ce8 <_sbrk_r>
  8019b0:	99800217 	ldw	r6,8(r19)
  8019b4:	100f883a 	mov	r7,r2
  8019b8:	9009883a 	mov	r4,r18
  8019bc:	1187c83a 	sub	r3,r2,r6
  8019c0:	008003c4 	movi	r2,15
  8019c4:	19400054 	ori	r5,r3,1
  8019c8:	10ffdc0e 	bge	r2,r3,80193c <_malloc_trim_r+0x78>
  8019cc:	00802074 	movhi	r2,129
  8019d0:	109b9a04 	addi	r2,r2,28264
  8019d4:	10c00017 	ldw	r3,0(r2)
  8019d8:	008020b4 	movhi	r2,130
  8019dc:	10a30604 	addi	r2,r2,-29672
  8019e0:	31400115 	stw	r5,4(r6)
  8019e4:	38c7c83a 	sub	r3,r7,r3
  8019e8:	10c00015 	stw	r3,0(r2)
  8019ec:	003fd306 	br	80193c <_malloc_trim_r+0x78>

008019f0 <_free_r>:
  8019f0:	defffd04 	addi	sp,sp,-12
  8019f4:	dc400115 	stw	r17,4(sp)
  8019f8:	dc000015 	stw	r16,0(sp)
  8019fc:	dfc00215 	stw	ra,8(sp)
  801a00:	2821883a 	mov	r16,r5
  801a04:	2023883a 	mov	r17,r4
  801a08:	28005a26 	beq	r5,zero,801b74 <_free_r+0x184>
  801a0c:	0810d780 	call	810d78 <__malloc_lock>
  801a10:	823ffe04 	addi	r8,r16,-8
  801a14:	41400117 	ldw	r5,4(r8)
  801a18:	00bfff84 	movi	r2,-2
  801a1c:	02802074 	movhi	r10,129
  801a20:	52958904 	addi	r10,r10,22052
  801a24:	288e703a 	and	r7,r5,r2
  801a28:	41cd883a 	add	r6,r8,r7
  801a2c:	30c00117 	ldw	r3,4(r6)
  801a30:	51000217 	ldw	r4,8(r10)
  801a34:	00bfff04 	movi	r2,-4
  801a38:	1892703a 	and	r9,r3,r2
  801a3c:	5017883a 	mov	r11,r10
  801a40:	31006726 	beq	r6,r4,801be0 <_free_r+0x1f0>
  801a44:	2880004c 	andi	r2,r5,1
  801a48:	1005003a 	cmpeq	r2,r2,zero
  801a4c:	32400115 	stw	r9,4(r6)
  801a50:	10001a1e 	bne	r2,zero,801abc <_free_r+0xcc>
  801a54:	000b883a 	mov	r5,zero
  801a58:	3247883a 	add	r3,r6,r9
  801a5c:	18800117 	ldw	r2,4(r3)
  801a60:	1080004c 	andi	r2,r2,1
  801a64:	1000231e 	bne	r2,zero,801af4 <_free_r+0x104>
  801a68:	280ac03a 	cmpne	r5,r5,zero
  801a6c:	3a4f883a 	add	r7,r7,r9
  801a70:	2800451e 	bne	r5,zero,801b88 <_free_r+0x198>
  801a74:	31000217 	ldw	r4,8(r6)
  801a78:	00802074 	movhi	r2,129
  801a7c:	10958b04 	addi	r2,r2,22060
  801a80:	20807b26 	beq	r4,r2,801c70 <_free_r+0x280>
  801a84:	30800317 	ldw	r2,12(r6)
  801a88:	3a07883a 	add	r3,r7,r8
  801a8c:	19c00015 	stw	r7,0(r3)
  801a90:	11000215 	stw	r4,8(r2)
  801a94:	20800315 	stw	r2,12(r4)
  801a98:	38800054 	ori	r2,r7,1
  801a9c:	40800115 	stw	r2,4(r8)
  801aa0:	28001a26 	beq	r5,zero,801b0c <_free_r+0x11c>
  801aa4:	8809883a 	mov	r4,r17
  801aa8:	dfc00217 	ldw	ra,8(sp)
  801aac:	dc400117 	ldw	r17,4(sp)
  801ab0:	dc000017 	ldw	r16,0(sp)
  801ab4:	dec00304 	addi	sp,sp,12
  801ab8:	0810d981 	jmpi	810d98 <__malloc_unlock>
  801abc:	80bffe17 	ldw	r2,-8(r16)
  801ac0:	50c00204 	addi	r3,r10,8
  801ac4:	4091c83a 	sub	r8,r8,r2
  801ac8:	41000217 	ldw	r4,8(r8)
  801acc:	388f883a 	add	r7,r7,r2
  801ad0:	20c06126 	beq	r4,r3,801c58 <_free_r+0x268>
  801ad4:	40800317 	ldw	r2,12(r8)
  801ad8:	3247883a 	add	r3,r6,r9
  801adc:	000b883a 	mov	r5,zero
  801ae0:	11000215 	stw	r4,8(r2)
  801ae4:	20800315 	stw	r2,12(r4)
  801ae8:	18800117 	ldw	r2,4(r3)
  801aec:	1080004c 	andi	r2,r2,1
  801af0:	103fdd26 	beq	r2,zero,801a68 <_free_r+0x78>
  801af4:	38800054 	ori	r2,r7,1
  801af8:	3a07883a 	add	r3,r7,r8
  801afc:	280ac03a 	cmpne	r5,r5,zero
  801b00:	40800115 	stw	r2,4(r8)
  801b04:	19c00015 	stw	r7,0(r3)
  801b08:	283fe61e 	bne	r5,zero,801aa4 <_free_r+0xb4>
  801b0c:	00807fc4 	movi	r2,511
  801b10:	11c01f2e 	bgeu	r2,r7,801b90 <_free_r+0x1a0>
  801b14:	3806d27a 	srli	r3,r7,9
  801b18:	1800481e 	bne	r3,zero,801c3c <_free_r+0x24c>
  801b1c:	3804d0fa 	srli	r2,r7,3
  801b20:	100690fa 	slli	r3,r2,3
  801b24:	1acd883a 	add	r6,r3,r11
  801b28:	31400217 	ldw	r5,8(r6)
  801b2c:	31405926 	beq	r6,r5,801c94 <_free_r+0x2a4>
  801b30:	28800117 	ldw	r2,4(r5)
  801b34:	00ffff04 	movi	r3,-4
  801b38:	10c4703a 	and	r2,r2,r3
  801b3c:	3880022e 	bgeu	r7,r2,801b48 <_free_r+0x158>
  801b40:	29400217 	ldw	r5,8(r5)
  801b44:	317ffa1e 	bne	r6,r5,801b30 <_free_r+0x140>
  801b48:	29800317 	ldw	r6,12(r5)
  801b4c:	41800315 	stw	r6,12(r8)
  801b50:	41400215 	stw	r5,8(r8)
  801b54:	8809883a 	mov	r4,r17
  801b58:	2a000315 	stw	r8,12(r5)
  801b5c:	32000215 	stw	r8,8(r6)
  801b60:	dfc00217 	ldw	ra,8(sp)
  801b64:	dc400117 	ldw	r17,4(sp)
  801b68:	dc000017 	ldw	r16,0(sp)
  801b6c:	dec00304 	addi	sp,sp,12
  801b70:	0810d981 	jmpi	810d98 <__malloc_unlock>
  801b74:	dfc00217 	ldw	ra,8(sp)
  801b78:	dc400117 	ldw	r17,4(sp)
  801b7c:	dc000017 	ldw	r16,0(sp)
  801b80:	dec00304 	addi	sp,sp,12
  801b84:	f800283a 	ret
  801b88:	31000217 	ldw	r4,8(r6)
  801b8c:	003fbd06 	br	801a84 <_free_r+0x94>
  801b90:	3806d0fa 	srli	r3,r7,3
  801b94:	00800044 	movi	r2,1
  801b98:	51400117 	ldw	r5,4(r10)
  801b9c:	180890fa 	slli	r4,r3,3
  801ba0:	1807d0ba 	srai	r3,r3,2
  801ba4:	22c9883a 	add	r4,r4,r11
  801ba8:	21800217 	ldw	r6,8(r4)
  801bac:	10c4983a 	sll	r2,r2,r3
  801bb0:	41000315 	stw	r4,12(r8)
  801bb4:	41800215 	stw	r6,8(r8)
  801bb8:	288ab03a 	or	r5,r5,r2
  801bbc:	22000215 	stw	r8,8(r4)
  801bc0:	8809883a 	mov	r4,r17
  801bc4:	51400115 	stw	r5,4(r10)
  801bc8:	32000315 	stw	r8,12(r6)
  801bcc:	dfc00217 	ldw	ra,8(sp)
  801bd0:	dc400117 	ldw	r17,4(sp)
  801bd4:	dc000017 	ldw	r16,0(sp)
  801bd8:	dec00304 	addi	sp,sp,12
  801bdc:	0810d981 	jmpi	810d98 <__malloc_unlock>
  801be0:	2880004c 	andi	r2,r5,1
  801be4:	3a4d883a 	add	r6,r7,r9
  801be8:	1000071e 	bne	r2,zero,801c08 <_free_r+0x218>
  801bec:	80bffe17 	ldw	r2,-8(r16)
  801bf0:	4091c83a 	sub	r8,r8,r2
  801bf4:	41000317 	ldw	r4,12(r8)
  801bf8:	40c00217 	ldw	r3,8(r8)
  801bfc:	308d883a 	add	r6,r6,r2
  801c00:	20c00215 	stw	r3,8(r4)
  801c04:	19000315 	stw	r4,12(r3)
  801c08:	00802074 	movhi	r2,129
  801c0c:	109b9904 	addi	r2,r2,28260
  801c10:	11000017 	ldw	r4,0(r2)
  801c14:	30c00054 	ori	r3,r6,1
  801c18:	52000215 	stw	r8,8(r10)
  801c1c:	40c00115 	stw	r3,4(r8)
  801c20:	313fa036 	bltu	r6,r4,801aa4 <_free_r+0xb4>
  801c24:	008020b4 	movhi	r2,130
  801c28:	10a2ee04 	addi	r2,r2,-29768
  801c2c:	11400017 	ldw	r5,0(r2)
  801c30:	8809883a 	mov	r4,r17
  801c34:	08018c40 	call	8018c4 <_malloc_trim_r>
  801c38:	003f9a06 	br	801aa4 <_free_r+0xb4>
  801c3c:	00800104 	movi	r2,4
  801c40:	10c0072e 	bgeu	r2,r3,801c60 <_free_r+0x270>
  801c44:	00800504 	movi	r2,20
  801c48:	10c01936 	bltu	r2,r3,801cb0 <_free_r+0x2c0>
  801c4c:	188016c4 	addi	r2,r3,91
  801c50:	100690fa 	slli	r3,r2,3
  801c54:	003fb306 	br	801b24 <_free_r+0x134>
  801c58:	01400044 	movi	r5,1
  801c5c:	003f7e06 	br	801a58 <_free_r+0x68>
  801c60:	3804d1ba 	srli	r2,r7,6
  801c64:	10800e04 	addi	r2,r2,56
  801c68:	100690fa 	slli	r3,r2,3
  801c6c:	003fad06 	br	801b24 <_free_r+0x134>
  801c70:	22000315 	stw	r8,12(r4)
  801c74:	22000215 	stw	r8,8(r4)
  801c78:	3a05883a 	add	r2,r7,r8
  801c7c:	38c00054 	ori	r3,r7,1
  801c80:	11c00015 	stw	r7,0(r2)
  801c84:	41000215 	stw	r4,8(r8)
  801c88:	40c00115 	stw	r3,4(r8)
  801c8c:	41000315 	stw	r4,12(r8)
  801c90:	003f8406 	br	801aa4 <_free_r+0xb4>
  801c94:	1005d0ba 	srai	r2,r2,2
  801c98:	00c00044 	movi	r3,1
  801c9c:	51000117 	ldw	r4,4(r10)
  801ca0:	1886983a 	sll	r3,r3,r2
  801ca4:	20c8b03a 	or	r4,r4,r3
  801ca8:	51000115 	stw	r4,4(r10)
  801cac:	003fa706 	br	801b4c <_free_r+0x15c>
  801cb0:	00801504 	movi	r2,84
  801cb4:	10c00436 	bltu	r2,r3,801cc8 <_free_r+0x2d8>
  801cb8:	3804d33a 	srli	r2,r7,12
  801cbc:	10801b84 	addi	r2,r2,110
  801cc0:	100690fa 	slli	r3,r2,3
  801cc4:	003f9706 	br	801b24 <_free_r+0x134>
  801cc8:	00805504 	movi	r2,340
  801ccc:	10c00436 	bltu	r2,r3,801ce0 <_free_r+0x2f0>
  801cd0:	3804d3fa 	srli	r2,r7,15
  801cd4:	10801dc4 	addi	r2,r2,119
  801cd8:	100690fa 	slli	r3,r2,3
  801cdc:	003f9106 	br	801b24 <_free_r+0x134>
  801ce0:	00815504 	movi	r2,1364
  801ce4:	10c0032e 	bgeu	r2,r3,801cf4 <_free_r+0x304>
  801ce8:	00801f84 	movi	r2,126
  801cec:	00c0fc04 	movi	r3,1008
  801cf0:	003f8c06 	br	801b24 <_free_r+0x134>
  801cf4:	3804d4ba 	srli	r2,r7,18
  801cf8:	10801f04 	addi	r2,r2,124
  801cfc:	100690fa 	slli	r3,r2,3
  801d00:	003f8806 	br	801b24 <_free_r+0x134>

00801d04 <_fseek_r>:
  801d04:	deffe804 	addi	sp,sp,-96
  801d08:	dd801515 	stw	r22,84(sp)
  801d0c:	dcc01215 	stw	r19,72(sp)
  801d10:	dc801115 	stw	r18,68(sp)
  801d14:	dc000f15 	stw	r16,60(sp)
  801d18:	dfc01715 	stw	ra,92(sp)
  801d1c:	ddc01615 	stw	r23,88(sp)
  801d20:	dd401415 	stw	r21,80(sp)
  801d24:	dd001315 	stw	r20,76(sp)
  801d28:	dc401015 	stw	r17,64(sp)
  801d2c:	2025883a 	mov	r18,r4
  801d30:	2821883a 	mov	r16,r5
  801d34:	302d883a 	mov	r22,r6
  801d38:	3827883a 	mov	r19,r7
  801d3c:	20000226 	beq	r4,zero,801d48 <_fseek_r+0x44>
  801d40:	20800e17 	ldw	r2,56(r4)
  801d44:	10007826 	beq	r2,zero,801f28 <_fseek_r+0x224>
  801d48:	8080030b 	ldhu	r2,12(r16)
  801d4c:	00c04204 	movi	r3,264
  801d50:	1080420c 	andi	r2,r2,264
  801d54:	10c07926 	beq	r2,r3,801f3c <_fseek_r+0x238>
  801d58:	85400a17 	ldw	r21,40(r16)
  801d5c:	a800ea26 	beq	r21,zero,802108 <_fseek_r+0x404>
  801d60:	00800044 	movi	r2,1
  801d64:	98805f26 	beq	r19,r2,801ee4 <_fseek_r+0x1e0>
  801d68:	00800084 	movi	r2,2
  801d6c:	98801026 	beq	r19,r2,801db0 <_fseek_r+0xac>
  801d70:	98000f26 	beq	r19,zero,801db0 <_fseek_r+0xac>
  801d74:	00800584 	movi	r2,22
  801d78:	013fffc4 	movi	r4,-1
  801d7c:	90800015 	stw	r2,0(r18)
  801d80:	2005883a 	mov	r2,r4
  801d84:	dfc01717 	ldw	ra,92(sp)
  801d88:	ddc01617 	ldw	r23,88(sp)
  801d8c:	dd801517 	ldw	r22,84(sp)
  801d90:	dd401417 	ldw	r21,80(sp)
  801d94:	dd001317 	ldw	r20,76(sp)
  801d98:	dcc01217 	ldw	r19,72(sp)
  801d9c:	dc801117 	ldw	r18,68(sp)
  801da0:	dc401017 	ldw	r17,64(sp)
  801da4:	dc000f17 	ldw	r16,60(sp)
  801da8:	dec01804 	addi	sp,sp,96
  801dac:	f800283a 	ret
  801db0:	81800417 	ldw	r6,16(r16)
  801db4:	0023883a 	mov	r17,zero
  801db8:	002f883a 	mov	r23,zero
  801dbc:	3000a626 	beq	r6,zero,802058 <_fseek_r+0x354>
  801dc0:	8100030b 	ldhu	r4,12(r16)
  801dc4:	2082068c 	andi	r2,r4,2074
  801dc8:	1000081e 	bne	r2,zero,801dec <_fseek_r+0xe8>
  801dcc:	2081000c 	andi	r2,r4,1024
  801dd0:	10001b1e 	bne	r2,zero,801e40 <_fseek_r+0x13c>
  801dd4:	00802034 	movhi	r2,128
  801dd8:	108fd204 	addi	r2,r2,16200
  801ddc:	a8800926 	beq	r21,r2,801e04 <_fseek_r+0x100>
  801de0:	8080030b 	ldhu	r2,12(r16)
  801de4:	10820014 	ori	r2,r2,2048
  801de8:	8080030d 	sth	r2,12(r16)
  801dec:	9009883a 	mov	r4,r18
  801df0:	800b883a 	mov	r5,r16
  801df4:	08010ac0 	call	8010ac <_fflush_r>
  801df8:	1000a326 	beq	r2,zero,802088 <_fseek_r+0x384>
  801dfc:	013fffc4 	movi	r4,-1
  801e00:	003fdf06 	br	801d80 <_fseek_r+0x7c>
  801e04:	8140038f 	ldh	r5,14(r16)
  801e08:	283ff516 	blt	r5,zero,801de0 <_fseek_r+0xdc>
  801e0c:	9009883a 	mov	r4,r18
  801e10:	d80d883a 	mov	r6,sp
  801e14:	08021640 	call	802164 <_fstat_r>
  801e18:	103ff11e 	bne	r2,zero,801de0 <_fseek_r+0xdc>
  801e1c:	d8800117 	ldw	r2,4(sp)
  801e20:	00e00014 	movui	r3,32768
  801e24:	10bc000c 	andi	r2,r2,61440
  801e28:	10ffed1e 	bne	r2,r3,801de0 <_fseek_r+0xdc>
  801e2c:	80c0030b 	ldhu	r3,12(r16)
  801e30:	00810004 	movi	r2,1024
  801e34:	80801315 	stw	r2,76(r16)
  801e38:	1886b03a 	or	r3,r3,r2
  801e3c:	80c0030d 	sth	r3,12(r16)
  801e40:	9800701e 	bne	r19,zero,802004 <_fseek_r+0x300>
  801e44:	b029883a 	mov	r20,r22
  801e48:	b804c03a 	cmpne	r2,r23,zero
  801e4c:	10003f1e 	bne	r2,zero,801f4c <_fseek_r+0x248>
  801e50:	8100030b 	ldhu	r4,12(r16)
  801e54:	2084000c 	andi	r2,r4,4096
  801e58:	1000a126 	beq	r2,zero,8020e0 <_fseek_r+0x3dc>
  801e5c:	81801417 	ldw	r6,80(r16)
  801e60:	80c00117 	ldw	r3,4(r16)
  801e64:	81400c17 	ldw	r5,48(r16)
  801e68:	30e3c83a 	sub	r17,r6,r3
  801e6c:	28008026 	beq	r5,zero,802070 <_fseek_r+0x36c>
  801e70:	81c00f17 	ldw	r7,60(r16)
  801e74:	89e3c83a 	sub	r17,r17,r7
  801e78:	80800e17 	ldw	r2,56(r16)
  801e7c:	81800417 	ldw	r6,16(r16)
  801e80:	88c7883a 	add	r3,r17,r3
  801e84:	1185c83a 	sub	r2,r2,r6
  801e88:	11cf883a 	add	r7,r2,r7
  801e8c:	1887c83a 	sub	r3,r3,r2
  801e90:	2088000c 	andi	r2,r4,8192
  801e94:	10003e1e 	bne	r2,zero,801f90 <_fseek_r+0x28c>
  801e98:	a0c03d16 	blt	r20,r3,801f90 <_fseek_r+0x28c>
  801e9c:	38c5883a 	add	r2,r7,r3
  801ea0:	a0803b2e 	bgeu	r20,r2,801f90 <_fseek_r+0x28c>
  801ea4:	a0c5c83a 	sub	r2,r20,r3
  801ea8:	3887c83a 	sub	r3,r7,r2
  801eac:	3085883a 	add	r2,r6,r2
  801eb0:	80800015 	stw	r2,0(r16)
  801eb4:	80c00115 	stw	r3,4(r16)
  801eb8:	28000526 	beq	r5,zero,801ed0 <_fseek_r+0x1cc>
  801ebc:	80801004 	addi	r2,r16,64
  801ec0:	28800226 	beq	r5,r2,801ecc <_fseek_r+0x1c8>
  801ec4:	9009883a 	mov	r4,r18
  801ec8:	08019f00 	call	8019f0 <_free_r>
  801ecc:	80000c15 	stw	zero,48(r16)
  801ed0:	8080030b 	ldhu	r2,12(r16)
  801ed4:	0009883a 	mov	r4,zero
  801ed8:	10bff7cc 	andi	r2,r2,65503
  801edc:	8080030d 	sth	r2,12(r16)
  801ee0:	003fa706 	br	801d80 <_fseek_r+0x7c>
  801ee4:	9009883a 	mov	r4,r18
  801ee8:	800b883a 	mov	r5,r16
  801eec:	08010ac0 	call	8010ac <_fflush_r>
  801ef0:	8100030b 	ldhu	r4,12(r16)
  801ef4:	2084000c 	andi	r2,r4,4096
  801ef8:	10008726 	beq	r2,zero,802118 <_fseek_r+0x414>
  801efc:	84401417 	ldw	r17,80(r16)
  801f00:	2080010c 	andi	r2,r4,4
  801f04:	1000171e 	bne	r2,zero,801f64 <_fseek_r+0x260>
  801f08:	2080020c 	andi	r2,r4,8
  801f0c:	10003b26 	beq	r2,zero,801ffc <_fseek_r+0x2f8>
  801f10:	80800017 	ldw	r2,0(r16)
  801f14:	10003926 	beq	r2,zero,801ffc <_fseek_r+0x2f8>
  801f18:	81800417 	ldw	r6,16(r16)
  801f1c:	1185c83a 	sub	r2,r2,r6
  801f20:	88a3883a 	add	r17,r17,r2
  801f24:	00001606 	br	801f80 <_fseek_r+0x27c>
  801f28:	080146c0 	call	80146c <__sinit>
  801f2c:	8080030b 	ldhu	r2,12(r16)
  801f30:	00c04204 	movi	r3,264
  801f34:	1080420c 	andi	r2,r2,264
  801f38:	10ff871e 	bne	r2,r3,801d58 <_fseek_r+0x54>
  801f3c:	9009883a 	mov	r4,r18
  801f40:	800b883a 	mov	r5,r16
  801f44:	08010ac0 	call	8010ac <_fflush_r>
  801f48:	003f8306 	br	801d58 <_fseek_r+0x54>
  801f4c:	81400c17 	ldw	r5,48(r16)
  801f50:	28004526 	beq	r5,zero,802068 <_fseek_r+0x364>
  801f54:	8100030b 	ldhu	r4,12(r16)
  801f58:	80c00117 	ldw	r3,4(r16)
  801f5c:	81c00f17 	ldw	r7,60(r16)
  801f60:	003fc506 	br	801e78 <_fseek_r+0x174>
  801f64:	80c00117 	ldw	r3,4(r16)
  801f68:	80800c17 	ldw	r2,48(r16)
  801f6c:	88e3c83a 	sub	r17,r17,r3
  801f70:	10002226 	beq	r2,zero,801ffc <_fseek_r+0x2f8>
  801f74:	81c00f17 	ldw	r7,60(r16)
  801f78:	81800417 	ldw	r6,16(r16)
  801f7c:	89e3c83a 	sub	r17,r17,r7
  801f80:	b46d883a 	add	r22,r22,r17
  801f84:	0027883a 	mov	r19,zero
  801f88:	05c00044 	movi	r23,1
  801f8c:	003f8b06 	br	801dbc <_fseek_r+0xb8>
  801f90:	80801317 	ldw	r2,76(r16)
  801f94:	81400717 	ldw	r5,28(r16)
  801f98:	9009883a 	mov	r4,r18
  801f9c:	0085c83a 	sub	r2,zero,r2
  801fa0:	a0a2703a 	and	r17,r20,r2
  801fa4:	880d883a 	mov	r6,r17
  801fa8:	000f883a 	mov	r7,zero
  801fac:	a83ee83a 	callr	r21
  801fb0:	00ffffc4 	movi	r3,-1
  801fb4:	10ff8d26 	beq	r2,r3,801dec <_fseek_r+0xe8>
  801fb8:	80800417 	ldw	r2,16(r16)
  801fbc:	81400c17 	ldw	r5,48(r16)
  801fc0:	80000115 	stw	zero,4(r16)
  801fc4:	80800015 	stw	r2,0(r16)
  801fc8:	28000526 	beq	r5,zero,801fe0 <_fseek_r+0x2dc>
  801fcc:	80801004 	addi	r2,r16,64
  801fd0:	28800226 	beq	r5,r2,801fdc <_fseek_r+0x2d8>
  801fd4:	9009883a 	mov	r4,r18
  801fd8:	08019f00 	call	8019f0 <_free_r>
  801fdc:	80000c15 	stw	zero,48(r16)
  801fe0:	8080030b 	ldhu	r2,12(r16)
  801fe4:	a463c83a 	sub	r17,r20,r17
  801fe8:	10bff7cc 	andi	r2,r2,65503
  801fec:	8080030d 	sth	r2,12(r16)
  801ff0:	88000c1e 	bne	r17,zero,802024 <_fseek_r+0x320>
  801ff4:	0009883a 	mov	r4,zero
  801ff8:	003f6106 	br	801d80 <_fseek_r+0x7c>
  801ffc:	81800417 	ldw	r6,16(r16)
  802000:	003fdf06 	br	801f80 <_fseek_r+0x27c>
  802004:	8140038f 	ldh	r5,14(r16)
  802008:	9009883a 	mov	r4,r18
  80200c:	d80d883a 	mov	r6,sp
  802010:	08021640 	call	802164 <_fstat_r>
  802014:	103f751e 	bne	r2,zero,801dec <_fseek_r+0xe8>
  802018:	d8800417 	ldw	r2,16(sp)
  80201c:	b0a9883a 	add	r20,r22,r2
  802020:	003f8906 	br	801e48 <_fseek_r+0x144>
  802024:	9009883a 	mov	r4,r18
  802028:	800b883a 	mov	r5,r16
  80202c:	0803aa80 	call	803aa8 <__srefill_r>
  802030:	103f6e1e 	bne	r2,zero,801dec <_fseek_r+0xe8>
  802034:	80c00117 	ldw	r3,4(r16)
  802038:	1c7f6c36 	bltu	r3,r17,801dec <_fseek_r+0xe8>
  80203c:	80800017 	ldw	r2,0(r16)
  802040:	1c47c83a 	sub	r3,r3,r17
  802044:	0009883a 	mov	r4,zero
  802048:	1445883a 	add	r2,r2,r17
  80204c:	80c00115 	stw	r3,4(r16)
  802050:	80800015 	stw	r2,0(r16)
  802054:	003f4a06 	br	801d80 <_fseek_r+0x7c>
  802058:	9009883a 	mov	r4,r18
  80205c:	800b883a 	mov	r5,r16
  802060:	08027f40 	call	8027f4 <__smakebuf_r>
  802064:	003f5606 	br	801dc0 <_fseek_r+0xbc>
  802068:	8100030b 	ldhu	r4,12(r16)
  80206c:	80c00117 	ldw	r3,4(r16)
  802070:	80800017 	ldw	r2,0(r16)
  802074:	81800417 	ldw	r6,16(r16)
  802078:	1185c83a 	sub	r2,r2,r6
  80207c:	10cf883a 	add	r7,r2,r3
  802080:	8887c83a 	sub	r3,r17,r2
  802084:	003f8206 	br	801e90 <_fseek_r+0x18c>
  802088:	81400717 	ldw	r5,28(r16)
  80208c:	b00d883a 	mov	r6,r22
  802090:	980f883a 	mov	r7,r19
  802094:	9009883a 	mov	r4,r18
  802098:	a83ee83a 	callr	r21
  80209c:	00ffffc4 	movi	r3,-1
  8020a0:	10ff5626 	beq	r2,r3,801dfc <_fseek_r+0xf8>
  8020a4:	81400c17 	ldw	r5,48(r16)
  8020a8:	28000526 	beq	r5,zero,8020c0 <_fseek_r+0x3bc>
  8020ac:	80801004 	addi	r2,r16,64
  8020b0:	28800226 	beq	r5,r2,8020bc <_fseek_r+0x3b8>
  8020b4:	9009883a 	mov	r4,r18
  8020b8:	08019f00 	call	8019f0 <_free_r>
  8020bc:	80000c15 	stw	zero,48(r16)
  8020c0:	8080030b 	ldhu	r2,12(r16)
  8020c4:	80c00417 	ldw	r3,16(r16)
  8020c8:	0009883a 	mov	r4,zero
  8020cc:	10bdf7cc 	andi	r2,r2,63455
  8020d0:	8080030d 	sth	r2,12(r16)
  8020d4:	80c00015 	stw	r3,0(r16)
  8020d8:	80000115 	stw	zero,4(r16)
  8020dc:	003f2806 	br	801d80 <_fseek_r+0x7c>
  8020e0:	81400717 	ldw	r5,28(r16)
  8020e4:	000d883a 	mov	r6,zero
  8020e8:	9009883a 	mov	r4,r18
  8020ec:	01c00044 	movi	r7,1
  8020f0:	a83ee83a 	callr	r21
  8020f4:	100d883a 	mov	r6,r2
  8020f8:	00bfffc4 	movi	r2,-1
  8020fc:	30bf3b26 	beq	r6,r2,801dec <_fseek_r+0xe8>
  802100:	8100030b 	ldhu	r4,12(r16)
  802104:	003f5606 	br	801e60 <_fseek_r+0x15c>
  802108:	00800744 	movi	r2,29
  80210c:	013fffc4 	movi	r4,-1
  802110:	90800015 	stw	r2,0(r18)
  802114:	003f1a06 	br	801d80 <_fseek_r+0x7c>
  802118:	81400717 	ldw	r5,28(r16)
  80211c:	980f883a 	mov	r7,r19
  802120:	9009883a 	mov	r4,r18
  802124:	000d883a 	mov	r6,zero
  802128:	a83ee83a 	callr	r21
  80212c:	1023883a 	mov	r17,r2
  802130:	00bfffc4 	movi	r2,-1
  802134:	88bf3126 	beq	r17,r2,801dfc <_fseek_r+0xf8>
  802138:	8100030b 	ldhu	r4,12(r16)
  80213c:	003f7006 	br	801f00 <_fseek_r+0x1fc>

00802140 <fseek>:
  802140:	00802074 	movhi	r2,129
  802144:	109b9704 	addi	r2,r2,28252
  802148:	2013883a 	mov	r9,r4
  80214c:	11000017 	ldw	r4,0(r2)
  802150:	2805883a 	mov	r2,r5
  802154:	300f883a 	mov	r7,r6
  802158:	480b883a 	mov	r5,r9
  80215c:	100d883a 	mov	r6,r2
  802160:	0801d041 	jmpi	801d04 <_fseek_r>

00802164 <_fstat_r>:
  802164:	defffd04 	addi	sp,sp,-12
  802168:	dc000015 	stw	r16,0(sp)
  80216c:	040020b4 	movhi	r16,130
  802170:	8422ed04 	addi	r16,r16,-29772
  802174:	dc400115 	stw	r17,4(sp)
  802178:	80000015 	stw	zero,0(r16)
  80217c:	2023883a 	mov	r17,r4
  802180:	2809883a 	mov	r4,r5
  802184:	300b883a 	mov	r5,r6
  802188:	dfc00215 	stw	ra,8(sp)
  80218c:	08106bc0 	call	8106bc <fstat>
  802190:	1007883a 	mov	r3,r2
  802194:	00bfffc4 	movi	r2,-1
  802198:	18800626 	beq	r3,r2,8021b4 <_fstat_r+0x50>
  80219c:	1805883a 	mov	r2,r3
  8021a0:	dfc00217 	ldw	ra,8(sp)
  8021a4:	dc400117 	ldw	r17,4(sp)
  8021a8:	dc000017 	ldw	r16,0(sp)
  8021ac:	dec00304 	addi	sp,sp,12
  8021b0:	f800283a 	ret
  8021b4:	80800017 	ldw	r2,0(r16)
  8021b8:	103ff826 	beq	r2,zero,80219c <_fstat_r+0x38>
  8021bc:	88800015 	stw	r2,0(r17)
  8021c0:	1805883a 	mov	r2,r3
  8021c4:	dfc00217 	ldw	ra,8(sp)
  8021c8:	dc400117 	ldw	r17,4(sp)
  8021cc:	dc000017 	ldw	r16,0(sp)
  8021d0:	dec00304 	addi	sp,sp,12
  8021d4:	f800283a 	ret

008021d8 <__sfvwrite_r>:
  8021d8:	30800217 	ldw	r2,8(r6)
  8021dc:	defff504 	addi	sp,sp,-44
  8021e0:	df000915 	stw	fp,36(sp)
  8021e4:	dd800715 	stw	r22,28(sp)
  8021e8:	dc800315 	stw	r18,12(sp)
  8021ec:	dfc00a15 	stw	ra,40(sp)
  8021f0:	ddc00815 	stw	r23,32(sp)
  8021f4:	dd400615 	stw	r21,24(sp)
  8021f8:	dd000515 	stw	r20,20(sp)
  8021fc:	dcc00415 	stw	r19,16(sp)
  802200:	dc400215 	stw	r17,8(sp)
  802204:	dc000115 	stw	r16,4(sp)
  802208:	302d883a 	mov	r22,r6
  80220c:	2039883a 	mov	fp,r4
  802210:	2825883a 	mov	r18,r5
  802214:	10001c26 	beq	r2,zero,802288 <__sfvwrite_r+0xb0>
  802218:	29c0030b 	ldhu	r7,12(r5)
  80221c:	3880020c 	andi	r2,r7,8
  802220:	10002726 	beq	r2,zero,8022c0 <__sfvwrite_r+0xe8>
  802224:	28800417 	ldw	r2,16(r5)
  802228:	10002526 	beq	r2,zero,8022c0 <__sfvwrite_r+0xe8>
  80222c:	3880008c 	andi	r2,r7,2
  802230:	b5400017 	ldw	r21,0(r22)
  802234:	10002826 	beq	r2,zero,8022d8 <__sfvwrite_r+0x100>
  802238:	0021883a 	mov	r16,zero
  80223c:	0023883a 	mov	r17,zero
  802240:	880d883a 	mov	r6,r17
  802244:	e009883a 	mov	r4,fp
  802248:	00810004 	movi	r2,1024
  80224c:	80006e26 	beq	r16,zero,802408 <__sfvwrite_r+0x230>
  802250:	800f883a 	mov	r7,r16
  802254:	91400717 	ldw	r5,28(r18)
  802258:	1400012e 	bgeu	r2,r16,802260 <__sfvwrite_r+0x88>
  80225c:	100f883a 	mov	r7,r2
  802260:	90c00917 	ldw	r3,36(r18)
  802264:	183ee83a 	callr	r3
  802268:	1007883a 	mov	r3,r2
  80226c:	80a1c83a 	sub	r16,r16,r2
  802270:	88a3883a 	add	r17,r17,r2
  802274:	00806d0e 	bge	zero,r2,80242c <__sfvwrite_r+0x254>
  802278:	b0800217 	ldw	r2,8(r22)
  80227c:	10c5c83a 	sub	r2,r2,r3
  802280:	b0800215 	stw	r2,8(r22)
  802284:	103fee1e 	bne	r2,zero,802240 <__sfvwrite_r+0x68>
  802288:	0009883a 	mov	r4,zero
  80228c:	2005883a 	mov	r2,r4
  802290:	dfc00a17 	ldw	ra,40(sp)
  802294:	df000917 	ldw	fp,36(sp)
  802298:	ddc00817 	ldw	r23,32(sp)
  80229c:	dd800717 	ldw	r22,28(sp)
  8022a0:	dd400617 	ldw	r21,24(sp)
  8022a4:	dd000517 	ldw	r20,20(sp)
  8022a8:	dcc00417 	ldw	r19,16(sp)
  8022ac:	dc800317 	ldw	r18,12(sp)
  8022b0:	dc400217 	ldw	r17,8(sp)
  8022b4:	dc000117 	ldw	r16,4(sp)
  8022b8:	dec00b04 	addi	sp,sp,44
  8022bc:	f800283a 	ret
  8022c0:	08078200 	call	807820 <__swsetup_r>
  8022c4:	1000e41e 	bne	r2,zero,802658 <__sfvwrite_r+0x480>
  8022c8:	91c0030b 	ldhu	r7,12(r18)
  8022cc:	b5400017 	ldw	r21,0(r22)
  8022d0:	3880008c 	andi	r2,r7,2
  8022d4:	103fd81e 	bne	r2,zero,802238 <__sfvwrite_r+0x60>
  8022d8:	3880004c 	andi	r2,r7,1
  8022dc:	1005003a 	cmpeq	r2,r2,zero
  8022e0:	10005726 	beq	r2,zero,802440 <__sfvwrite_r+0x268>
  8022e4:	0029883a 	mov	r20,zero
  8022e8:	002f883a 	mov	r23,zero
  8022ec:	a0004226 	beq	r20,zero,8023f8 <__sfvwrite_r+0x220>
  8022f0:	3880800c 	andi	r2,r7,512
  8022f4:	94000217 	ldw	r16,8(r18)
  8022f8:	10008b26 	beq	r2,zero,802528 <__sfvwrite_r+0x350>
  8022fc:	800d883a 	mov	r6,r16
  802300:	a400a536 	bltu	r20,r16,802598 <__sfvwrite_r+0x3c0>
  802304:	3881200c 	andi	r2,r7,1152
  802308:	10002726 	beq	r2,zero,8023a8 <__sfvwrite_r+0x1d0>
  80230c:	90800517 	ldw	r2,20(r18)
  802310:	92000417 	ldw	r8,16(r18)
  802314:	91400017 	ldw	r5,0(r18)
  802318:	1087883a 	add	r3,r2,r2
  80231c:	1887883a 	add	r3,r3,r2
  802320:	1808d7fa 	srli	r4,r3,31
  802324:	2a21c83a 	sub	r16,r5,r8
  802328:	80800044 	addi	r2,r16,1
  80232c:	20c9883a 	add	r4,r4,r3
  802330:	2027d07a 	srai	r19,r4,1
  802334:	a085883a 	add	r2,r20,r2
  802338:	980d883a 	mov	r6,r19
  80233c:	9880022e 	bgeu	r19,r2,802348 <__sfvwrite_r+0x170>
  802340:	1027883a 	mov	r19,r2
  802344:	100d883a 	mov	r6,r2
  802348:	3881000c 	andi	r2,r7,1024
  80234c:	1000b826 	beq	r2,zero,802630 <__sfvwrite_r+0x458>
  802350:	300b883a 	mov	r5,r6
  802354:	e009883a 	mov	r4,fp
  802358:	08029880 	call	802988 <_malloc_r>
  80235c:	10003126 	beq	r2,zero,802424 <__sfvwrite_r+0x24c>
  802360:	91400417 	ldw	r5,16(r18)
  802364:	1009883a 	mov	r4,r2
  802368:	800d883a 	mov	r6,r16
  80236c:	1023883a 	mov	r17,r2
  802370:	08031ac0 	call	8031ac <memcpy>
  802374:	90c0030b 	ldhu	r3,12(r18)
  802378:	00beffc4 	movi	r2,-1025
  80237c:	1886703a 	and	r3,r3,r2
  802380:	18c02014 	ori	r3,r3,128
  802384:	90c0030d 	sth	r3,12(r18)
  802388:	9c07c83a 	sub	r3,r19,r16
  80238c:	8c05883a 	add	r2,r17,r16
  802390:	a00d883a 	mov	r6,r20
  802394:	a021883a 	mov	r16,r20
  802398:	90800015 	stw	r2,0(r18)
  80239c:	90c00215 	stw	r3,8(r18)
  8023a0:	94400415 	stw	r17,16(r18)
  8023a4:	94c00515 	stw	r19,20(r18)
  8023a8:	91000017 	ldw	r4,0(r18)
  8023ac:	b80b883a 	mov	r5,r23
  8023b0:	a023883a 	mov	r17,r20
  8023b4:	080324c0 	call	80324c <memmove>
  8023b8:	90c00217 	ldw	r3,8(r18)
  8023bc:	90800017 	ldw	r2,0(r18)
  8023c0:	a027883a 	mov	r19,r20
  8023c4:	1c07c83a 	sub	r3,r3,r16
  8023c8:	1405883a 	add	r2,r2,r16
  8023cc:	90c00215 	stw	r3,8(r18)
  8023d0:	a021883a 	mov	r16,r20
  8023d4:	90800015 	stw	r2,0(r18)
  8023d8:	b0800217 	ldw	r2,8(r22)
  8023dc:	1405c83a 	sub	r2,r2,r16
  8023e0:	b0800215 	stw	r2,8(r22)
  8023e4:	103fa826 	beq	r2,zero,802288 <__sfvwrite_r+0xb0>
  8023e8:	a469c83a 	sub	r20,r20,r17
  8023ec:	91c0030b 	ldhu	r7,12(r18)
  8023f0:	bcef883a 	add	r23,r23,r19
  8023f4:	a03fbe1e 	bne	r20,zero,8022f0 <__sfvwrite_r+0x118>
  8023f8:	adc00017 	ldw	r23,0(r21)
  8023fc:	ad000117 	ldw	r20,4(r21)
  802400:	ad400204 	addi	r21,r21,8
  802404:	003fb906 	br	8022ec <__sfvwrite_r+0x114>
  802408:	ac400017 	ldw	r17,0(r21)
  80240c:	ac000117 	ldw	r16,4(r21)
  802410:	ad400204 	addi	r21,r21,8
  802414:	003f8a06 	br	802240 <__sfvwrite_r+0x68>
  802418:	91400417 	ldw	r5,16(r18)
  80241c:	e009883a 	mov	r4,fp
  802420:	08019f00 	call	8019f0 <_free_r>
  802424:	00800304 	movi	r2,12
  802428:	e0800015 	stw	r2,0(fp)
  80242c:	9080030b 	ldhu	r2,12(r18)
  802430:	013fffc4 	movi	r4,-1
  802434:	10801014 	ori	r2,r2,64
  802438:	9080030d 	sth	r2,12(r18)
  80243c:	003f9306 	br	80228c <__sfvwrite_r+0xb4>
  802440:	0027883a 	mov	r19,zero
  802444:	002f883a 	mov	r23,zero
  802448:	d8000015 	stw	zero,0(sp)
  80244c:	0029883a 	mov	r20,zero
  802450:	98001e26 	beq	r19,zero,8024cc <__sfvwrite_r+0x2f4>
  802454:	d8c00017 	ldw	r3,0(sp)
  802458:	1804c03a 	cmpne	r2,r3,zero
  80245c:	10005e26 	beq	r2,zero,8025d8 <__sfvwrite_r+0x400>
  802460:	9821883a 	mov	r16,r19
  802464:	a4c0012e 	bgeu	r20,r19,80246c <__sfvwrite_r+0x294>
  802468:	a021883a 	mov	r16,r20
  80246c:	91000017 	ldw	r4,0(r18)
  802470:	90800417 	ldw	r2,16(r18)
  802474:	91800217 	ldw	r6,8(r18)
  802478:	91c00517 	ldw	r7,20(r18)
  80247c:	1100022e 	bgeu	r2,r4,802488 <__sfvwrite_r+0x2b0>
  802480:	31e3883a 	add	r17,r6,r7
  802484:	8c001616 	blt	r17,r16,8024e0 <__sfvwrite_r+0x308>
  802488:	81c03816 	blt	r16,r7,80256c <__sfvwrite_r+0x394>
  80248c:	90c00917 	ldw	r3,36(r18)
  802490:	91400717 	ldw	r5,28(r18)
  802494:	e009883a 	mov	r4,fp
  802498:	b80d883a 	mov	r6,r23
  80249c:	183ee83a 	callr	r3
  8024a0:	1023883a 	mov	r17,r2
  8024a4:	00bfe10e 	bge	zero,r2,80242c <__sfvwrite_r+0x254>
  8024a8:	a469c83a 	sub	r20,r20,r17
  8024ac:	a0001826 	beq	r20,zero,802510 <__sfvwrite_r+0x338>
  8024b0:	b0800217 	ldw	r2,8(r22)
  8024b4:	1445c83a 	sub	r2,r2,r17
  8024b8:	b0800215 	stw	r2,8(r22)
  8024bc:	103f7226 	beq	r2,zero,802288 <__sfvwrite_r+0xb0>
  8024c0:	9c67c83a 	sub	r19,r19,r17
  8024c4:	bc6f883a 	add	r23,r23,r17
  8024c8:	983fe21e 	bne	r19,zero,802454 <__sfvwrite_r+0x27c>
  8024cc:	adc00017 	ldw	r23,0(r21)
  8024d0:	acc00117 	ldw	r19,4(r21)
  8024d4:	ad400204 	addi	r21,r21,8
  8024d8:	d8000015 	stw	zero,0(sp)
  8024dc:	003fdc06 	br	802450 <__sfvwrite_r+0x278>
  8024e0:	b80b883a 	mov	r5,r23
  8024e4:	880d883a 	mov	r6,r17
  8024e8:	080324c0 	call	80324c <memmove>
  8024ec:	90c00017 	ldw	r3,0(r18)
  8024f0:	e009883a 	mov	r4,fp
  8024f4:	900b883a 	mov	r5,r18
  8024f8:	1c47883a 	add	r3,r3,r17
  8024fc:	90c00015 	stw	r3,0(r18)
  802500:	08010ac0 	call	8010ac <_fflush_r>
  802504:	103fc91e 	bne	r2,zero,80242c <__sfvwrite_r+0x254>
  802508:	a469c83a 	sub	r20,r20,r17
  80250c:	a03fe81e 	bne	r20,zero,8024b0 <__sfvwrite_r+0x2d8>
  802510:	e009883a 	mov	r4,fp
  802514:	900b883a 	mov	r5,r18
  802518:	08010ac0 	call	8010ac <_fflush_r>
  80251c:	103fc31e 	bne	r2,zero,80242c <__sfvwrite_r+0x254>
  802520:	d8000015 	stw	zero,0(sp)
  802524:	003fe206 	br	8024b0 <__sfvwrite_r+0x2d8>
  802528:	91000017 	ldw	r4,0(r18)
  80252c:	90800417 	ldw	r2,16(r18)
  802530:	1100022e 	bgeu	r2,r4,80253c <__sfvwrite_r+0x364>
  802534:	8023883a 	mov	r17,r16
  802538:	85003136 	bltu	r16,r20,802600 <__sfvwrite_r+0x428>
  80253c:	91c00517 	ldw	r7,20(r18)
  802540:	a1c01836 	bltu	r20,r7,8025a4 <__sfvwrite_r+0x3cc>
  802544:	90c00917 	ldw	r3,36(r18)
  802548:	91400717 	ldw	r5,28(r18)
  80254c:	e009883a 	mov	r4,fp
  802550:	b80d883a 	mov	r6,r23
  802554:	183ee83a 	callr	r3
  802558:	1021883a 	mov	r16,r2
  80255c:	00bfb30e 	bge	zero,r2,80242c <__sfvwrite_r+0x254>
  802560:	1023883a 	mov	r17,r2
  802564:	1027883a 	mov	r19,r2
  802568:	003f9b06 	br	8023d8 <__sfvwrite_r+0x200>
  80256c:	b80b883a 	mov	r5,r23
  802570:	800d883a 	mov	r6,r16
  802574:	080324c0 	call	80324c <memmove>
  802578:	90c00217 	ldw	r3,8(r18)
  80257c:	90800017 	ldw	r2,0(r18)
  802580:	8023883a 	mov	r17,r16
  802584:	1c07c83a 	sub	r3,r3,r16
  802588:	1405883a 	add	r2,r2,r16
  80258c:	90c00215 	stw	r3,8(r18)
  802590:	90800015 	stw	r2,0(r18)
  802594:	003fc406 	br	8024a8 <__sfvwrite_r+0x2d0>
  802598:	a00d883a 	mov	r6,r20
  80259c:	a021883a 	mov	r16,r20
  8025a0:	003f8106 	br	8023a8 <__sfvwrite_r+0x1d0>
  8025a4:	b80b883a 	mov	r5,r23
  8025a8:	a00d883a 	mov	r6,r20
  8025ac:	080324c0 	call	80324c <memmove>
  8025b0:	90c00217 	ldw	r3,8(r18)
  8025b4:	90800017 	ldw	r2,0(r18)
  8025b8:	a021883a 	mov	r16,r20
  8025bc:	1d07c83a 	sub	r3,r3,r20
  8025c0:	1505883a 	add	r2,r2,r20
  8025c4:	a023883a 	mov	r17,r20
  8025c8:	a027883a 	mov	r19,r20
  8025cc:	90c00215 	stw	r3,8(r18)
  8025d0:	90800015 	stw	r2,0(r18)
  8025d4:	003f8006 	br	8023d8 <__sfvwrite_r+0x200>
  8025d8:	b809883a 	mov	r4,r23
  8025dc:	01400284 	movi	r5,10
  8025e0:	980d883a 	mov	r6,r19
  8025e4:	08030c80 	call	8030c8 <memchr>
  8025e8:	10001726 	beq	r2,zero,802648 <__sfvwrite_r+0x470>
  8025ec:	15c5c83a 	sub	r2,r2,r23
  8025f0:	15000044 	addi	r20,r2,1
  8025f4:	00800044 	movi	r2,1
  8025f8:	d8800015 	stw	r2,0(sp)
  8025fc:	003f9806 	br	802460 <__sfvwrite_r+0x288>
  802600:	b80b883a 	mov	r5,r23
  802604:	800d883a 	mov	r6,r16
  802608:	080324c0 	call	80324c <memmove>
  80260c:	90c00017 	ldw	r3,0(r18)
  802610:	e009883a 	mov	r4,fp
  802614:	900b883a 	mov	r5,r18
  802618:	1c07883a 	add	r3,r3,r16
  80261c:	90c00015 	stw	r3,0(r18)
  802620:	8027883a 	mov	r19,r16
  802624:	08010ac0 	call	8010ac <_fflush_r>
  802628:	103f6b26 	beq	r2,zero,8023d8 <__sfvwrite_r+0x200>
  80262c:	003f7f06 	br	80242c <__sfvwrite_r+0x254>
  802630:	400b883a 	mov	r5,r8
  802634:	e009883a 	mov	r4,fp
  802638:	08034b40 	call	8034b4 <_realloc_r>
  80263c:	103f7626 	beq	r2,zero,802418 <__sfvwrite_r+0x240>
  802640:	1023883a 	mov	r17,r2
  802644:	003f5006 	br	802388 <__sfvwrite_r+0x1b0>
  802648:	00c00044 	movi	r3,1
  80264c:	9d000044 	addi	r20,r19,1
  802650:	d8c00015 	stw	r3,0(sp)
  802654:	003f8206 	br	802460 <__sfvwrite_r+0x288>
  802658:	9080030b 	ldhu	r2,12(r18)
  80265c:	00c00244 	movi	r3,9
  802660:	013fffc4 	movi	r4,-1
  802664:	10801014 	ori	r2,r2,64
  802668:	9080030d 	sth	r2,12(r18)
  80266c:	e0c00015 	stw	r3,0(fp)
  802670:	003f0606 	br	80228c <__sfvwrite_r+0xb4>

00802674 <_fwalk_reent>:
  802674:	defff704 	addi	sp,sp,-36
  802678:	dcc00315 	stw	r19,12(sp)
  80267c:	24c0b804 	addi	r19,r4,736
  802680:	dd800615 	stw	r22,24(sp)
  802684:	dd400515 	stw	r21,20(sp)
  802688:	dfc00815 	stw	ra,32(sp)
  80268c:	ddc00715 	stw	r23,28(sp)
  802690:	dd000415 	stw	r20,16(sp)
  802694:	dc800215 	stw	r18,8(sp)
  802698:	dc400115 	stw	r17,4(sp)
  80269c:	dc000015 	stw	r16,0(sp)
  8026a0:	202b883a 	mov	r21,r4
  8026a4:	282d883a 	mov	r22,r5
  8026a8:	080145c0 	call	80145c <__sfp_lock_acquire>
  8026ac:	98002126 	beq	r19,zero,802734 <_fwalk_reent+0xc0>
  8026b0:	002f883a 	mov	r23,zero
  8026b4:	9c800117 	ldw	r18,4(r19)
  8026b8:	9c000217 	ldw	r16,8(r19)
  8026bc:	90bfffc4 	addi	r2,r18,-1
  8026c0:	10000d16 	blt	r2,zero,8026f8 <_fwalk_reent+0x84>
  8026c4:	0023883a 	mov	r17,zero
  8026c8:	053fffc4 	movi	r20,-1
  8026cc:	8080030f 	ldh	r2,12(r16)
  8026d0:	8c400044 	addi	r17,r17,1
  8026d4:	10000626 	beq	r2,zero,8026f0 <_fwalk_reent+0x7c>
  8026d8:	8080038f 	ldh	r2,14(r16)
  8026dc:	800b883a 	mov	r5,r16
  8026e0:	a809883a 	mov	r4,r21
  8026e4:	15000226 	beq	r2,r20,8026f0 <_fwalk_reent+0x7c>
  8026e8:	b03ee83a 	callr	r22
  8026ec:	b8aeb03a 	or	r23,r23,r2
  8026f0:	84001704 	addi	r16,r16,92
  8026f4:	947ff51e 	bne	r18,r17,8026cc <_fwalk_reent+0x58>
  8026f8:	9cc00017 	ldw	r19,0(r19)
  8026fc:	983fed1e 	bne	r19,zero,8026b4 <_fwalk_reent+0x40>
  802700:	08014600 	call	801460 <__sfp_lock_release>
  802704:	b805883a 	mov	r2,r23
  802708:	dfc00817 	ldw	ra,32(sp)
  80270c:	ddc00717 	ldw	r23,28(sp)
  802710:	dd800617 	ldw	r22,24(sp)
  802714:	dd400517 	ldw	r21,20(sp)
  802718:	dd000417 	ldw	r20,16(sp)
  80271c:	dcc00317 	ldw	r19,12(sp)
  802720:	dc800217 	ldw	r18,8(sp)
  802724:	dc400117 	ldw	r17,4(sp)
  802728:	dc000017 	ldw	r16,0(sp)
  80272c:	dec00904 	addi	sp,sp,36
  802730:	f800283a 	ret
  802734:	002f883a 	mov	r23,zero
  802738:	003ff106 	br	802700 <_fwalk_reent+0x8c>

0080273c <_fwalk>:
  80273c:	defff804 	addi	sp,sp,-32
  802740:	dcc00315 	stw	r19,12(sp)
  802744:	24c0b804 	addi	r19,r4,736
  802748:	dd400515 	stw	r21,20(sp)
  80274c:	dfc00715 	stw	ra,28(sp)
  802750:	dd800615 	stw	r22,24(sp)
  802754:	dd000415 	stw	r20,16(sp)
  802758:	dc800215 	stw	r18,8(sp)
  80275c:	dc400115 	stw	r17,4(sp)
  802760:	dc000015 	stw	r16,0(sp)
  802764:	282b883a 	mov	r21,r5
  802768:	080145c0 	call	80145c <__sfp_lock_acquire>
  80276c:	98001f26 	beq	r19,zero,8027ec <_fwalk+0xb0>
  802770:	002d883a 	mov	r22,zero
  802774:	9c800117 	ldw	r18,4(r19)
  802778:	9c000217 	ldw	r16,8(r19)
  80277c:	90bfffc4 	addi	r2,r18,-1
  802780:	10000c16 	blt	r2,zero,8027b4 <_fwalk+0x78>
  802784:	0023883a 	mov	r17,zero
  802788:	053fffc4 	movi	r20,-1
  80278c:	8080030f 	ldh	r2,12(r16)
  802790:	8c400044 	addi	r17,r17,1
  802794:	10000526 	beq	r2,zero,8027ac <_fwalk+0x70>
  802798:	8080038f 	ldh	r2,14(r16)
  80279c:	8009883a 	mov	r4,r16
  8027a0:	15000226 	beq	r2,r20,8027ac <_fwalk+0x70>
  8027a4:	a83ee83a 	callr	r21
  8027a8:	b0acb03a 	or	r22,r22,r2
  8027ac:	84001704 	addi	r16,r16,92
  8027b0:	947ff61e 	bne	r18,r17,80278c <_fwalk+0x50>
  8027b4:	9cc00017 	ldw	r19,0(r19)
  8027b8:	983fee1e 	bne	r19,zero,802774 <_fwalk+0x38>
  8027bc:	08014600 	call	801460 <__sfp_lock_release>
  8027c0:	b005883a 	mov	r2,r22
  8027c4:	dfc00717 	ldw	ra,28(sp)
  8027c8:	dd800617 	ldw	r22,24(sp)
  8027cc:	dd400517 	ldw	r21,20(sp)
  8027d0:	dd000417 	ldw	r20,16(sp)
  8027d4:	dcc00317 	ldw	r19,12(sp)
  8027d8:	dc800217 	ldw	r18,8(sp)
  8027dc:	dc400117 	ldw	r17,4(sp)
  8027e0:	dc000017 	ldw	r16,0(sp)
  8027e4:	dec00804 	addi	sp,sp,32
  8027e8:	f800283a 	ret
  8027ec:	002d883a 	mov	r22,zero
  8027f0:	003ff206 	br	8027bc <_fwalk+0x80>

008027f4 <__smakebuf_r>:
  8027f4:	2880030b 	ldhu	r2,12(r5)
  8027f8:	deffed04 	addi	sp,sp,-76
  8027fc:	dc401015 	stw	r17,64(sp)
  802800:	1080008c 	andi	r2,r2,2
  802804:	dc000f15 	stw	r16,60(sp)
  802808:	dfc01215 	stw	ra,72(sp)
  80280c:	dc801115 	stw	r18,68(sp)
  802810:	2821883a 	mov	r16,r5
  802814:	2023883a 	mov	r17,r4
  802818:	10000b26 	beq	r2,zero,802848 <__smakebuf_r+0x54>
  80281c:	28c010c4 	addi	r3,r5,67
  802820:	00800044 	movi	r2,1
  802824:	28800515 	stw	r2,20(r5)
  802828:	28c00415 	stw	r3,16(r5)
  80282c:	28c00015 	stw	r3,0(r5)
  802830:	dfc01217 	ldw	ra,72(sp)
  802834:	dc801117 	ldw	r18,68(sp)
  802838:	dc401017 	ldw	r17,64(sp)
  80283c:	dc000f17 	ldw	r16,60(sp)
  802840:	dec01304 	addi	sp,sp,76
  802844:	f800283a 	ret
  802848:	2940038f 	ldh	r5,14(r5)
  80284c:	28002116 	blt	r5,zero,8028d4 <__smakebuf_r+0xe0>
  802850:	d80d883a 	mov	r6,sp
  802854:	08021640 	call	802164 <_fstat_r>
  802858:	10001e16 	blt	r2,zero,8028d4 <__smakebuf_r+0xe0>
  80285c:	d8800117 	ldw	r2,4(sp)
  802860:	00e00014 	movui	r3,32768
  802864:	113c000c 	andi	r4,r2,61440
  802868:	20c03126 	beq	r4,r3,802930 <__smakebuf_r+0x13c>
  80286c:	8080030b 	ldhu	r2,12(r16)
  802870:	00c80004 	movi	r3,8192
  802874:	10820014 	ori	r2,r2,2048
  802878:	8080030d 	sth	r2,12(r16)
  80287c:	20c01e26 	beq	r4,r3,8028f8 <__smakebuf_r+0x104>
  802880:	04810004 	movi	r18,1024
  802884:	8809883a 	mov	r4,r17
  802888:	900b883a 	mov	r5,r18
  80288c:	08029880 	call	802988 <_malloc_r>
  802890:	1009883a 	mov	r4,r2
  802894:	10003126 	beq	r2,zero,80295c <__smakebuf_r+0x168>
  802898:	80c0030b 	ldhu	r3,12(r16)
  80289c:	00802034 	movhi	r2,128
  8028a0:	10855404 	addi	r2,r2,5456
  8028a4:	88800f15 	stw	r2,60(r17)
  8028a8:	18c02014 	ori	r3,r3,128
  8028ac:	84800515 	stw	r18,20(r16)
  8028b0:	80c0030d 	sth	r3,12(r16)
  8028b4:	81000415 	stw	r4,16(r16)
  8028b8:	81000015 	stw	r4,0(r16)
  8028bc:	dfc01217 	ldw	ra,72(sp)
  8028c0:	dc801117 	ldw	r18,68(sp)
  8028c4:	dc401017 	ldw	r17,64(sp)
  8028c8:	dc000f17 	ldw	r16,60(sp)
  8028cc:	dec01304 	addi	sp,sp,76
  8028d0:	f800283a 	ret
  8028d4:	80c0030b 	ldhu	r3,12(r16)
  8028d8:	1880200c 	andi	r2,r3,128
  8028dc:	10000426 	beq	r2,zero,8028f0 <__smakebuf_r+0xfc>
  8028e0:	04801004 	movi	r18,64
  8028e4:	18820014 	ori	r2,r3,2048
  8028e8:	8080030d 	sth	r2,12(r16)
  8028ec:	003fe506 	br	802884 <__smakebuf_r+0x90>
  8028f0:	04810004 	movi	r18,1024
  8028f4:	003ffb06 	br	8028e4 <__smakebuf_r+0xf0>
  8028f8:	8140038f 	ldh	r5,14(r16)
  8028fc:	8809883a 	mov	r4,r17
  802900:	08094740 	call	809474 <_isatty_r>
  802904:	103fde26 	beq	r2,zero,802880 <__smakebuf_r+0x8c>
  802908:	8080030b 	ldhu	r2,12(r16)
  80290c:	80c010c4 	addi	r3,r16,67
  802910:	04810004 	movi	r18,1024
  802914:	10800054 	ori	r2,r2,1
  802918:	8080030d 	sth	r2,12(r16)
  80291c:	00800044 	movi	r2,1
  802920:	80c00415 	stw	r3,16(r16)
  802924:	80800515 	stw	r2,20(r16)
  802928:	80c00015 	stw	r3,0(r16)
  80292c:	003fd506 	br	802884 <__smakebuf_r+0x90>
  802930:	80c00a17 	ldw	r3,40(r16)
  802934:	00802034 	movhi	r2,128
  802938:	108fd204 	addi	r2,r2,16200
  80293c:	18bfcb1e 	bne	r3,r2,80286c <__smakebuf_r+0x78>
  802940:	8080030b 	ldhu	r2,12(r16)
  802944:	00c10004 	movi	r3,1024
  802948:	1825883a 	mov	r18,r3
  80294c:	10c4b03a 	or	r2,r2,r3
  802950:	8080030d 	sth	r2,12(r16)
  802954:	80c01315 	stw	r3,76(r16)
  802958:	003fca06 	br	802884 <__smakebuf_r+0x90>
  80295c:	8100030b 	ldhu	r4,12(r16)
  802960:	2080800c 	andi	r2,r4,512
  802964:	103fb21e 	bne	r2,zero,802830 <__smakebuf_r+0x3c>
  802968:	80c010c4 	addi	r3,r16,67
  80296c:	21000094 	ori	r4,r4,2
  802970:	00800044 	movi	r2,1
  802974:	80800515 	stw	r2,20(r16)
  802978:	8100030d 	sth	r4,12(r16)
  80297c:	80c00415 	stw	r3,16(r16)
  802980:	80c00015 	stw	r3,0(r16)
  802984:	003faa06 	br	802830 <__smakebuf_r+0x3c>

00802988 <_malloc_r>:
  802988:	defff604 	addi	sp,sp,-40
  80298c:	28c002c4 	addi	r3,r5,11
  802990:	00800584 	movi	r2,22
  802994:	dc800215 	stw	r18,8(sp)
  802998:	dfc00915 	stw	ra,36(sp)
  80299c:	df000815 	stw	fp,32(sp)
  8029a0:	ddc00715 	stw	r23,28(sp)
  8029a4:	dd800615 	stw	r22,24(sp)
  8029a8:	dd400515 	stw	r21,20(sp)
  8029ac:	dd000415 	stw	r20,16(sp)
  8029b0:	dcc00315 	stw	r19,12(sp)
  8029b4:	dc400115 	stw	r17,4(sp)
  8029b8:	dc000015 	stw	r16,0(sp)
  8029bc:	2025883a 	mov	r18,r4
  8029c0:	10c01236 	bltu	r2,r3,802a0c <_malloc_r+0x84>
  8029c4:	04400404 	movi	r17,16
  8029c8:	8940142e 	bgeu	r17,r5,802a1c <_malloc_r+0x94>
  8029cc:	00800304 	movi	r2,12
  8029d0:	0007883a 	mov	r3,zero
  8029d4:	90800015 	stw	r2,0(r18)
  8029d8:	1805883a 	mov	r2,r3
  8029dc:	dfc00917 	ldw	ra,36(sp)
  8029e0:	df000817 	ldw	fp,32(sp)
  8029e4:	ddc00717 	ldw	r23,28(sp)
  8029e8:	dd800617 	ldw	r22,24(sp)
  8029ec:	dd400517 	ldw	r21,20(sp)
  8029f0:	dd000417 	ldw	r20,16(sp)
  8029f4:	dcc00317 	ldw	r19,12(sp)
  8029f8:	dc800217 	ldw	r18,8(sp)
  8029fc:	dc400117 	ldw	r17,4(sp)
  802a00:	dc000017 	ldw	r16,0(sp)
  802a04:	dec00a04 	addi	sp,sp,40
  802a08:	f800283a 	ret
  802a0c:	00bffe04 	movi	r2,-8
  802a10:	18a2703a 	and	r17,r3,r2
  802a14:	883fed16 	blt	r17,zero,8029cc <_malloc_r+0x44>
  802a18:	897fec36 	bltu	r17,r5,8029cc <_malloc_r+0x44>
  802a1c:	9009883a 	mov	r4,r18
  802a20:	0810d780 	call	810d78 <__malloc_lock>
  802a24:	00807dc4 	movi	r2,503
  802a28:	14402b2e 	bgeu	r2,r17,802ad8 <_malloc_r+0x150>
  802a2c:	8806d27a 	srli	r3,r17,9
  802a30:	18003f1e 	bne	r3,zero,802b30 <_malloc_r+0x1a8>
  802a34:	880cd0fa 	srli	r6,r17,3
  802a38:	300490fa 	slli	r2,r6,3
  802a3c:	02c02074 	movhi	r11,129
  802a40:	5ad58904 	addi	r11,r11,22052
  802a44:	12cb883a 	add	r5,r2,r11
  802a48:	2c000317 	ldw	r16,12(r5)
  802a4c:	580f883a 	mov	r7,r11
  802a50:	2c00041e 	bne	r5,r16,802a64 <_malloc_r+0xdc>
  802a54:	00000a06 	br	802a80 <_malloc_r+0xf8>
  802a58:	1800860e 	bge	r3,zero,802c74 <_malloc_r+0x2ec>
  802a5c:	84000317 	ldw	r16,12(r16)
  802a60:	2c000726 	beq	r5,r16,802a80 <_malloc_r+0xf8>
  802a64:	80800117 	ldw	r2,4(r16)
  802a68:	00ffff04 	movi	r3,-4
  802a6c:	10c8703a 	and	r4,r2,r3
  802a70:	2447c83a 	sub	r3,r4,r17
  802a74:	008003c4 	movi	r2,15
  802a78:	10fff70e 	bge	r2,r3,802a58 <_malloc_r+0xd0>
  802a7c:	31bfffc4 	addi	r6,r6,-1
  802a80:	32400044 	addi	r9,r6,1
  802a84:	02802074 	movhi	r10,129
  802a88:	52958b04 	addi	r10,r10,22060
  802a8c:	54000217 	ldw	r16,8(r10)
  802a90:	8280a026 	beq	r16,r10,802d14 <_malloc_r+0x38c>
  802a94:	80800117 	ldw	r2,4(r16)
  802a98:	00ffff04 	movi	r3,-4
  802a9c:	10ca703a 	and	r5,r2,r3
  802aa0:	2c4dc83a 	sub	r6,r5,r17
  802aa4:	008003c4 	movi	r2,15
  802aa8:	11808316 	blt	r2,r6,802cb8 <_malloc_r+0x330>
  802aac:	52800315 	stw	r10,12(r10)
  802ab0:	52800215 	stw	r10,8(r10)
  802ab4:	30002916 	blt	r6,zero,802b5c <_malloc_r+0x1d4>
  802ab8:	8147883a 	add	r3,r16,r5
  802abc:	18800117 	ldw	r2,4(r3)
  802ac0:	9009883a 	mov	r4,r18
  802ac4:	10800054 	ori	r2,r2,1
  802ac8:	18800115 	stw	r2,4(r3)
  802acc:	0810d980 	call	810d98 <__malloc_unlock>
  802ad0:	80c00204 	addi	r3,r16,8
  802ad4:	003fc006 	br	8029d8 <_malloc_r+0x50>
  802ad8:	02c02074 	movhi	r11,129
  802adc:	5ad58904 	addi	r11,r11,22052
  802ae0:	8ac5883a 	add	r2,r17,r11
  802ae4:	14000317 	ldw	r16,12(r2)
  802ae8:	580f883a 	mov	r7,r11
  802aec:	8806d0fa 	srli	r3,r17,3
  802af0:	14006c26 	beq	r2,r16,802ca4 <_malloc_r+0x31c>
  802af4:	80c00117 	ldw	r3,4(r16)
  802af8:	00bfff04 	movi	r2,-4
  802afc:	81800317 	ldw	r6,12(r16)
  802b00:	1886703a 	and	r3,r3,r2
  802b04:	80c7883a 	add	r3,r16,r3
  802b08:	18800117 	ldw	r2,4(r3)
  802b0c:	81400217 	ldw	r5,8(r16)
  802b10:	9009883a 	mov	r4,r18
  802b14:	10800054 	ori	r2,r2,1
  802b18:	18800115 	stw	r2,4(r3)
  802b1c:	31400215 	stw	r5,8(r6)
  802b20:	29800315 	stw	r6,12(r5)
  802b24:	0810d980 	call	810d98 <__malloc_unlock>
  802b28:	80c00204 	addi	r3,r16,8
  802b2c:	003faa06 	br	8029d8 <_malloc_r+0x50>
  802b30:	00800104 	movi	r2,4
  802b34:	10c0052e 	bgeu	r2,r3,802b4c <_malloc_r+0x1c4>
  802b38:	00800504 	movi	r2,20
  802b3c:	10c07836 	bltu	r2,r3,802d20 <_malloc_r+0x398>
  802b40:	198016c4 	addi	r6,r3,91
  802b44:	300490fa 	slli	r2,r6,3
  802b48:	003fbc06 	br	802a3c <_malloc_r+0xb4>
  802b4c:	8804d1ba 	srli	r2,r17,6
  802b50:	11800e04 	addi	r6,r2,56
  802b54:	300490fa 	slli	r2,r6,3
  802b58:	003fb806 	br	802a3c <_malloc_r+0xb4>
  802b5c:	00807fc4 	movi	r2,511
  802b60:	1140bb36 	bltu	r2,r5,802e50 <_malloc_r+0x4c8>
  802b64:	2806d0fa 	srli	r3,r5,3
  802b68:	573ffe04 	addi	fp,r10,-8
  802b6c:	00800044 	movi	r2,1
  802b70:	180890fa 	slli	r4,r3,3
  802b74:	1807d0ba 	srai	r3,r3,2
  802b78:	e1c00117 	ldw	r7,4(fp)
  802b7c:	5909883a 	add	r4,r11,r4
  802b80:	21400217 	ldw	r5,8(r4)
  802b84:	10c4983a 	sll	r2,r2,r3
  802b88:	81000315 	stw	r4,12(r16)
  802b8c:	81400215 	stw	r5,8(r16)
  802b90:	388eb03a 	or	r7,r7,r2
  802b94:	2c000315 	stw	r16,12(r5)
  802b98:	24000215 	stw	r16,8(r4)
  802b9c:	e1c00115 	stw	r7,4(fp)
  802ba0:	4807883a 	mov	r3,r9
  802ba4:	4800cd16 	blt	r9,zero,802edc <_malloc_r+0x554>
  802ba8:	1807d0ba 	srai	r3,r3,2
  802bac:	00800044 	movi	r2,1
  802bb0:	10c8983a 	sll	r4,r2,r3
  802bb4:	39004436 	bltu	r7,r4,802cc8 <_malloc_r+0x340>
  802bb8:	21c4703a 	and	r2,r4,r7
  802bbc:	10000a1e 	bne	r2,zero,802be8 <_malloc_r+0x260>
  802bc0:	2109883a 	add	r4,r4,r4
  802bc4:	00bfff04 	movi	r2,-4
  802bc8:	4884703a 	and	r2,r9,r2
  802bcc:	3906703a 	and	r3,r7,r4
  802bd0:	12400104 	addi	r9,r2,4
  802bd4:	1800041e 	bne	r3,zero,802be8 <_malloc_r+0x260>
  802bd8:	2109883a 	add	r4,r4,r4
  802bdc:	3904703a 	and	r2,r7,r4
  802be0:	4a400104 	addi	r9,r9,4
  802be4:	103ffc26 	beq	r2,zero,802bd8 <_malloc_r+0x250>
  802be8:	480490fa 	slli	r2,r9,3
  802bec:	4819883a 	mov	r12,r9
  802bf0:	023fff04 	movi	r8,-4
  802bf4:	589b883a 	add	r13,r11,r2
  802bf8:	6807883a 	mov	r3,r13
  802bfc:	014003c4 	movi	r5,15
  802c00:	1c000317 	ldw	r16,12(r3)
  802c04:	1c00041e 	bne	r3,r16,802c18 <_malloc_r+0x290>
  802c08:	0000a706 	br	802ea8 <_malloc_r+0x520>
  802c0c:	3000ab0e 	bge	r6,zero,802ebc <_malloc_r+0x534>
  802c10:	84000317 	ldw	r16,12(r16)
  802c14:	1c00a426 	beq	r3,r16,802ea8 <_malloc_r+0x520>
  802c18:	80800117 	ldw	r2,4(r16)
  802c1c:	1204703a 	and	r2,r2,r8
  802c20:	144dc83a 	sub	r6,r2,r17
  802c24:	29bff90e 	bge	r5,r6,802c0c <_malloc_r+0x284>
  802c28:	81000317 	ldw	r4,12(r16)
  802c2c:	80c00217 	ldw	r3,8(r16)
  802c30:	89400054 	ori	r5,r17,1
  802c34:	8445883a 	add	r2,r16,r17
  802c38:	20c00215 	stw	r3,8(r4)
  802c3c:	19000315 	stw	r4,12(r3)
  802c40:	81400115 	stw	r5,4(r16)
  802c44:	1187883a 	add	r3,r2,r6
  802c48:	31000054 	ori	r4,r6,1
  802c4c:	50800315 	stw	r2,12(r10)
  802c50:	50800215 	stw	r2,8(r10)
  802c54:	19800015 	stw	r6,0(r3)
  802c58:	11000115 	stw	r4,4(r2)
  802c5c:	12800215 	stw	r10,8(r2)
  802c60:	12800315 	stw	r10,12(r2)
  802c64:	9009883a 	mov	r4,r18
  802c68:	0810d980 	call	810d98 <__malloc_unlock>
  802c6c:	80c00204 	addi	r3,r16,8
  802c70:	003f5906 	br	8029d8 <_malloc_r+0x50>
  802c74:	8109883a 	add	r4,r16,r4
  802c78:	20800117 	ldw	r2,4(r4)
  802c7c:	80c00217 	ldw	r3,8(r16)
  802c80:	81400317 	ldw	r5,12(r16)
  802c84:	10800054 	ori	r2,r2,1
  802c88:	20800115 	stw	r2,4(r4)
  802c8c:	28c00215 	stw	r3,8(r5)
  802c90:	19400315 	stw	r5,12(r3)
  802c94:	9009883a 	mov	r4,r18
  802c98:	0810d980 	call	810d98 <__malloc_unlock>
  802c9c:	80c00204 	addi	r3,r16,8
  802ca0:	003f4d06 	br	8029d8 <_malloc_r+0x50>
  802ca4:	80800204 	addi	r2,r16,8
  802ca8:	14000317 	ldw	r16,12(r2)
  802cac:	143f911e 	bne	r2,r16,802af4 <_malloc_r+0x16c>
  802cb0:	1a400084 	addi	r9,r3,2
  802cb4:	003f7306 	br	802a84 <_malloc_r+0xfc>
  802cb8:	88c00054 	ori	r3,r17,1
  802cbc:	8445883a 	add	r2,r16,r17
  802cc0:	80c00115 	stw	r3,4(r16)
  802cc4:	003fdf06 	br	802c44 <_malloc_r+0x2bc>
  802cc8:	e4000217 	ldw	r16,8(fp)
  802ccc:	00bfff04 	movi	r2,-4
  802cd0:	80c00117 	ldw	r3,4(r16)
  802cd4:	802d883a 	mov	r22,r16
  802cd8:	18aa703a 	and	r21,r3,r2
  802cdc:	ac401636 	bltu	r21,r17,802d38 <_malloc_r+0x3b0>
  802ce0:	ac49c83a 	sub	r4,r21,r17
  802ce4:	008003c4 	movi	r2,15
  802ce8:	1100130e 	bge	r2,r4,802d38 <_malloc_r+0x3b0>
  802cec:	88800054 	ori	r2,r17,1
  802cf0:	8447883a 	add	r3,r16,r17
  802cf4:	80800115 	stw	r2,4(r16)
  802cf8:	20800054 	ori	r2,r4,1
  802cfc:	18800115 	stw	r2,4(r3)
  802d00:	e0c00215 	stw	r3,8(fp)
  802d04:	9009883a 	mov	r4,r18
  802d08:	0810d980 	call	810d98 <__malloc_unlock>
  802d0c:	80c00204 	addi	r3,r16,8
  802d10:	003f3106 	br	8029d8 <_malloc_r+0x50>
  802d14:	39c00117 	ldw	r7,4(r7)
  802d18:	573ffe04 	addi	fp,r10,-8
  802d1c:	003fa006 	br	802ba0 <_malloc_r+0x218>
  802d20:	00801504 	movi	r2,84
  802d24:	10c06736 	bltu	r2,r3,802ec4 <_malloc_r+0x53c>
  802d28:	8804d33a 	srli	r2,r17,12
  802d2c:	11801b84 	addi	r6,r2,110
  802d30:	300490fa 	slli	r2,r6,3
  802d34:	003f4106 	br	802a3c <_malloc_r+0xb4>
  802d38:	d0a75b17 	ldw	r2,-25236(gp)
  802d3c:	d0e00717 	ldw	r3,-32740(gp)
  802d40:	053fffc4 	movi	r20,-1
  802d44:	10800404 	addi	r2,r2,16
  802d48:	88a7883a 	add	r19,r17,r2
  802d4c:	1d000326 	beq	r3,r20,802d5c <_malloc_r+0x3d4>
  802d50:	98c3ffc4 	addi	r3,r19,4095
  802d54:	00bc0004 	movi	r2,-4096
  802d58:	18a6703a 	and	r19,r3,r2
  802d5c:	9009883a 	mov	r4,r18
  802d60:	980b883a 	mov	r5,r19
  802d64:	0803ce80 	call	803ce8 <_sbrk_r>
  802d68:	1009883a 	mov	r4,r2
  802d6c:	15000426 	beq	r2,r20,802d80 <_malloc_r+0x3f8>
  802d70:	854b883a 	add	r5,r16,r21
  802d74:	1029883a 	mov	r20,r2
  802d78:	11405a2e 	bgeu	r2,r5,802ee4 <_malloc_r+0x55c>
  802d7c:	87000c26 	beq	r16,fp,802db0 <_malloc_r+0x428>
  802d80:	e4000217 	ldw	r16,8(fp)
  802d84:	80c00117 	ldw	r3,4(r16)
  802d88:	00bfff04 	movi	r2,-4
  802d8c:	1884703a 	and	r2,r3,r2
  802d90:	14400336 	bltu	r2,r17,802da0 <_malloc_r+0x418>
  802d94:	1449c83a 	sub	r4,r2,r17
  802d98:	008003c4 	movi	r2,15
  802d9c:	113fd316 	blt	r2,r4,802cec <_malloc_r+0x364>
  802da0:	9009883a 	mov	r4,r18
  802da4:	0810d980 	call	810d98 <__malloc_unlock>
  802da8:	0007883a 	mov	r3,zero
  802dac:	003f0a06 	br	8029d8 <_malloc_r+0x50>
  802db0:	05c020b4 	movhi	r23,130
  802db4:	bde30604 	addi	r23,r23,-29672
  802db8:	b8800017 	ldw	r2,0(r23)
  802dbc:	988d883a 	add	r6,r19,r2
  802dc0:	b9800015 	stw	r6,0(r23)
  802dc4:	d0e00717 	ldw	r3,-32740(gp)
  802dc8:	00bfffc4 	movi	r2,-1
  802dcc:	18808e26 	beq	r3,r2,803008 <_malloc_r+0x680>
  802dd0:	2145c83a 	sub	r2,r4,r5
  802dd4:	3085883a 	add	r2,r6,r2
  802dd8:	b8800015 	stw	r2,0(r23)
  802ddc:	20c001cc 	andi	r3,r4,7
  802de0:	18005f1e 	bne	r3,zero,802f60 <_malloc_r+0x5d8>
  802de4:	000b883a 	mov	r5,zero
  802de8:	a4c5883a 	add	r2,r20,r19
  802dec:	1083ffcc 	andi	r2,r2,4095
  802df0:	00c40004 	movi	r3,4096
  802df4:	1887c83a 	sub	r3,r3,r2
  802df8:	28e7883a 	add	r19,r5,r3
  802dfc:	9009883a 	mov	r4,r18
  802e00:	980b883a 	mov	r5,r19
  802e04:	0803ce80 	call	803ce8 <_sbrk_r>
  802e08:	1007883a 	mov	r3,r2
  802e0c:	00bfffc4 	movi	r2,-1
  802e10:	18807a26 	beq	r3,r2,802ffc <_malloc_r+0x674>
  802e14:	1d05c83a 	sub	r2,r3,r20
  802e18:	9885883a 	add	r2,r19,r2
  802e1c:	10c00054 	ori	r3,r2,1
  802e20:	b8800017 	ldw	r2,0(r23)
  802e24:	a021883a 	mov	r16,r20
  802e28:	a0c00115 	stw	r3,4(r20)
  802e2c:	9885883a 	add	r2,r19,r2
  802e30:	b8800015 	stw	r2,0(r23)
  802e34:	e5000215 	stw	r20,8(fp)
  802e38:	b7003626 	beq	r22,fp,802f14 <_malloc_r+0x58c>
  802e3c:	018003c4 	movi	r6,15
  802e40:	35404b36 	bltu	r6,r21,802f70 <_malloc_r+0x5e8>
  802e44:	00800044 	movi	r2,1
  802e48:	a0800115 	stw	r2,4(r20)
  802e4c:	003fcd06 	br	802d84 <_malloc_r+0x3fc>
  802e50:	2808d27a 	srli	r4,r5,9
  802e54:	2000371e 	bne	r4,zero,802f34 <_malloc_r+0x5ac>
  802e58:	2808d0fa 	srli	r4,r5,3
  802e5c:	200690fa 	slli	r3,r4,3
  802e60:	1ad1883a 	add	r8,r3,r11
  802e64:	41800217 	ldw	r6,8(r8)
  802e68:	41805b26 	beq	r8,r6,802fd8 <_malloc_r+0x650>
  802e6c:	30800117 	ldw	r2,4(r6)
  802e70:	00ffff04 	movi	r3,-4
  802e74:	10c4703a 	and	r2,r2,r3
  802e78:	2880022e 	bgeu	r5,r2,802e84 <_malloc_r+0x4fc>
  802e7c:	31800217 	ldw	r6,8(r6)
  802e80:	41bffa1e 	bne	r8,r6,802e6c <_malloc_r+0x4e4>
  802e84:	32000317 	ldw	r8,12(r6)
  802e88:	39c00117 	ldw	r7,4(r7)
  802e8c:	82000315 	stw	r8,12(r16)
  802e90:	81800215 	stw	r6,8(r16)
  802e94:	07002074 	movhi	fp,129
  802e98:	e7158904 	addi	fp,fp,22052
  802e9c:	34000315 	stw	r16,12(r6)
  802ea0:	44000215 	stw	r16,8(r8)
  802ea4:	003f3e06 	br	802ba0 <_malloc_r+0x218>
  802ea8:	63000044 	addi	r12,r12,1
  802eac:	608000cc 	andi	r2,r12,3
  802eb0:	10005d26 	beq	r2,zero,803028 <_malloc_r+0x6a0>
  802eb4:	18c00204 	addi	r3,r3,8
  802eb8:	003f5106 	br	802c00 <_malloc_r+0x278>
  802ebc:	8089883a 	add	r4,r16,r2
  802ec0:	003f6d06 	br	802c78 <_malloc_r+0x2f0>
  802ec4:	00805504 	movi	r2,340
  802ec8:	10c02036 	bltu	r2,r3,802f4c <_malloc_r+0x5c4>
  802ecc:	8804d3fa 	srli	r2,r17,15
  802ed0:	11801dc4 	addi	r6,r2,119
  802ed4:	300490fa 	slli	r2,r6,3
  802ed8:	003ed806 	br	802a3c <_malloc_r+0xb4>
  802edc:	48c000c4 	addi	r3,r9,3
  802ee0:	003f3106 	br	802ba8 <_malloc_r+0x220>
  802ee4:	05c020b4 	movhi	r23,130
  802ee8:	bde30604 	addi	r23,r23,-29672
  802eec:	b8800017 	ldw	r2,0(r23)
  802ef0:	988d883a 	add	r6,r19,r2
  802ef4:	b9800015 	stw	r6,0(r23)
  802ef8:	293fb21e 	bne	r5,r4,802dc4 <_malloc_r+0x43c>
  802efc:	2083ffcc 	andi	r2,r4,4095
  802f00:	103fb01e 	bne	r2,zero,802dc4 <_malloc_r+0x43c>
  802f04:	e4000217 	ldw	r16,8(fp)
  802f08:	9d45883a 	add	r2,r19,r21
  802f0c:	10800054 	ori	r2,r2,1
  802f10:	80800115 	stw	r2,4(r16)
  802f14:	b8c00017 	ldw	r3,0(r23)
  802f18:	d0a75c17 	ldw	r2,-25232(gp)
  802f1c:	10c0012e 	bgeu	r2,r3,802f24 <_malloc_r+0x59c>
  802f20:	d0e75c15 	stw	r3,-25232(gp)
  802f24:	d0a75d17 	ldw	r2,-25228(gp)
  802f28:	10ff962e 	bgeu	r2,r3,802d84 <_malloc_r+0x3fc>
  802f2c:	d0e75d15 	stw	r3,-25228(gp)
  802f30:	003f9406 	br	802d84 <_malloc_r+0x3fc>
  802f34:	00800104 	movi	r2,4
  802f38:	11001e36 	bltu	r2,r4,802fb4 <_malloc_r+0x62c>
  802f3c:	2804d1ba 	srli	r2,r5,6
  802f40:	11000e04 	addi	r4,r2,56
  802f44:	200690fa 	slli	r3,r4,3
  802f48:	003fc506 	br	802e60 <_malloc_r+0x4d8>
  802f4c:	00815504 	movi	r2,1364
  802f50:	10c01d2e 	bgeu	r2,r3,802fc8 <_malloc_r+0x640>
  802f54:	01801f84 	movi	r6,126
  802f58:	0080fc04 	movi	r2,1008
  802f5c:	003eb706 	br	802a3c <_malloc_r+0xb4>
  802f60:	00800204 	movi	r2,8
  802f64:	10cbc83a 	sub	r5,r2,r3
  802f68:	2169883a 	add	r20,r4,r5
  802f6c:	003f9e06 	br	802de8 <_malloc_r+0x460>
  802f70:	00bffe04 	movi	r2,-8
  802f74:	a93ffd04 	addi	r4,r21,-12
  802f78:	2088703a 	and	r4,r4,r2
  802f7c:	b10b883a 	add	r5,r22,r4
  802f80:	00c00144 	movi	r3,5
  802f84:	28c00215 	stw	r3,8(r5)
  802f88:	28c00115 	stw	r3,4(r5)
  802f8c:	b0800117 	ldw	r2,4(r22)
  802f90:	1080004c 	andi	r2,r2,1
  802f94:	2084b03a 	or	r2,r4,r2
  802f98:	b0800115 	stw	r2,4(r22)
  802f9c:	313fdd2e 	bgeu	r6,r4,802f14 <_malloc_r+0x58c>
  802fa0:	b1400204 	addi	r5,r22,8
  802fa4:	9009883a 	mov	r4,r18
  802fa8:	08019f00 	call	8019f0 <_free_r>
  802fac:	e4000217 	ldw	r16,8(fp)
  802fb0:	003fd806 	br	802f14 <_malloc_r+0x58c>
  802fb4:	00800504 	movi	r2,20
  802fb8:	11001536 	bltu	r2,r4,803010 <_malloc_r+0x688>
  802fbc:	210016c4 	addi	r4,r4,91
  802fc0:	200690fa 	slli	r3,r4,3
  802fc4:	003fa606 	br	802e60 <_malloc_r+0x4d8>
  802fc8:	8804d4ba 	srli	r2,r17,18
  802fcc:	11801f04 	addi	r6,r2,124
  802fd0:	300490fa 	slli	r2,r6,3
  802fd4:	003e9906 	br	802a3c <_malloc_r+0xb4>
  802fd8:	2009d0ba 	srai	r4,r4,2
  802fdc:	01402074 	movhi	r5,129
  802fe0:	29558904 	addi	r5,r5,22052
  802fe4:	00c00044 	movi	r3,1
  802fe8:	28800117 	ldw	r2,4(r5)
  802fec:	1906983a 	sll	r3,r3,r4
  802ff0:	10c4b03a 	or	r2,r2,r3
  802ff4:	28800115 	stw	r2,4(r5)
  802ff8:	003fa306 	br	802e88 <_malloc_r+0x500>
  802ffc:	0027883a 	mov	r19,zero
  803000:	00c00044 	movi	r3,1
  803004:	003f8606 	br	802e20 <_malloc_r+0x498>
  803008:	d1200715 	stw	r4,-32740(gp)
  80300c:	003f7306 	br	802ddc <_malloc_r+0x454>
  803010:	00801504 	movi	r2,84
  803014:	11001936 	bltu	r2,r4,80307c <_malloc_r+0x6f4>
  803018:	2804d33a 	srli	r2,r5,12
  80301c:	11001b84 	addi	r4,r2,110
  803020:	200690fa 	slli	r3,r4,3
  803024:	003f8e06 	br	802e60 <_malloc_r+0x4d8>
  803028:	480b883a 	mov	r5,r9
  80302c:	6807883a 	mov	r3,r13
  803030:	288000cc 	andi	r2,r5,3
  803034:	18fffe04 	addi	r3,r3,-8
  803038:	297fffc4 	addi	r5,r5,-1
  80303c:	10001526 	beq	r2,zero,803094 <_malloc_r+0x70c>
  803040:	18800217 	ldw	r2,8(r3)
  803044:	10fffa26 	beq	r2,r3,803030 <_malloc_r+0x6a8>
  803048:	2109883a 	add	r4,r4,r4
  80304c:	393f1e36 	bltu	r7,r4,802cc8 <_malloc_r+0x340>
  803050:	203f1d26 	beq	r4,zero,802cc8 <_malloc_r+0x340>
  803054:	21c4703a 	and	r2,r4,r7
  803058:	10000226 	beq	r2,zero,803064 <_malloc_r+0x6dc>
  80305c:	6013883a 	mov	r9,r12
  803060:	003ee106 	br	802be8 <_malloc_r+0x260>
  803064:	2109883a 	add	r4,r4,r4
  803068:	3904703a 	and	r2,r7,r4
  80306c:	63000104 	addi	r12,r12,4
  803070:	103ffc26 	beq	r2,zero,803064 <_malloc_r+0x6dc>
  803074:	6013883a 	mov	r9,r12
  803078:	003edb06 	br	802be8 <_malloc_r+0x260>
  80307c:	00805504 	movi	r2,340
  803080:	11000836 	bltu	r2,r4,8030a4 <_malloc_r+0x71c>
  803084:	2804d3fa 	srli	r2,r5,15
  803088:	11001dc4 	addi	r4,r2,119
  80308c:	200690fa 	slli	r3,r4,3
  803090:	003f7306 	br	802e60 <_malloc_r+0x4d8>
  803094:	0104303a 	nor	r2,zero,r4
  803098:	388e703a 	and	r7,r7,r2
  80309c:	e1c00115 	stw	r7,4(fp)
  8030a0:	003fe906 	br	803048 <_malloc_r+0x6c0>
  8030a4:	00815504 	movi	r2,1364
  8030a8:	1100032e 	bgeu	r2,r4,8030b8 <_malloc_r+0x730>
  8030ac:	01001f84 	movi	r4,126
  8030b0:	00c0fc04 	movi	r3,1008
  8030b4:	003f6a06 	br	802e60 <_malloc_r+0x4d8>
  8030b8:	2804d4ba 	srli	r2,r5,18
  8030bc:	11001f04 	addi	r4,r2,124
  8030c0:	200690fa 	slli	r3,r4,3
  8030c4:	003f6606 	br	802e60 <_malloc_r+0x4d8>

008030c8 <memchr>:
  8030c8:	008000c4 	movi	r2,3
  8030cc:	29403fcc 	andi	r5,r5,255
  8030d0:	2007883a 	mov	r3,r4
  8030d4:	1180022e 	bgeu	r2,r6,8030e0 <memchr+0x18>
  8030d8:	2084703a 	and	r2,r4,r2
  8030dc:	10000b26 	beq	r2,zero,80310c <memchr+0x44>
  8030e0:	313fffc4 	addi	r4,r6,-1
  8030e4:	3000051e 	bne	r6,zero,8030fc <memchr+0x34>
  8030e8:	00002c06 	br	80319c <memchr+0xd4>
  8030ec:	213fffc4 	addi	r4,r4,-1
  8030f0:	00bfffc4 	movi	r2,-1
  8030f4:	18c00044 	addi	r3,r3,1
  8030f8:	20802826 	beq	r4,r2,80319c <memchr+0xd4>
  8030fc:	18800003 	ldbu	r2,0(r3)
  803100:	28bffa1e 	bne	r5,r2,8030ec <memchr+0x24>
  803104:	1805883a 	mov	r2,r3
  803108:	f800283a 	ret
  80310c:	0011883a 	mov	r8,zero
  803110:	0007883a 	mov	r3,zero
  803114:	01c00104 	movi	r7,4
  803118:	4004923a 	slli	r2,r8,8
  80311c:	18c00044 	addi	r3,r3,1
  803120:	1151883a 	add	r8,r2,r5
  803124:	19fffc1e 	bne	r3,r7,803118 <memchr+0x50>
  803128:	02bfbff4 	movhi	r10,65279
  80312c:	52bfbfc4 	addi	r10,r10,-257
  803130:	02602074 	movhi	r9,32897
  803134:	4a602004 	addi	r9,r9,-32640
  803138:	02c000c4 	movi	r11,3
  80313c:	20800017 	ldw	r2,0(r4)
  803140:	31bfff04 	addi	r6,r6,-4
  803144:	200f883a 	mov	r7,r4
  803148:	1204f03a 	xor	r2,r2,r8
  80314c:	1287883a 	add	r3,r2,r10
  803150:	1a46703a 	and	r3,r3,r9
  803154:	0084303a 	nor	r2,zero,r2
  803158:	10c4703a 	and	r2,r2,r3
  80315c:	10000b26 	beq	r2,zero,80318c <memchr+0xc4>
  803160:	20800003 	ldbu	r2,0(r4)
  803164:	28800f26 	beq	r5,r2,8031a4 <memchr+0xdc>
  803168:	20800043 	ldbu	r2,1(r4)
  80316c:	21c00044 	addi	r7,r4,1
  803170:	28800c26 	beq	r5,r2,8031a4 <memchr+0xdc>
  803174:	20800083 	ldbu	r2,2(r4)
  803178:	21c00084 	addi	r7,r4,2
  80317c:	28800926 	beq	r5,r2,8031a4 <memchr+0xdc>
  803180:	208000c3 	ldbu	r2,3(r4)
  803184:	21c000c4 	addi	r7,r4,3
  803188:	28800626 	beq	r5,r2,8031a4 <memchr+0xdc>
  80318c:	21000104 	addi	r4,r4,4
  803190:	59bfea36 	bltu	r11,r6,80313c <memchr+0x74>
  803194:	2007883a 	mov	r3,r4
  803198:	003fd106 	br	8030e0 <memchr+0x18>
  80319c:	0005883a 	mov	r2,zero
  8031a0:	f800283a 	ret
  8031a4:	3805883a 	mov	r2,r7
  8031a8:	f800283a 	ret

008031ac <memcpy>:
  8031ac:	01c003c4 	movi	r7,15
  8031b0:	2007883a 	mov	r3,r4
  8031b4:	3980032e 	bgeu	r7,r6,8031c4 <memcpy+0x18>
  8031b8:	2904b03a 	or	r2,r5,r4
  8031bc:	108000cc 	andi	r2,r2,3
  8031c0:	10000926 	beq	r2,zero,8031e8 <memcpy+0x3c>
  8031c4:	30000626 	beq	r6,zero,8031e0 <memcpy+0x34>
  8031c8:	30cd883a 	add	r6,r6,r3
  8031cc:	28800003 	ldbu	r2,0(r5)
  8031d0:	29400044 	addi	r5,r5,1
  8031d4:	18800005 	stb	r2,0(r3)
  8031d8:	18c00044 	addi	r3,r3,1
  8031dc:	30fffb1e 	bne	r6,r3,8031cc <memcpy+0x20>
  8031e0:	2005883a 	mov	r2,r4
  8031e4:	f800283a 	ret
  8031e8:	3811883a 	mov	r8,r7
  8031ec:	200f883a 	mov	r7,r4
  8031f0:	28c00017 	ldw	r3,0(r5)
  8031f4:	31bffc04 	addi	r6,r6,-16
  8031f8:	38c00015 	stw	r3,0(r7)
  8031fc:	28800117 	ldw	r2,4(r5)
  803200:	38800115 	stw	r2,4(r7)
  803204:	28c00217 	ldw	r3,8(r5)
  803208:	38c00215 	stw	r3,8(r7)
  80320c:	28800317 	ldw	r2,12(r5)
  803210:	29400404 	addi	r5,r5,16
  803214:	38800315 	stw	r2,12(r7)
  803218:	39c00404 	addi	r7,r7,16
  80321c:	41bff436 	bltu	r8,r6,8031f0 <memcpy+0x44>
  803220:	008000c4 	movi	r2,3
  803224:	1180072e 	bgeu	r2,r6,803244 <memcpy+0x98>
  803228:	1007883a 	mov	r3,r2
  80322c:	28800017 	ldw	r2,0(r5)
  803230:	31bfff04 	addi	r6,r6,-4
  803234:	29400104 	addi	r5,r5,4
  803238:	38800015 	stw	r2,0(r7)
  80323c:	39c00104 	addi	r7,r7,4
  803240:	19bffa36 	bltu	r3,r6,80322c <memcpy+0x80>
  803244:	3807883a 	mov	r3,r7
  803248:	003fde06 	br	8031c4 <memcpy+0x18>

0080324c <memmove>:
  80324c:	2807883a 	mov	r3,r5
  803250:	2011883a 	mov	r8,r4
  803254:	29000c2e 	bgeu	r5,r4,803288 <memmove+0x3c>
  803258:	298f883a 	add	r7,r5,r6
  80325c:	21c00a2e 	bgeu	r4,r7,803288 <memmove+0x3c>
  803260:	30000726 	beq	r6,zero,803280 <memmove+0x34>
  803264:	2187883a 	add	r3,r4,r6
  803268:	198dc83a 	sub	r6,r3,r6
  80326c:	39ffffc4 	addi	r7,r7,-1
  803270:	38800003 	ldbu	r2,0(r7)
  803274:	18ffffc4 	addi	r3,r3,-1
  803278:	18800005 	stb	r2,0(r3)
  80327c:	19bffb1e 	bne	r3,r6,80326c <memmove+0x20>
  803280:	2005883a 	mov	r2,r4
  803284:	f800283a 	ret
  803288:	01c003c4 	movi	r7,15
  80328c:	39800a36 	bltu	r7,r6,8032b8 <memmove+0x6c>
  803290:	303ffb26 	beq	r6,zero,803280 <memmove+0x34>
  803294:	400f883a 	mov	r7,r8
  803298:	320d883a 	add	r6,r6,r8
  80329c:	28800003 	ldbu	r2,0(r5)
  8032a0:	29400044 	addi	r5,r5,1
  8032a4:	38800005 	stb	r2,0(r7)
  8032a8:	39c00044 	addi	r7,r7,1
  8032ac:	39bffb1e 	bne	r7,r6,80329c <memmove+0x50>
  8032b0:	2005883a 	mov	r2,r4
  8032b4:	f800283a 	ret
  8032b8:	1904b03a 	or	r2,r3,r4
  8032bc:	108000cc 	andi	r2,r2,3
  8032c0:	103ff31e 	bne	r2,zero,803290 <memmove+0x44>
  8032c4:	3811883a 	mov	r8,r7
  8032c8:	180b883a 	mov	r5,r3
  8032cc:	200f883a 	mov	r7,r4
  8032d0:	28c00017 	ldw	r3,0(r5)
  8032d4:	31bffc04 	addi	r6,r6,-16
  8032d8:	38c00015 	stw	r3,0(r7)
  8032dc:	28800117 	ldw	r2,4(r5)
  8032e0:	38800115 	stw	r2,4(r7)
  8032e4:	28c00217 	ldw	r3,8(r5)
  8032e8:	38c00215 	stw	r3,8(r7)
  8032ec:	28800317 	ldw	r2,12(r5)
  8032f0:	29400404 	addi	r5,r5,16
  8032f4:	38800315 	stw	r2,12(r7)
  8032f8:	39c00404 	addi	r7,r7,16
  8032fc:	41bff436 	bltu	r8,r6,8032d0 <memmove+0x84>
  803300:	008000c4 	movi	r2,3
  803304:	1180072e 	bgeu	r2,r6,803324 <memmove+0xd8>
  803308:	1007883a 	mov	r3,r2
  80330c:	28800017 	ldw	r2,0(r5)
  803310:	31bfff04 	addi	r6,r6,-4
  803314:	29400104 	addi	r5,r5,4
  803318:	38800015 	stw	r2,0(r7)
  80331c:	39c00104 	addi	r7,r7,4
  803320:	19bffa36 	bltu	r3,r6,80330c <memmove+0xc0>
  803324:	3811883a 	mov	r8,r7
  803328:	003fd906 	br	803290 <memmove+0x44>

0080332c <memset>:
  80332c:	008000c4 	movi	r2,3
  803330:	29403fcc 	andi	r5,r5,255
  803334:	2007883a 	mov	r3,r4
  803338:	1180022e 	bgeu	r2,r6,803344 <memset+0x18>
  80333c:	2084703a 	and	r2,r4,r2
  803340:	10000826 	beq	r2,zero,803364 <memset+0x38>
  803344:	30000526 	beq	r6,zero,80335c <memset+0x30>
  803348:	2805883a 	mov	r2,r5
  80334c:	30cd883a 	add	r6,r6,r3
  803350:	18800005 	stb	r2,0(r3)
  803354:	18c00044 	addi	r3,r3,1
  803358:	19bffd1e 	bne	r3,r6,803350 <memset+0x24>
  80335c:	2005883a 	mov	r2,r4
  803360:	f800283a 	ret
  803364:	2804923a 	slli	r2,r5,8
  803368:	020003c4 	movi	r8,15
  80336c:	200f883a 	mov	r7,r4
  803370:	2884b03a 	or	r2,r5,r2
  803374:	1006943a 	slli	r3,r2,16
  803378:	10c6b03a 	or	r3,r2,r3
  80337c:	41800a2e 	bgeu	r8,r6,8033a8 <memset+0x7c>
  803380:	4005883a 	mov	r2,r8
  803384:	31bffc04 	addi	r6,r6,-16
  803388:	38c00015 	stw	r3,0(r7)
  80338c:	38c00115 	stw	r3,4(r7)
  803390:	38c00215 	stw	r3,8(r7)
  803394:	38c00315 	stw	r3,12(r7)
  803398:	39c00404 	addi	r7,r7,16
  80339c:	11bff936 	bltu	r2,r6,803384 <memset+0x58>
  8033a0:	008000c4 	movi	r2,3
  8033a4:	1180052e 	bgeu	r2,r6,8033bc <memset+0x90>
  8033a8:	31bfff04 	addi	r6,r6,-4
  8033ac:	008000c4 	movi	r2,3
  8033b0:	38c00015 	stw	r3,0(r7)
  8033b4:	39c00104 	addi	r7,r7,4
  8033b8:	11bffb36 	bltu	r2,r6,8033a8 <memset+0x7c>
  8033bc:	3807883a 	mov	r3,r7
  8033c0:	003fe006 	br	803344 <memset+0x18>

008033c4 <_open_r>:
  8033c4:	defffd04 	addi	sp,sp,-12
  8033c8:	dc000015 	stw	r16,0(sp)
  8033cc:	040020b4 	movhi	r16,130
  8033d0:	8422ed04 	addi	r16,r16,-29772
  8033d4:	dc400115 	stw	r17,4(sp)
  8033d8:	80000015 	stw	zero,0(r16)
  8033dc:	2023883a 	mov	r17,r4
  8033e0:	2809883a 	mov	r4,r5
  8033e4:	300b883a 	mov	r5,r6
  8033e8:	380d883a 	mov	r6,r7
  8033ec:	dfc00215 	stw	ra,8(sp)
  8033f0:	0810e940 	call	810e94 <open>
  8033f4:	1007883a 	mov	r3,r2
  8033f8:	00bfffc4 	movi	r2,-1
  8033fc:	18800626 	beq	r3,r2,803418 <_open_r+0x54>
  803400:	1805883a 	mov	r2,r3
  803404:	dfc00217 	ldw	ra,8(sp)
  803408:	dc400117 	ldw	r17,4(sp)
  80340c:	dc000017 	ldw	r16,0(sp)
  803410:	dec00304 	addi	sp,sp,12
  803414:	f800283a 	ret
  803418:	80800017 	ldw	r2,0(r16)
  80341c:	103ff826 	beq	r2,zero,803400 <_open_r+0x3c>
  803420:	88800015 	stw	r2,0(r17)
  803424:	1805883a 	mov	r2,r3
  803428:	dfc00217 	ldw	ra,8(sp)
  80342c:	dc400117 	ldw	r17,4(sp)
  803430:	dc000017 	ldw	r16,0(sp)
  803434:	dec00304 	addi	sp,sp,12
  803438:	f800283a 	ret

0080343c <printf>:
  80343c:	defffb04 	addi	sp,sp,-20
  803440:	dfc00115 	stw	ra,4(sp)
  803444:	d9400215 	stw	r5,8(sp)
  803448:	d9800315 	stw	r6,12(sp)
  80344c:	d9c00415 	stw	r7,16(sp)
  803450:	00802074 	movhi	r2,129
  803454:	109b9704 	addi	r2,r2,28252
  803458:	10c00017 	ldw	r3,0(r2)
  80345c:	200b883a 	mov	r5,r4
  803460:	d8800204 	addi	r2,sp,8
  803464:	19000217 	ldw	r4,8(r3)
  803468:	100d883a 	mov	r6,r2
  80346c:	d8800015 	stw	r2,0(sp)
  803470:	08060040 	call	806004 <__vfprintf_internal>
  803474:	dfc00117 	ldw	ra,4(sp)
  803478:	dec00504 	addi	sp,sp,20
  80347c:	f800283a 	ret

00803480 <_printf_r>:
  803480:	defffc04 	addi	sp,sp,-16
  803484:	dfc00115 	stw	ra,4(sp)
  803488:	d9800215 	stw	r6,8(sp)
  80348c:	d9c00315 	stw	r7,12(sp)
  803490:	280d883a 	mov	r6,r5
  803494:	21400217 	ldw	r5,8(r4)
  803498:	d8c00204 	addi	r3,sp,8
  80349c:	180f883a 	mov	r7,r3
  8034a0:	d8c00015 	stw	r3,0(sp)
  8034a4:	08041580 	call	804158 <___vfprintf_internal_r>
  8034a8:	dfc00117 	ldw	ra,4(sp)
  8034ac:	dec00404 	addi	sp,sp,16
  8034b0:	f800283a 	ret

008034b4 <_realloc_r>:
  8034b4:	defff404 	addi	sp,sp,-48
  8034b8:	dd800815 	stw	r22,32(sp)
  8034bc:	dc800415 	stw	r18,16(sp)
  8034c0:	dc400315 	stw	r17,12(sp)
  8034c4:	dfc00b15 	stw	ra,44(sp)
  8034c8:	df000a15 	stw	fp,40(sp)
  8034cc:	ddc00915 	stw	r23,36(sp)
  8034d0:	dd400715 	stw	r21,28(sp)
  8034d4:	dd000615 	stw	r20,24(sp)
  8034d8:	dcc00515 	stw	r19,20(sp)
  8034dc:	dc000215 	stw	r16,8(sp)
  8034e0:	2825883a 	mov	r18,r5
  8034e4:	3023883a 	mov	r17,r6
  8034e8:	202d883a 	mov	r22,r4
  8034ec:	2800c926 	beq	r5,zero,803814 <_realloc_r+0x360>
  8034f0:	0810d780 	call	810d78 <__malloc_lock>
  8034f4:	943ffe04 	addi	r16,r18,-8
  8034f8:	88c002c4 	addi	r3,r17,11
  8034fc:	00800584 	movi	r2,22
  803500:	82000117 	ldw	r8,4(r16)
  803504:	10c01b2e 	bgeu	r2,r3,803574 <_realloc_r+0xc0>
  803508:	00bffe04 	movi	r2,-8
  80350c:	188e703a 	and	r7,r3,r2
  803510:	3839883a 	mov	fp,r7
  803514:	38001a16 	blt	r7,zero,803580 <_realloc_r+0xcc>
  803518:	e4401936 	bltu	fp,r17,803580 <_realloc_r+0xcc>
  80351c:	013fff04 	movi	r4,-4
  803520:	4126703a 	and	r19,r8,r4
  803524:	99c02616 	blt	r19,r7,8035c0 <_realloc_r+0x10c>
  803528:	802b883a 	mov	r21,r16
  80352c:	9829883a 	mov	r20,r19
  803530:	84000204 	addi	r16,r16,8
  803534:	a80f883a 	mov	r7,r21
  803538:	a70dc83a 	sub	r6,r20,fp
  80353c:	008003c4 	movi	r2,15
  803540:	1180c136 	bltu	r2,r6,803848 <_realloc_r+0x394>
  803544:	38800117 	ldw	r2,4(r7)
  803548:	a549883a 	add	r4,r20,r21
  80354c:	1080004c 	andi	r2,r2,1
  803550:	a084b03a 	or	r2,r20,r2
  803554:	38800115 	stw	r2,4(r7)
  803558:	20c00117 	ldw	r3,4(r4)
  80355c:	18c00054 	ori	r3,r3,1
  803560:	20c00115 	stw	r3,4(r4)
  803564:	b009883a 	mov	r4,r22
  803568:	0810d980 	call	810d98 <__malloc_unlock>
  80356c:	8023883a 	mov	r17,r16
  803570:	00000606 	br	80358c <_realloc_r+0xd8>
  803574:	01c00404 	movi	r7,16
  803578:	3839883a 	mov	fp,r7
  80357c:	e47fe72e 	bgeu	fp,r17,80351c <_realloc_r+0x68>
  803580:	00800304 	movi	r2,12
  803584:	0023883a 	mov	r17,zero
  803588:	b0800015 	stw	r2,0(r22)
  80358c:	8805883a 	mov	r2,r17
  803590:	dfc00b17 	ldw	ra,44(sp)
  803594:	df000a17 	ldw	fp,40(sp)
  803598:	ddc00917 	ldw	r23,36(sp)
  80359c:	dd800817 	ldw	r22,32(sp)
  8035a0:	dd400717 	ldw	r21,28(sp)
  8035a4:	dd000617 	ldw	r20,24(sp)
  8035a8:	dcc00517 	ldw	r19,20(sp)
  8035ac:	dc800417 	ldw	r18,16(sp)
  8035b0:	dc400317 	ldw	r17,12(sp)
  8035b4:	dc000217 	ldw	r16,8(sp)
  8035b8:	dec00c04 	addi	sp,sp,48
  8035bc:	f800283a 	ret
  8035c0:	00802074 	movhi	r2,129
  8035c4:	10958904 	addi	r2,r2,22052
  8035c8:	12400217 	ldw	r9,8(r2)
  8035cc:	84cd883a 	add	r6,r16,r19
  8035d0:	802b883a 	mov	r21,r16
  8035d4:	3240b926 	beq	r6,r9,8038bc <_realloc_r+0x408>
  8035d8:	31400117 	ldw	r5,4(r6)
  8035dc:	00bfff84 	movi	r2,-2
  8035e0:	2884703a 	and	r2,r5,r2
  8035e4:	1185883a 	add	r2,r2,r6
  8035e8:	10c00117 	ldw	r3,4(r2)
  8035ec:	18c0004c 	andi	r3,r3,1
  8035f0:	1807003a 	cmpeq	r3,r3,zero
  8035f4:	1800a326 	beq	r3,zero,803884 <_realloc_r+0x3d0>
  8035f8:	2908703a 	and	r4,r5,r4
  8035fc:	9929883a 	add	r20,r19,r4
  803600:	a1c0a30e 	bge	r20,r7,803890 <_realloc_r+0x3dc>
  803604:	4080004c 	andi	r2,r8,1
  803608:	1000551e 	bne	r2,zero,803760 <_realloc_r+0x2ac>
  80360c:	80800017 	ldw	r2,0(r16)
  803610:	80afc83a 	sub	r23,r16,r2
  803614:	b8c00117 	ldw	r3,4(r23)
  803618:	00bfff04 	movi	r2,-4
  80361c:	1884703a 	and	r2,r3,r2
  803620:	30002e26 	beq	r6,zero,8036dc <_realloc_r+0x228>
  803624:	3240b926 	beq	r6,r9,80390c <_realloc_r+0x458>
  803628:	98a9883a 	add	r20,r19,r2
  80362c:	2509883a 	add	r4,r4,r20
  803630:	d9000015 	stw	r4,0(sp)
  803634:	21c02a16 	blt	r4,r7,8036e0 <_realloc_r+0x22c>
  803638:	30800317 	ldw	r2,12(r6)
  80363c:	30c00217 	ldw	r3,8(r6)
  803640:	01400904 	movi	r5,36
  803644:	99bfff04 	addi	r6,r19,-4
  803648:	18800315 	stw	r2,12(r3)
  80364c:	10c00215 	stw	r3,8(r2)
  803650:	b9000317 	ldw	r4,12(r23)
  803654:	b8800217 	ldw	r2,8(r23)
  803658:	b82b883a 	mov	r21,r23
  80365c:	bc000204 	addi	r16,r23,8
  803660:	20800215 	stw	r2,8(r4)
  803664:	11000315 	stw	r4,12(r2)
  803668:	2980e436 	bltu	r5,r6,8039fc <_realloc_r+0x548>
  80366c:	008004c4 	movi	r2,19
  803670:	9009883a 	mov	r4,r18
  803674:	8011883a 	mov	r8,r16
  803678:	11800f2e 	bgeu	r2,r6,8036b8 <_realloc_r+0x204>
  80367c:	90800017 	ldw	r2,0(r18)
  803680:	ba000404 	addi	r8,r23,16
  803684:	91000204 	addi	r4,r18,8
  803688:	b8800215 	stw	r2,8(r23)
  80368c:	90c00117 	ldw	r3,4(r18)
  803690:	008006c4 	movi	r2,27
  803694:	b8c00315 	stw	r3,12(r23)
  803698:	1180072e 	bgeu	r2,r6,8036b8 <_realloc_r+0x204>
  80369c:	90c00217 	ldw	r3,8(r18)
  8036a0:	ba000604 	addi	r8,r23,24
  8036a4:	91000404 	addi	r4,r18,16
  8036a8:	b8c00415 	stw	r3,16(r23)
  8036ac:	90800317 	ldw	r2,12(r18)
  8036b0:	b8800515 	stw	r2,20(r23)
  8036b4:	3140e726 	beq	r6,r5,803a54 <_realloc_r+0x5a0>
  8036b8:	20800017 	ldw	r2,0(r4)
  8036bc:	dd000017 	ldw	r20,0(sp)
  8036c0:	b80f883a 	mov	r7,r23
  8036c4:	40800015 	stw	r2,0(r8)
  8036c8:	20c00117 	ldw	r3,4(r4)
  8036cc:	40c00115 	stw	r3,4(r8)
  8036d0:	20800217 	ldw	r2,8(r4)
  8036d4:	40800215 	stw	r2,8(r8)
  8036d8:	003f9706 	br	803538 <_realloc_r+0x84>
  8036dc:	98a9883a 	add	r20,r19,r2
  8036e0:	a1c01f16 	blt	r20,r7,803760 <_realloc_r+0x2ac>
  8036e4:	b8c00317 	ldw	r3,12(r23)
  8036e8:	b8800217 	ldw	r2,8(r23)
  8036ec:	99bfff04 	addi	r6,r19,-4
  8036f0:	01400904 	movi	r5,36
  8036f4:	b82b883a 	mov	r21,r23
  8036f8:	18800215 	stw	r2,8(r3)
  8036fc:	10c00315 	stw	r3,12(r2)
  803700:	bc000204 	addi	r16,r23,8
  803704:	2980c336 	bltu	r5,r6,803a14 <_realloc_r+0x560>
  803708:	008004c4 	movi	r2,19
  80370c:	9009883a 	mov	r4,r18
  803710:	8011883a 	mov	r8,r16
  803714:	11800f2e 	bgeu	r2,r6,803754 <_realloc_r+0x2a0>
  803718:	90800017 	ldw	r2,0(r18)
  80371c:	ba000404 	addi	r8,r23,16
  803720:	91000204 	addi	r4,r18,8
  803724:	b8800215 	stw	r2,8(r23)
  803728:	90c00117 	ldw	r3,4(r18)
  80372c:	008006c4 	movi	r2,27
  803730:	b8c00315 	stw	r3,12(r23)
  803734:	1180072e 	bgeu	r2,r6,803754 <_realloc_r+0x2a0>
  803738:	90c00217 	ldw	r3,8(r18)
  80373c:	ba000604 	addi	r8,r23,24
  803740:	91000404 	addi	r4,r18,16
  803744:	b8c00415 	stw	r3,16(r23)
  803748:	90800317 	ldw	r2,12(r18)
  80374c:	b8800515 	stw	r2,20(r23)
  803750:	3140c726 	beq	r6,r5,803a70 <_realloc_r+0x5bc>
  803754:	20800017 	ldw	r2,0(r4)
  803758:	b80f883a 	mov	r7,r23
  80375c:	003fd906 	br	8036c4 <_realloc_r+0x210>
  803760:	880b883a 	mov	r5,r17
  803764:	b009883a 	mov	r4,r22
  803768:	08029880 	call	802988 <_malloc_r>
  80376c:	1023883a 	mov	r17,r2
  803770:	10002526 	beq	r2,zero,803808 <_realloc_r+0x354>
  803774:	80800117 	ldw	r2,4(r16)
  803778:	00ffff84 	movi	r3,-2
  80377c:	893ffe04 	addi	r4,r17,-8
  803780:	10c4703a 	and	r2,r2,r3
  803784:	8085883a 	add	r2,r16,r2
  803788:	20809526 	beq	r4,r2,8039e0 <_realloc_r+0x52c>
  80378c:	99bfff04 	addi	r6,r19,-4
  803790:	01c00904 	movi	r7,36
  803794:	39804536 	bltu	r7,r6,8038ac <_realloc_r+0x3f8>
  803798:	008004c4 	movi	r2,19
  80379c:	9009883a 	mov	r4,r18
  8037a0:	880b883a 	mov	r5,r17
  8037a4:	11800f2e 	bgeu	r2,r6,8037e4 <_realloc_r+0x330>
  8037a8:	90800017 	ldw	r2,0(r18)
  8037ac:	89400204 	addi	r5,r17,8
  8037b0:	91000204 	addi	r4,r18,8
  8037b4:	88800015 	stw	r2,0(r17)
  8037b8:	90c00117 	ldw	r3,4(r18)
  8037bc:	008006c4 	movi	r2,27
  8037c0:	88c00115 	stw	r3,4(r17)
  8037c4:	1180072e 	bgeu	r2,r6,8037e4 <_realloc_r+0x330>
  8037c8:	90c00217 	ldw	r3,8(r18)
  8037cc:	89400404 	addi	r5,r17,16
  8037d0:	91000404 	addi	r4,r18,16
  8037d4:	88c00215 	stw	r3,8(r17)
  8037d8:	90800317 	ldw	r2,12(r18)
  8037dc:	88800315 	stw	r2,12(r17)
  8037e0:	31c09126 	beq	r6,r7,803a28 <_realloc_r+0x574>
  8037e4:	20800017 	ldw	r2,0(r4)
  8037e8:	28800015 	stw	r2,0(r5)
  8037ec:	20c00117 	ldw	r3,4(r4)
  8037f0:	28c00115 	stw	r3,4(r5)
  8037f4:	20800217 	ldw	r2,8(r4)
  8037f8:	28800215 	stw	r2,8(r5)
  8037fc:	900b883a 	mov	r5,r18
  803800:	b009883a 	mov	r4,r22
  803804:	08019f00 	call	8019f0 <_free_r>
  803808:	b009883a 	mov	r4,r22
  80380c:	0810d980 	call	810d98 <__malloc_unlock>
  803810:	003f5e06 	br	80358c <_realloc_r+0xd8>
  803814:	300b883a 	mov	r5,r6
  803818:	dfc00b17 	ldw	ra,44(sp)
  80381c:	df000a17 	ldw	fp,40(sp)
  803820:	ddc00917 	ldw	r23,36(sp)
  803824:	dd800817 	ldw	r22,32(sp)
  803828:	dd400717 	ldw	r21,28(sp)
  80382c:	dd000617 	ldw	r20,24(sp)
  803830:	dcc00517 	ldw	r19,20(sp)
  803834:	dc800417 	ldw	r18,16(sp)
  803838:	dc400317 	ldw	r17,12(sp)
  80383c:	dc000217 	ldw	r16,8(sp)
  803840:	dec00c04 	addi	sp,sp,48
  803844:	08029881 	jmpi	802988 <_malloc_r>
  803848:	38800117 	ldw	r2,4(r7)
  80384c:	e54b883a 	add	r5,fp,r21
  803850:	31000054 	ori	r4,r6,1
  803854:	1080004c 	andi	r2,r2,1
  803858:	1704b03a 	or	r2,r2,fp
  80385c:	38800115 	stw	r2,4(r7)
  803860:	29000115 	stw	r4,4(r5)
  803864:	2987883a 	add	r3,r5,r6
  803868:	18800117 	ldw	r2,4(r3)
  80386c:	29400204 	addi	r5,r5,8
  803870:	b009883a 	mov	r4,r22
  803874:	10800054 	ori	r2,r2,1
  803878:	18800115 	stw	r2,4(r3)
  80387c:	08019f00 	call	8019f0 <_free_r>
  803880:	003f3806 	br	803564 <_realloc_r+0xb0>
  803884:	000d883a 	mov	r6,zero
  803888:	0009883a 	mov	r4,zero
  80388c:	003f5d06 	br	803604 <_realloc_r+0x150>
  803890:	30c00217 	ldw	r3,8(r6)
  803894:	30800317 	ldw	r2,12(r6)
  803898:	800f883a 	mov	r7,r16
  80389c:	84000204 	addi	r16,r16,8
  8038a0:	10c00215 	stw	r3,8(r2)
  8038a4:	18800315 	stw	r2,12(r3)
  8038a8:	003f2306 	br	803538 <_realloc_r+0x84>
  8038ac:	8809883a 	mov	r4,r17
  8038b0:	900b883a 	mov	r5,r18
  8038b4:	080324c0 	call	80324c <memmove>
  8038b8:	003fd006 	br	8037fc <_realloc_r+0x348>
  8038bc:	30800117 	ldw	r2,4(r6)
  8038c0:	e0c00404 	addi	r3,fp,16
  8038c4:	1108703a 	and	r4,r2,r4
  8038c8:	9905883a 	add	r2,r19,r4
  8038cc:	10ff4d16 	blt	r2,r3,803604 <_realloc_r+0x150>
  8038d0:	1705c83a 	sub	r2,r2,fp
  8038d4:	870b883a 	add	r5,r16,fp
  8038d8:	10800054 	ori	r2,r2,1
  8038dc:	28800115 	stw	r2,4(r5)
  8038e0:	80c00117 	ldw	r3,4(r16)
  8038e4:	00802074 	movhi	r2,129
  8038e8:	10958904 	addi	r2,r2,22052
  8038ec:	b009883a 	mov	r4,r22
  8038f0:	18c0004c 	andi	r3,r3,1
  8038f4:	e0c6b03a 	or	r3,fp,r3
  8038f8:	11400215 	stw	r5,8(r2)
  8038fc:	80c00115 	stw	r3,4(r16)
  803900:	0810d980 	call	810d98 <__malloc_unlock>
  803904:	84400204 	addi	r17,r16,8
  803908:	003f2006 	br	80358c <_realloc_r+0xd8>
  80390c:	98a9883a 	add	r20,r19,r2
  803910:	2509883a 	add	r4,r4,r20
  803914:	e0800404 	addi	r2,fp,16
  803918:	d9000115 	stw	r4,4(sp)
  80391c:	20bf7016 	blt	r4,r2,8036e0 <_realloc_r+0x22c>
  803920:	b8c00317 	ldw	r3,12(r23)
  803924:	b8800217 	ldw	r2,8(r23)
  803928:	99bfff04 	addi	r6,r19,-4
  80392c:	01400904 	movi	r5,36
  803930:	18800215 	stw	r2,8(r3)
  803934:	10c00315 	stw	r3,12(r2)
  803938:	bc400204 	addi	r17,r23,8
  80393c:	29804136 	bltu	r5,r6,803a44 <_realloc_r+0x590>
  803940:	008004c4 	movi	r2,19
  803944:	9009883a 	mov	r4,r18
  803948:	880f883a 	mov	r7,r17
  80394c:	11800f2e 	bgeu	r2,r6,80398c <_realloc_r+0x4d8>
  803950:	90800017 	ldw	r2,0(r18)
  803954:	b9c00404 	addi	r7,r23,16
  803958:	91000204 	addi	r4,r18,8
  80395c:	b8800215 	stw	r2,8(r23)
  803960:	90c00117 	ldw	r3,4(r18)
  803964:	008006c4 	movi	r2,27
  803968:	b8c00315 	stw	r3,12(r23)
  80396c:	1180072e 	bgeu	r2,r6,80398c <_realloc_r+0x4d8>
  803970:	90c00217 	ldw	r3,8(r18)
  803974:	b9c00604 	addi	r7,r23,24
  803978:	91000404 	addi	r4,r18,16
  80397c:	b8c00415 	stw	r3,16(r23)
  803980:	90800317 	ldw	r2,12(r18)
  803984:	b8800515 	stw	r2,20(r23)
  803988:	31404026 	beq	r6,r5,803a8c <_realloc_r+0x5d8>
  80398c:	20800017 	ldw	r2,0(r4)
  803990:	38800015 	stw	r2,0(r7)
  803994:	20c00117 	ldw	r3,4(r4)
  803998:	38c00115 	stw	r3,4(r7)
  80399c:	20800217 	ldw	r2,8(r4)
  8039a0:	38800215 	stw	r2,8(r7)
  8039a4:	d8c00117 	ldw	r3,4(sp)
  8039a8:	bf0b883a 	add	r5,r23,fp
  8039ac:	b009883a 	mov	r4,r22
  8039b0:	1f05c83a 	sub	r2,r3,fp
  8039b4:	10800054 	ori	r2,r2,1
  8039b8:	28800115 	stw	r2,4(r5)
  8039bc:	b8c00117 	ldw	r3,4(r23)
  8039c0:	00802074 	movhi	r2,129
  8039c4:	10958904 	addi	r2,r2,22052
  8039c8:	11400215 	stw	r5,8(r2)
  8039cc:	18c0004c 	andi	r3,r3,1
  8039d0:	e0c6b03a 	or	r3,fp,r3
  8039d4:	b8c00115 	stw	r3,4(r23)
  8039d8:	0810d980 	call	810d98 <__malloc_unlock>
  8039dc:	003eeb06 	br	80358c <_realloc_r+0xd8>
  8039e0:	20800117 	ldw	r2,4(r4)
  8039e4:	00ffff04 	movi	r3,-4
  8039e8:	800f883a 	mov	r7,r16
  8039ec:	10c4703a 	and	r2,r2,r3
  8039f0:	98a9883a 	add	r20,r19,r2
  8039f4:	84000204 	addi	r16,r16,8
  8039f8:	003ecf06 	br	803538 <_realloc_r+0x84>
  8039fc:	900b883a 	mov	r5,r18
  803a00:	8009883a 	mov	r4,r16
  803a04:	080324c0 	call	80324c <memmove>
  803a08:	dd000017 	ldw	r20,0(sp)
  803a0c:	b80f883a 	mov	r7,r23
  803a10:	003ec906 	br	803538 <_realloc_r+0x84>
  803a14:	900b883a 	mov	r5,r18
  803a18:	8009883a 	mov	r4,r16
  803a1c:	080324c0 	call	80324c <memmove>
  803a20:	b80f883a 	mov	r7,r23
  803a24:	003ec406 	br	803538 <_realloc_r+0x84>
  803a28:	90c00417 	ldw	r3,16(r18)
  803a2c:	89400604 	addi	r5,r17,24
  803a30:	91000604 	addi	r4,r18,24
  803a34:	88c00415 	stw	r3,16(r17)
  803a38:	90800517 	ldw	r2,20(r18)
  803a3c:	88800515 	stw	r2,20(r17)
  803a40:	003f6806 	br	8037e4 <_realloc_r+0x330>
  803a44:	900b883a 	mov	r5,r18
  803a48:	8809883a 	mov	r4,r17
  803a4c:	080324c0 	call	80324c <memmove>
  803a50:	003fd406 	br	8039a4 <_realloc_r+0x4f0>
  803a54:	90c00417 	ldw	r3,16(r18)
  803a58:	91000604 	addi	r4,r18,24
  803a5c:	ba000804 	addi	r8,r23,32
  803a60:	b8c00615 	stw	r3,24(r23)
  803a64:	90800517 	ldw	r2,20(r18)
  803a68:	b8800715 	stw	r2,28(r23)
  803a6c:	003f1206 	br	8036b8 <_realloc_r+0x204>
  803a70:	90c00417 	ldw	r3,16(r18)
  803a74:	91000604 	addi	r4,r18,24
  803a78:	ba000804 	addi	r8,r23,32
  803a7c:	b8c00615 	stw	r3,24(r23)
  803a80:	90800517 	ldw	r2,20(r18)
  803a84:	b8800715 	stw	r2,28(r23)
  803a88:	003f3206 	br	803754 <_realloc_r+0x2a0>
  803a8c:	90c00417 	ldw	r3,16(r18)
  803a90:	91000604 	addi	r4,r18,24
  803a94:	b9c00804 	addi	r7,r23,32
  803a98:	b8c00615 	stw	r3,24(r23)
  803a9c:	90800517 	ldw	r2,20(r18)
  803aa0:	b8800715 	stw	r2,28(r23)
  803aa4:	003fb906 	br	80398c <_realloc_r+0x4d8>

00803aa8 <__srefill_r>:
  803aa8:	defffd04 	addi	sp,sp,-12
  803aac:	dc400115 	stw	r17,4(sp)
  803ab0:	dc000015 	stw	r16,0(sp)
  803ab4:	dfc00215 	stw	ra,8(sp)
  803ab8:	2023883a 	mov	r17,r4
  803abc:	2821883a 	mov	r16,r5
  803ac0:	20000226 	beq	r4,zero,803acc <__srefill_r+0x24>
  803ac4:	20800e17 	ldw	r2,56(r4)
  803ac8:	10004126 	beq	r2,zero,803bd0 <__srefill_r+0x128>
  803acc:	80c0030b 	ldhu	r3,12(r16)
  803ad0:	80000115 	stw	zero,4(r16)
  803ad4:	1880080c 	andi	r2,r3,32
  803ad8:	1000361e 	bne	r2,zero,803bb4 <__srefill_r+0x10c>
  803adc:	1880010c 	andi	r2,r3,4
  803ae0:	1000211e 	bne	r2,zero,803b68 <__srefill_r+0xc0>
  803ae4:	1880040c 	andi	r2,r3,16
  803ae8:	10005026 	beq	r2,zero,803c2c <__srefill_r+0x184>
  803aec:	1880020c 	andi	r2,r3,8
  803af0:	1000541e 	bne	r2,zero,803c44 <__srefill_r+0x19c>
  803af4:	8080030b 	ldhu	r2,12(r16)
  803af8:	10800114 	ori	r2,r2,4
  803afc:	8080030d 	sth	r2,12(r16)
  803b00:	80800417 	ldw	r2,16(r16)
  803b04:	10004526 	beq	r2,zero,803c1c <__srefill_r+0x174>
  803b08:	8080030b 	ldhu	r2,12(r16)
  803b0c:	108000cc 	andi	r2,r2,3
  803b10:	1000361e 	bne	r2,zero,803bec <__srefill_r+0x144>
  803b14:	81800417 	ldw	r6,16(r16)
  803b18:	80c00817 	ldw	r3,32(r16)
  803b1c:	81400717 	ldw	r5,28(r16)
  803b20:	81c00517 	ldw	r7,20(r16)
  803b24:	8809883a 	mov	r4,r17
  803b28:	81800015 	stw	r6,0(r16)
  803b2c:	183ee83a 	callr	r3
  803b30:	80c0030b 	ldhu	r3,12(r16)
  803b34:	1009883a 	mov	r4,r2
  803b38:	80800115 	stw	r2,4(r16)
  803b3c:	00b7ffc4 	movi	r2,-8193
  803b40:	1884703a 	and	r2,r3,r2
  803b44:	8080030d 	sth	r2,12(r16)
  803b48:	0100230e 	bge	zero,r4,803bd8 <__srefill_r+0x130>
  803b4c:	0009883a 	mov	r4,zero
  803b50:	2005883a 	mov	r2,r4
  803b54:	dfc00217 	ldw	ra,8(sp)
  803b58:	dc400117 	ldw	r17,4(sp)
  803b5c:	dc000017 	ldw	r16,0(sp)
  803b60:	dec00304 	addi	sp,sp,12
  803b64:	f800283a 	ret
  803b68:	81400c17 	ldw	r5,48(r16)
  803b6c:	283fe426 	beq	r5,zero,803b00 <__srefill_r+0x58>
  803b70:	80801004 	addi	r2,r16,64
  803b74:	28800226 	beq	r5,r2,803b80 <__srefill_r+0xd8>
  803b78:	8809883a 	mov	r4,r17
  803b7c:	08019f00 	call	8019f0 <_free_r>
  803b80:	80800f17 	ldw	r2,60(r16)
  803b84:	80000c15 	stw	zero,48(r16)
  803b88:	80800115 	stw	r2,4(r16)
  803b8c:	103fdc26 	beq	r2,zero,803b00 <__srefill_r+0x58>
  803b90:	80800e17 	ldw	r2,56(r16)
  803b94:	0009883a 	mov	r4,zero
  803b98:	80800015 	stw	r2,0(r16)
  803b9c:	2005883a 	mov	r2,r4
  803ba0:	dfc00217 	ldw	ra,8(sp)
  803ba4:	dc400117 	ldw	r17,4(sp)
  803ba8:	dc000017 	ldw	r16,0(sp)
  803bac:	dec00304 	addi	sp,sp,12
  803bb0:	f800283a 	ret
  803bb4:	013fffc4 	movi	r4,-1
  803bb8:	2005883a 	mov	r2,r4
  803bbc:	dfc00217 	ldw	ra,8(sp)
  803bc0:	dc400117 	ldw	r17,4(sp)
  803bc4:	dc000017 	ldw	r16,0(sp)
  803bc8:	dec00304 	addi	sp,sp,12
  803bcc:	f800283a 	ret
  803bd0:	080146c0 	call	80146c <__sinit>
  803bd4:	003fbd06 	br	803acc <__srefill_r+0x24>
  803bd8:	20000b1e 	bne	r4,zero,803c08 <__srefill_r+0x160>
  803bdc:	10800814 	ori	r2,r2,32
  803be0:	013fffc4 	movi	r4,-1
  803be4:	8080030d 	sth	r2,12(r16)
  803be8:	003fd906 	br	803b50 <__srefill_r+0xa8>
  803bec:	00802074 	movhi	r2,129
  803bf0:	109b9804 	addi	r2,r2,28256
  803bf4:	11000017 	ldw	r4,0(r2)
  803bf8:	01402034 	movhi	r5,128
  803bfc:	294f1b04 	addi	r5,r5,15468
  803c00:	080273c0 	call	80273c <_fwalk>
  803c04:	003fc306 	br	803b14 <__srefill_r+0x6c>
  803c08:	10801014 	ori	r2,r2,64
  803c0c:	013fffc4 	movi	r4,-1
  803c10:	8080030d 	sth	r2,12(r16)
  803c14:	80000115 	stw	zero,4(r16)
  803c18:	003fcd06 	br	803b50 <__srefill_r+0xa8>
  803c1c:	8809883a 	mov	r4,r17
  803c20:	800b883a 	mov	r5,r16
  803c24:	08027f40 	call	8027f4 <__smakebuf_r>
  803c28:	003fb706 	br	803b08 <__srefill_r+0x60>
  803c2c:	18c01014 	ori	r3,r3,64
  803c30:	00800244 	movi	r2,9
  803c34:	013fffc4 	movi	r4,-1
  803c38:	88800015 	stw	r2,0(r17)
  803c3c:	80c0030d 	sth	r3,12(r16)
  803c40:	003fc306 	br	803b50 <__srefill_r+0xa8>
  803c44:	8809883a 	mov	r4,r17
  803c48:	800b883a 	mov	r5,r16
  803c4c:	08010ac0 	call	8010ac <_fflush_r>
  803c50:	103fd81e 	bne	r2,zero,803bb4 <__srefill_r+0x10c>
  803c54:	8080030b 	ldhu	r2,12(r16)
  803c58:	80000215 	stw	zero,8(r16)
  803c5c:	80000615 	stw	zero,24(r16)
  803c60:	10bffdcc 	andi	r2,r2,65527
  803c64:	8080030d 	sth	r2,12(r16)
  803c68:	003fa206 	br	803af4 <__srefill_r+0x4c>

00803c6c <lflush>:
  803c6c:	20c0030b 	ldhu	r3,12(r4)
  803c70:	01400244 	movi	r5,9
  803c74:	0005883a 	mov	r2,zero
  803c78:	18c0024c 	andi	r3,r3,9
  803c7c:	19400126 	beq	r3,r5,803c84 <lflush+0x18>
  803c80:	f800283a 	ret
  803c84:	08012a81 	jmpi	8012a8 <fflush>

00803c88 <__srget_r>:
  803c88:	defffe04 	addi	sp,sp,-8
  803c8c:	dc000015 	stw	r16,0(sp)
  803c90:	dfc00115 	stw	ra,4(sp)
  803c94:	2821883a 	mov	r16,r5
  803c98:	0803aa80 	call	803aa8 <__srefill_r>
  803c9c:	013fffc4 	movi	r4,-1
  803ca0:	1000071e 	bne	r2,zero,803cc0 <__srget_r+0x38>
  803ca4:	80800117 	ldw	r2,4(r16)
  803ca8:	81000017 	ldw	r4,0(r16)
  803cac:	10bfffc4 	addi	r2,r2,-1
  803cb0:	20c00044 	addi	r3,r4,1
  803cb4:	80800115 	stw	r2,4(r16)
  803cb8:	21000003 	ldbu	r4,0(r4)
  803cbc:	80c00015 	stw	r3,0(r16)
  803cc0:	2005883a 	mov	r2,r4
  803cc4:	dfc00117 	ldw	ra,4(sp)
  803cc8:	dc000017 	ldw	r16,0(sp)
  803ccc:	dec00204 	addi	sp,sp,8
  803cd0:	f800283a 	ret

00803cd4 <__srget>:
  803cd4:	00802074 	movhi	r2,129
  803cd8:	109b9704 	addi	r2,r2,28252
  803cdc:	200b883a 	mov	r5,r4
  803ce0:	11000017 	ldw	r4,0(r2)
  803ce4:	0803c881 	jmpi	803c88 <__srget_r>

00803ce8 <_sbrk_r>:
  803ce8:	defffd04 	addi	sp,sp,-12
  803cec:	dc000015 	stw	r16,0(sp)
  803cf0:	040020b4 	movhi	r16,130
  803cf4:	8422ed04 	addi	r16,r16,-29772
  803cf8:	dc400115 	stw	r17,4(sp)
  803cfc:	80000015 	stw	zero,0(r16)
  803d00:	2023883a 	mov	r17,r4
  803d04:	2809883a 	mov	r4,r5
  803d08:	dfc00215 	stw	ra,8(sp)
  803d0c:	081125c0 	call	81125c <sbrk>
  803d10:	1007883a 	mov	r3,r2
  803d14:	00bfffc4 	movi	r2,-1
  803d18:	18800626 	beq	r3,r2,803d34 <_sbrk_r+0x4c>
  803d1c:	1805883a 	mov	r2,r3
  803d20:	dfc00217 	ldw	ra,8(sp)
  803d24:	dc400117 	ldw	r17,4(sp)
  803d28:	dc000017 	ldw	r16,0(sp)
  803d2c:	dec00304 	addi	sp,sp,12
  803d30:	f800283a 	ret
  803d34:	80800017 	ldw	r2,0(r16)
  803d38:	103ff826 	beq	r2,zero,803d1c <_sbrk_r+0x34>
  803d3c:	88800015 	stw	r2,0(r17)
  803d40:	1805883a 	mov	r2,r3
  803d44:	dfc00217 	ldw	ra,8(sp)
  803d48:	dc400117 	ldw	r17,4(sp)
  803d4c:	dc000017 	ldw	r16,0(sp)
  803d50:	dec00304 	addi	sp,sp,12
  803d54:	f800283a 	ret

00803d58 <sprintf>:
  803d58:	deffe504 	addi	sp,sp,-108
  803d5c:	2013883a 	mov	r9,r4
  803d60:	dfc01815 	stw	ra,96(sp)
  803d64:	d9801915 	stw	r6,100(sp)
  803d68:	d9c01a15 	stw	r7,104(sp)
  803d6c:	d8801904 	addi	r2,sp,100
  803d70:	d8800015 	stw	r2,0(sp)
  803d74:	00802074 	movhi	r2,129
  803d78:	109b9704 	addi	r2,r2,28252
  803d7c:	11000017 	ldw	r4,0(r2)
  803d80:	d9c00017 	ldw	r7,0(sp)
  803d84:	00808204 	movi	r2,520
  803d88:	00e00034 	movhi	r3,32768
  803d8c:	18ffffc4 	addi	r3,r3,-1
  803d90:	280d883a 	mov	r6,r5
  803d94:	d880040d 	sth	r2,16(sp)
  803d98:	d9400104 	addi	r5,sp,4
  803d9c:	00bfffc4 	movi	r2,-1
  803da0:	d8c00615 	stw	r3,24(sp)
  803da4:	d8c00315 	stw	r3,12(sp)
  803da8:	da400515 	stw	r9,20(sp)
  803dac:	d880048d 	sth	r2,18(sp)
  803db0:	da400115 	stw	r9,4(sp)
  803db4:	08041580 	call	804158 <___vfprintf_internal_r>
  803db8:	d8c00117 	ldw	r3,4(sp)
  803dbc:	18000005 	stb	zero,0(r3)
  803dc0:	dfc01817 	ldw	ra,96(sp)
  803dc4:	dec01b04 	addi	sp,sp,108
  803dc8:	f800283a 	ret

00803dcc <_sprintf_r>:
  803dcc:	deffe604 	addi	sp,sp,-104
  803dd0:	2813883a 	mov	r9,r5
  803dd4:	dfc01815 	stw	ra,96(sp)
  803dd8:	d9c01915 	stw	r7,100(sp)
  803ddc:	d8801904 	addi	r2,sp,100
  803de0:	d8800015 	stw	r2,0(sp)
  803de4:	100f883a 	mov	r7,r2
  803de8:	00808204 	movi	r2,520
  803dec:	00e00034 	movhi	r3,32768
  803df0:	18ffffc4 	addi	r3,r3,-1
  803df4:	d880040d 	sth	r2,16(sp)
  803df8:	d9400104 	addi	r5,sp,4
  803dfc:	00bfffc4 	movi	r2,-1
  803e00:	d8c00615 	stw	r3,24(sp)
  803e04:	d8c00315 	stw	r3,12(sp)
  803e08:	da400515 	stw	r9,20(sp)
  803e0c:	d880048d 	sth	r2,18(sp)
  803e10:	da400115 	stw	r9,4(sp)
  803e14:	08041580 	call	804158 <___vfprintf_internal_r>
  803e18:	d8c00117 	ldw	r3,4(sp)
  803e1c:	18000005 	stb	zero,0(r3)
  803e20:	dfc01817 	ldw	ra,96(sp)
  803e24:	dec01a04 	addi	sp,sp,104
  803e28:	f800283a 	ret

00803e2c <eofread>:
  803e2c:	0005883a 	mov	r2,zero
  803e30:	f800283a 	ret

00803e34 <_sscanf_r>:
  803e34:	deffe404 	addi	sp,sp,-112
  803e38:	dcc01915 	stw	r19,100(sp)
  803e3c:	2027883a 	mov	r19,r4
  803e40:	dfc01a15 	stw	ra,104(sp)
  803e44:	dc401815 	stw	r17,96(sp)
  803e48:	d9c01b15 	stw	r7,108(sp)
  803e4c:	00808104 	movi	r2,516
  803e50:	2809883a 	mov	r4,r5
  803e54:	3023883a 	mov	r17,r6
  803e58:	d9400115 	stw	r5,4(sp)
  803e5c:	d9400515 	stw	r5,20(sp)
  803e60:	d880040d 	sth	r2,16(sp)
  803e64:	080408c0 	call	80408c <strlen>
  803e68:	d8c01b04 	addi	r3,sp,108
  803e6c:	d8c00015 	stw	r3,0(sp)
  803e70:	180f883a 	mov	r7,r3
  803e74:	023fffc4 	movi	r8,-1
  803e78:	00c02034 	movhi	r3,128
  803e7c:	18cf8b04 	addi	r3,r3,15916
  803e80:	9809883a 	mov	r4,r19
  803e84:	880d883a 	mov	r6,r17
  803e88:	d9400104 	addi	r5,sp,4
  803e8c:	d8800615 	stw	r2,24(sp)
  803e90:	d8c00915 	stw	r3,36(sp)
  803e94:	da00048d 	sth	r8,18(sp)
  803e98:	d8800215 	stw	r2,8(sp)
  803e9c:	d8000d15 	stw	zero,52(sp)
  803ea0:	d8001215 	stw	zero,72(sp)
  803ea4:	08060280 	call	806028 <__svfscanf_r>
  803ea8:	dfc01a17 	ldw	ra,104(sp)
  803eac:	dcc01917 	ldw	r19,100(sp)
  803eb0:	dc401817 	ldw	r17,96(sp)
  803eb4:	dec01c04 	addi	sp,sp,112
  803eb8:	f800283a 	ret

00803ebc <sscanf>:
  803ebc:	deffe404 	addi	sp,sp,-112
  803ec0:	dfc01915 	stw	ra,100(sp)
  803ec4:	dc401815 	stw	r17,96(sp)
  803ec8:	d9801a15 	stw	r6,104(sp)
  803ecc:	d9c01b15 	stw	r7,108(sp)
  803ed0:	00808104 	movi	r2,516
  803ed4:	2823883a 	mov	r17,r5
  803ed8:	d9000515 	stw	r4,20(sp)
  803edc:	d9000115 	stw	r4,4(sp)
  803ee0:	d880040d 	sth	r2,16(sp)
  803ee4:	080408c0 	call	80408c <strlen>
  803ee8:	d8c01a04 	addi	r3,sp,104
  803eec:	d8c00015 	stw	r3,0(sp)
  803ef0:	00c02074 	movhi	r3,129
  803ef4:	18db9704 	addi	r3,r3,28252
  803ef8:	19000017 	ldw	r4,0(r3)
  803efc:	d9c00017 	ldw	r7,0(sp)
  803f00:	00c02034 	movhi	r3,128
  803f04:	18cf8b04 	addi	r3,r3,15916
  803f08:	023fffc4 	movi	r8,-1
  803f0c:	880d883a 	mov	r6,r17
  803f10:	d9400104 	addi	r5,sp,4
  803f14:	d8800615 	stw	r2,24(sp)
  803f18:	d8c00915 	stw	r3,36(sp)
  803f1c:	da00048d 	sth	r8,18(sp)
  803f20:	d8800215 	stw	r2,8(sp)
  803f24:	d8000d15 	stw	zero,52(sp)
  803f28:	d8001215 	stw	zero,72(sp)
  803f2c:	08060280 	call	806028 <__svfscanf_r>
  803f30:	dfc01917 	ldw	ra,100(sp)
  803f34:	dc401817 	ldw	r17,96(sp)
  803f38:	dec01c04 	addi	sp,sp,112
  803f3c:	f800283a 	ret

00803f40 <__sclose>:
  803f40:	2940038f 	ldh	r5,14(r5)
  803f44:	080795c1 	jmpi	80795c <_close_r>

00803f48 <__sseek>:
  803f48:	defffe04 	addi	sp,sp,-8
  803f4c:	dc000015 	stw	r16,0(sp)
  803f50:	2821883a 	mov	r16,r5
  803f54:	2940038f 	ldh	r5,14(r5)
  803f58:	dfc00115 	stw	ra,4(sp)
  803f5c:	08095d40 	call	8095d4 <_lseek_r>
  803f60:	1007883a 	mov	r3,r2
  803f64:	00bfffc4 	movi	r2,-1
  803f68:	18800926 	beq	r3,r2,803f90 <__sseek+0x48>
  803f6c:	8080030b 	ldhu	r2,12(r16)
  803f70:	80c01415 	stw	r3,80(r16)
  803f74:	10840014 	ori	r2,r2,4096
  803f78:	8080030d 	sth	r2,12(r16)
  803f7c:	1805883a 	mov	r2,r3
  803f80:	dfc00117 	ldw	ra,4(sp)
  803f84:	dc000017 	ldw	r16,0(sp)
  803f88:	dec00204 	addi	sp,sp,8
  803f8c:	f800283a 	ret
  803f90:	8080030b 	ldhu	r2,12(r16)
  803f94:	10bbffcc 	andi	r2,r2,61439
  803f98:	8080030d 	sth	r2,12(r16)
  803f9c:	1805883a 	mov	r2,r3
  803fa0:	dfc00117 	ldw	ra,4(sp)
  803fa4:	dc000017 	ldw	r16,0(sp)
  803fa8:	dec00204 	addi	sp,sp,8
  803fac:	f800283a 	ret

00803fb0 <__swrite>:
  803fb0:	2880030b 	ldhu	r2,12(r5)
  803fb4:	defffb04 	addi	sp,sp,-20
  803fb8:	dcc00315 	stw	r19,12(sp)
  803fbc:	1080400c 	andi	r2,r2,256
  803fc0:	dc800215 	stw	r18,8(sp)
  803fc4:	dc400115 	stw	r17,4(sp)
  803fc8:	dc000015 	stw	r16,0(sp)
  803fcc:	3027883a 	mov	r19,r6
  803fd0:	3825883a 	mov	r18,r7
  803fd4:	dfc00415 	stw	ra,16(sp)
  803fd8:	2821883a 	mov	r16,r5
  803fdc:	000d883a 	mov	r6,zero
  803fe0:	01c00084 	movi	r7,2
  803fe4:	2023883a 	mov	r17,r4
  803fe8:	10000226 	beq	r2,zero,803ff4 <__swrite+0x44>
  803fec:	2940038f 	ldh	r5,14(r5)
  803ff0:	08095d40 	call	8095d4 <_lseek_r>
  803ff4:	8080030b 	ldhu	r2,12(r16)
  803ff8:	8140038f 	ldh	r5,14(r16)
  803ffc:	8809883a 	mov	r4,r17
  804000:	10bbffcc 	andi	r2,r2,61439
  804004:	980d883a 	mov	r6,r19
  804008:	900f883a 	mov	r7,r18
  80400c:	8080030d 	sth	r2,12(r16)
  804010:	dfc00417 	ldw	ra,16(sp)
  804014:	dcc00317 	ldw	r19,12(sp)
  804018:	dc800217 	ldw	r18,8(sp)
  80401c:	dc400117 	ldw	r17,4(sp)
  804020:	dc000017 	ldw	r16,0(sp)
  804024:	dec00504 	addi	sp,sp,20
  804028:	08077a81 	jmpi	8077a8 <_write_r>

0080402c <__sread>:
  80402c:	defffe04 	addi	sp,sp,-8
  804030:	dc000015 	stw	r16,0(sp)
  804034:	2821883a 	mov	r16,r5
  804038:	2940038f 	ldh	r5,14(r5)
  80403c:	dfc00115 	stw	ra,4(sp)
  804040:	080a7400 	call	80a740 <_read_r>
  804044:	1007883a 	mov	r3,r2
  804048:	10000816 	blt	r2,zero,80406c <__sread+0x40>
  80404c:	80801417 	ldw	r2,80(r16)
  804050:	10c5883a 	add	r2,r2,r3
  804054:	80801415 	stw	r2,80(r16)
  804058:	1805883a 	mov	r2,r3
  80405c:	dfc00117 	ldw	ra,4(sp)
  804060:	dc000017 	ldw	r16,0(sp)
  804064:	dec00204 	addi	sp,sp,8
  804068:	f800283a 	ret
  80406c:	8080030b 	ldhu	r2,12(r16)
  804070:	10bbffcc 	andi	r2,r2,61439
  804074:	8080030d 	sth	r2,12(r16)
  804078:	1805883a 	mov	r2,r3
  80407c:	dfc00117 	ldw	ra,4(sp)
  804080:	dc000017 	ldw	r16,0(sp)
  804084:	dec00204 	addi	sp,sp,8
  804088:	f800283a 	ret

0080408c <strlen>:
  80408c:	208000cc 	andi	r2,r4,3
  804090:	2011883a 	mov	r8,r4
  804094:	1000161e 	bne	r2,zero,8040f0 <strlen+0x64>
  804098:	20c00017 	ldw	r3,0(r4)
  80409c:	017fbff4 	movhi	r5,65279
  8040a0:	297fbfc4 	addi	r5,r5,-257
  8040a4:	01e02074 	movhi	r7,32897
  8040a8:	39e02004 	addi	r7,r7,-32640
  8040ac:	1945883a 	add	r2,r3,r5
  8040b0:	11c4703a 	and	r2,r2,r7
  8040b4:	00c6303a 	nor	r3,zero,r3
  8040b8:	1886703a 	and	r3,r3,r2
  8040bc:	18000c1e 	bne	r3,zero,8040f0 <strlen+0x64>
  8040c0:	280d883a 	mov	r6,r5
  8040c4:	380b883a 	mov	r5,r7
  8040c8:	21000104 	addi	r4,r4,4
  8040cc:	20800017 	ldw	r2,0(r4)
  8040d0:	1187883a 	add	r3,r2,r6
  8040d4:	1946703a 	and	r3,r3,r5
  8040d8:	0084303a 	nor	r2,zero,r2
  8040dc:	10c4703a 	and	r2,r2,r3
  8040e0:	103ff926 	beq	r2,zero,8040c8 <strlen+0x3c>
  8040e4:	20800007 	ldb	r2,0(r4)
  8040e8:	10000326 	beq	r2,zero,8040f8 <strlen+0x6c>
  8040ec:	21000044 	addi	r4,r4,1
  8040f0:	20800007 	ldb	r2,0(r4)
  8040f4:	103ffd1e 	bne	r2,zero,8040ec <strlen+0x60>
  8040f8:	2205c83a 	sub	r2,r4,r8
  8040fc:	f800283a 	ret

00804100 <__sprint_r>:
  804100:	30800217 	ldw	r2,8(r6)
  804104:	defffe04 	addi	sp,sp,-8
  804108:	dc000015 	stw	r16,0(sp)
  80410c:	dfc00115 	stw	ra,4(sp)
  804110:	3021883a 	mov	r16,r6
  804114:	0007883a 	mov	r3,zero
  804118:	1000061e 	bne	r2,zero,804134 <__sprint_r+0x34>
  80411c:	1805883a 	mov	r2,r3
  804120:	30000115 	stw	zero,4(r6)
  804124:	dfc00117 	ldw	ra,4(sp)
  804128:	dc000017 	ldw	r16,0(sp)
  80412c:	dec00204 	addi	sp,sp,8
  804130:	f800283a 	ret
  804134:	08021d80 	call	8021d8 <__sfvwrite_r>
  804138:	1007883a 	mov	r3,r2
  80413c:	1805883a 	mov	r2,r3
  804140:	80000115 	stw	zero,4(r16)
  804144:	80000215 	stw	zero,8(r16)
  804148:	dfc00117 	ldw	ra,4(sp)
  80414c:	dc000017 	ldw	r16,0(sp)
  804150:	dec00204 	addi	sp,sp,8
  804154:	f800283a 	ret

00804158 <___vfprintf_internal_r>:
  804158:	defea304 	addi	sp,sp,-1396
  80415c:	dd815915 	stw	r22,1380(sp)
  804160:	dc015315 	stw	r16,1356(sp)
  804164:	d9c15215 	stw	r7,1352(sp)
  804168:	dfc15c15 	stw	ra,1392(sp)
  80416c:	df015b15 	stw	fp,1388(sp)
  804170:	ddc15a15 	stw	r23,1384(sp)
  804174:	dd415815 	stw	r21,1376(sp)
  804178:	dd015715 	stw	r20,1372(sp)
  80417c:	dcc15615 	stw	r19,1368(sp)
  804180:	dc815515 	stw	r18,1364(sp)
  804184:	dc415415 	stw	r17,1360(sp)
  804188:	282d883a 	mov	r22,r5
  80418c:	3021883a 	mov	r16,r6
  804190:	d9015015 	stw	r4,1344(sp)
  804194:	08095180 	call	809518 <_localeconv_r>
  804198:	10800017 	ldw	r2,0(r2)
  80419c:	d9c15217 	ldw	r7,1352(sp)
  8041a0:	d8814a15 	stw	r2,1320(sp)
  8041a4:	d8815017 	ldw	r2,1344(sp)
  8041a8:	10000226 	beq	r2,zero,8041b4 <___vfprintf_internal_r+0x5c>
  8041ac:	10800e17 	ldw	r2,56(r2)
  8041b0:	10020d26 	beq	r2,zero,8049e8 <___vfprintf_internal_r+0x890>
  8041b4:	b080030b 	ldhu	r2,12(r22)
  8041b8:	1080020c 	andi	r2,r2,8
  8041bc:	10020e26 	beq	r2,zero,8049f8 <___vfprintf_internal_r+0x8a0>
  8041c0:	b0800417 	ldw	r2,16(r22)
  8041c4:	10020c26 	beq	r2,zero,8049f8 <___vfprintf_internal_r+0x8a0>
  8041c8:	b200030b 	ldhu	r8,12(r22)
  8041cc:	00800284 	movi	r2,10
  8041d0:	40c0068c 	andi	r3,r8,26
  8041d4:	18802f1e 	bne	r3,r2,804294 <___vfprintf_internal_r+0x13c>
  8041d8:	b080038f 	ldh	r2,14(r22)
  8041dc:	10002d16 	blt	r2,zero,804294 <___vfprintf_internal_r+0x13c>
  8041e0:	b240038b 	ldhu	r9,14(r22)
  8041e4:	b2800717 	ldw	r10,28(r22)
  8041e8:	b2c00917 	ldw	r11,36(r22)
  8041ec:	d9015017 	ldw	r4,1344(sp)
  8041f0:	dc402a04 	addi	r17,sp,168
  8041f4:	d8804104 	addi	r2,sp,260
  8041f8:	00c10004 	movi	r3,1024
  8041fc:	423fff4c 	andi	r8,r8,65533
  804200:	800d883a 	mov	r6,r16
  804204:	880b883a 	mov	r5,r17
  804208:	da002d0d 	sth	r8,180(sp)
  80420c:	da402d8d 	sth	r9,182(sp)
  804210:	da803115 	stw	r10,196(sp)
  804214:	dac03315 	stw	r11,204(sp)
  804218:	d8802e15 	stw	r2,184(sp)
  80421c:	d8c02f15 	stw	r3,188(sp)
  804220:	d8802a15 	stw	r2,168(sp)
  804224:	d8c02c15 	stw	r3,176(sp)
  804228:	d8003015 	stw	zero,192(sp)
  80422c:	08041580 	call	804158 <___vfprintf_internal_r>
  804230:	d8814c15 	stw	r2,1328(sp)
  804234:	10000416 	blt	r2,zero,804248 <___vfprintf_internal_r+0xf0>
  804238:	d9015017 	ldw	r4,1344(sp)
  80423c:	880b883a 	mov	r5,r17
  804240:	08010ac0 	call	8010ac <_fflush_r>
  804244:	1002321e 	bne	r2,zero,804b10 <___vfprintf_internal_r+0x9b8>
  804248:	d8802d0b 	ldhu	r2,180(sp)
  80424c:	1080100c 	andi	r2,r2,64
  804250:	10000326 	beq	r2,zero,804260 <___vfprintf_internal_r+0x108>
  804254:	b080030b 	ldhu	r2,12(r22)
  804258:	10801014 	ori	r2,r2,64
  80425c:	b080030d 	sth	r2,12(r22)
  804260:	d8814c17 	ldw	r2,1328(sp)
  804264:	dfc15c17 	ldw	ra,1392(sp)
  804268:	df015b17 	ldw	fp,1388(sp)
  80426c:	ddc15a17 	ldw	r23,1384(sp)
  804270:	dd815917 	ldw	r22,1380(sp)
  804274:	dd415817 	ldw	r21,1376(sp)
  804278:	dd015717 	ldw	r20,1372(sp)
  80427c:	dcc15617 	ldw	r19,1368(sp)
  804280:	dc815517 	ldw	r18,1364(sp)
  804284:	dc415417 	ldw	r17,1360(sp)
  804288:	dc015317 	ldw	r16,1356(sp)
  80428c:	dec15d04 	addi	sp,sp,1396
  804290:	f800283a 	ret
  804294:	0005883a 	mov	r2,zero
  804298:	0007883a 	mov	r3,zero
  80429c:	dd401a04 	addi	r21,sp,104
  8042a0:	d8814315 	stw	r2,1292(sp)
  8042a4:	802f883a 	mov	r23,r16
  8042a8:	d8c14415 	stw	r3,1296(sp)
  8042ac:	d8014c15 	stw	zero,1328(sp)
  8042b0:	d8014915 	stw	zero,1316(sp)
  8042b4:	d8014515 	stw	zero,1300(sp)
  8042b8:	d8014815 	stw	zero,1312(sp)
  8042bc:	dd400d15 	stw	r21,52(sp)
  8042c0:	d8000f15 	stw	zero,60(sp)
  8042c4:	d8000e15 	stw	zero,56(sp)
  8042c8:	b8800007 	ldb	r2,0(r23)
  8042cc:	10001926 	beq	r2,zero,804334 <___vfprintf_internal_r+0x1dc>
  8042d0:	00c00944 	movi	r3,37
  8042d4:	10c01726 	beq	r2,r3,804334 <___vfprintf_internal_r+0x1dc>
  8042d8:	b821883a 	mov	r16,r23
  8042dc:	00000106 	br	8042e4 <___vfprintf_internal_r+0x18c>
  8042e0:	10c00326 	beq	r2,r3,8042f0 <___vfprintf_internal_r+0x198>
  8042e4:	84000044 	addi	r16,r16,1
  8042e8:	80800007 	ldb	r2,0(r16)
  8042ec:	103ffc1e 	bne	r2,zero,8042e0 <___vfprintf_internal_r+0x188>
  8042f0:	85e7c83a 	sub	r19,r16,r23
  8042f4:	98000e26 	beq	r19,zero,804330 <___vfprintf_internal_r+0x1d8>
  8042f8:	dc800f17 	ldw	r18,60(sp)
  8042fc:	dc400e17 	ldw	r17,56(sp)
  804300:	008001c4 	movi	r2,7
  804304:	94e5883a 	add	r18,r18,r19
  804308:	8c400044 	addi	r17,r17,1
  80430c:	adc00015 	stw	r23,0(r21)
  804310:	dc800f15 	stw	r18,60(sp)
  804314:	acc00115 	stw	r19,4(r21)
  804318:	dc400e15 	stw	r17,56(sp)
  80431c:	14428b16 	blt	r2,r17,804d4c <___vfprintf_internal_r+0xbf4>
  804320:	ad400204 	addi	r21,r21,8
  804324:	d9014c17 	ldw	r4,1328(sp)
  804328:	24c9883a 	add	r4,r4,r19
  80432c:	d9014c15 	stw	r4,1328(sp)
  804330:	802f883a 	mov	r23,r16
  804334:	b8800007 	ldb	r2,0(r23)
  804338:	10013c26 	beq	r2,zero,80482c <___vfprintf_internal_r+0x6d4>
  80433c:	bdc00044 	addi	r23,r23,1
  804340:	d8000405 	stb	zero,16(sp)
  804344:	b8c00007 	ldb	r3,0(r23)
  804348:	04ffffc4 	movi	r19,-1
  80434c:	d8014d15 	stw	zero,1332(sp)
  804350:	d8014b15 	stw	zero,1324(sp)
  804354:	d8c14e15 	stw	r3,1336(sp)
  804358:	bdc00044 	addi	r23,r23,1
  80435c:	d9414e17 	ldw	r5,1336(sp)
  804360:	00801604 	movi	r2,88
  804364:	28fff804 	addi	r3,r5,-32
  804368:	10c06036 	bltu	r2,r3,8044ec <___vfprintf_internal_r+0x394>
  80436c:	18c5883a 	add	r2,r3,r3
  804370:	1085883a 	add	r2,r2,r2
  804374:	00c02034 	movhi	r3,128
  804378:	18d0e204 	addi	r3,r3,17288
  80437c:	10c5883a 	add	r2,r2,r3
  804380:	11000017 	ldw	r4,0(r2)
  804384:	2000683a 	jmp	r4
  804388:	008052fc 	xorhi	r2,zero,331
  80438c:	008044ec 	andhi	r2,zero,275
  804390:	008044ec 	andhi	r2,zero,275
  804394:	008052e8 	cmpgeui	r2,zero,331
  804398:	008044ec 	andhi	r2,zero,275
  80439c:	008044ec 	andhi	r2,zero,275
  8043a0:	008044ec 	andhi	r2,zero,275
  8043a4:	008044ec 	andhi	r2,zero,275
  8043a8:	008044ec 	andhi	r2,zero,275
  8043ac:	008044ec 	andhi	r2,zero,275
  8043b0:	008050c8 	cmpgei	r2,zero,323
  8043b4:	008052d8 	cmpnei	r2,zero,331
  8043b8:	008044ec 	andhi	r2,zero,275
  8043bc:	008050e0 	cmpeqi	r2,zero,323
  8043c0:	00805374 	movhi	r2,333
  8043c4:	008044ec 	andhi	r2,zero,275
  8043c8:	00805360 	cmpeqi	r2,zero,333
  8043cc:	00805328 	cmpgeui	r2,zero,332
  8043d0:	00805328 	cmpgeui	r2,zero,332
  8043d4:	00805328 	cmpgeui	r2,zero,332
  8043d8:	00805328 	cmpgeui	r2,zero,332
  8043dc:	00805328 	cmpgeui	r2,zero,332
  8043e0:	00805328 	cmpgeui	r2,zero,332
  8043e4:	00805328 	cmpgeui	r2,zero,332
  8043e8:	00805328 	cmpgeui	r2,zero,332
  8043ec:	00805328 	cmpgeui	r2,zero,332
  8043f0:	008044ec 	andhi	r2,zero,275
  8043f4:	008044ec 	andhi	r2,zero,275
  8043f8:	008044ec 	andhi	r2,zero,275
  8043fc:	008044ec 	andhi	r2,zero,275
  804400:	008044ec 	andhi	r2,zero,275
  804404:	008044ec 	andhi	r2,zero,275
  804408:	008044ec 	andhi	r2,zero,275
  80440c:	008044ec 	andhi	r2,zero,275
  804410:	008044ec 	andhi	r2,zero,275
  804414:	008044ec 	andhi	r2,zero,275
  804418:	00804b44 	movi	r2,301
  80441c:	008051b0 	cmpltui	r2,zero,326
  804420:	008044ec 	andhi	r2,zero,275
  804424:	008051b0 	cmpltui	r2,zero,326
  804428:	008044ec 	andhi	r2,zero,275
  80442c:	008044ec 	andhi	r2,zero,275
  804430:	008044ec 	andhi	r2,zero,275
  804434:	008044ec 	andhi	r2,zero,275
  804438:	00805314 	movui	r2,332
  80443c:	008044ec 	andhi	r2,zero,275
  804440:	008044ec 	andhi	r2,zero,275
  804444:	00804bf8 	rdprs	r2,zero,303
  804448:	008044ec 	andhi	r2,zero,275
  80444c:	008044ec 	andhi	r2,zero,275
  804450:	008044ec 	andhi	r2,zero,275
  804454:	008044ec 	andhi	r2,zero,275
  804458:	008044ec 	andhi	r2,zero,275
  80445c:	00804c44 	movi	r2,305
  804460:	008044ec 	andhi	r2,zero,275
  804464:	008044ec 	andhi	r2,zero,275
  804468:	00805264 	muli	r2,zero,329
  80446c:	008044ec 	andhi	r2,zero,275
  804470:	008044ec 	andhi	r2,zero,275
  804474:	008044ec 	andhi	r2,zero,275
  804478:	008044ec 	andhi	r2,zero,275
  80447c:	008044ec 	andhi	r2,zero,275
  804480:	008044ec 	andhi	r2,zero,275
  804484:	008044ec 	andhi	r2,zero,275
  804488:	008044ec 	andhi	r2,zero,275
  80448c:	008044ec 	andhi	r2,zero,275
  804490:	008044ec 	andhi	r2,zero,275
  804494:	00805238 	rdprs	r2,zero,328
  804498:	00804b50 	cmplti	r2,zero,301
  80449c:	008051b0 	cmpltui	r2,zero,326
  8044a0:	008051b0 	cmpltui	r2,zero,326
  8044a4:	008051b0 	cmpltui	r2,zero,326
  8044a8:	0080519c 	xori	r2,zero,326
  8044ac:	00804b50 	cmplti	r2,zero,301
  8044b0:	008044ec 	andhi	r2,zero,275
  8044b4:	008044ec 	andhi	r2,zero,275
  8044b8:	00805124 	muli	r2,zero,324
  8044bc:	008044ec 	andhi	r2,zero,275
  8044c0:	008050f4 	movhi	r2,323
  8044c4:	00804c04 	movi	r2,304
  8044c8:	00805154 	movui	r2,325
  8044cc:	00805140 	call	80514 <__reset-0x77faec>
  8044d0:	008044ec 	andhi	r2,zero,275
  8044d4:	008053d0 	cmplti	r2,zero,335
  8044d8:	008044ec 	andhi	r2,zero,275
  8044dc:	00804c50 	cmplti	r2,zero,305
  8044e0:	008044ec 	andhi	r2,zero,275
  8044e4:	008044ec 	andhi	r2,zero,275
  8044e8:	008052c8 	cmpgei	r2,zero,331
  8044ec:	d9014e17 	ldw	r4,1336(sp)
  8044f0:	2000ce26 	beq	r4,zero,80482c <___vfprintf_internal_r+0x6d4>
  8044f4:	01400044 	movi	r5,1
  8044f8:	d9801004 	addi	r6,sp,64
  8044fc:	d9c14115 	stw	r7,1284(sp)
  804500:	d9414615 	stw	r5,1304(sp)
  804504:	d9814215 	stw	r6,1288(sp)
  804508:	280f883a 	mov	r7,r5
  80450c:	d9001005 	stb	r4,64(sp)
  804510:	d8000405 	stb	zero,16(sp)
  804514:	d8014715 	stw	zero,1308(sp)
  804518:	d8c14d17 	ldw	r3,1332(sp)
  80451c:	1880008c 	andi	r2,r3,2
  804520:	1005003a 	cmpeq	r2,r2,zero
  804524:	d8815115 	stw	r2,1348(sp)
  804528:	1000031e 	bne	r2,zero,804538 <___vfprintf_internal_r+0x3e0>
  80452c:	d9014617 	ldw	r4,1304(sp)
  804530:	21000084 	addi	r4,r4,2
  804534:	d9014615 	stw	r4,1304(sp)
  804538:	d9414d17 	ldw	r5,1332(sp)
  80453c:	2940210c 	andi	r5,r5,132
  804540:	d9414f15 	stw	r5,1340(sp)
  804544:	28002d1e 	bne	r5,zero,8045fc <___vfprintf_internal_r+0x4a4>
  804548:	d9814b17 	ldw	r6,1324(sp)
  80454c:	d8814617 	ldw	r2,1304(sp)
  804550:	30a1c83a 	sub	r16,r6,r2
  804554:	0400290e 	bge	zero,r16,8045fc <___vfprintf_internal_r+0x4a4>
  804558:	00800404 	movi	r2,16
  80455c:	1404580e 	bge	r2,r16,8056c0 <___vfprintf_internal_r+0x1568>
  804560:	dc800f17 	ldw	r18,60(sp)
  804564:	dc400e17 	ldw	r17,56(sp)
  804568:	1027883a 	mov	r19,r2
  80456c:	07002074 	movhi	fp,129
  804570:	e712fa04 	addi	fp,fp,19432
  804574:	050001c4 	movi	r20,7
  804578:	00000306 	br	804588 <___vfprintf_internal_r+0x430>
  80457c:	843ffc04 	addi	r16,r16,-16
  804580:	ad400204 	addi	r21,r21,8
  804584:	9c00130e 	bge	r19,r16,8045d4 <___vfprintf_internal_r+0x47c>
  804588:	94800404 	addi	r18,r18,16
  80458c:	8c400044 	addi	r17,r17,1
  804590:	af000015 	stw	fp,0(r21)
  804594:	acc00115 	stw	r19,4(r21)
  804598:	dc800f15 	stw	r18,60(sp)
  80459c:	dc400e15 	stw	r17,56(sp)
  8045a0:	a47ff60e 	bge	r20,r17,80457c <___vfprintf_internal_r+0x424>
  8045a4:	d9015017 	ldw	r4,1344(sp)
  8045a8:	b00b883a 	mov	r5,r22
  8045ac:	d9800d04 	addi	r6,sp,52
  8045b0:	d9c15215 	stw	r7,1352(sp)
  8045b4:	08041000 	call	804100 <__sprint_r>
  8045b8:	d9c15217 	ldw	r7,1352(sp)
  8045bc:	10009e1e 	bne	r2,zero,804838 <___vfprintf_internal_r+0x6e0>
  8045c0:	843ffc04 	addi	r16,r16,-16
  8045c4:	dc800f17 	ldw	r18,60(sp)
  8045c8:	dc400e17 	ldw	r17,56(sp)
  8045cc:	dd401a04 	addi	r21,sp,104
  8045d0:	9c3fed16 	blt	r19,r16,804588 <___vfprintf_internal_r+0x430>
  8045d4:	9425883a 	add	r18,r18,r16
  8045d8:	8c400044 	addi	r17,r17,1
  8045dc:	008001c4 	movi	r2,7
  8045e0:	af000015 	stw	fp,0(r21)
  8045e4:	ac000115 	stw	r16,4(r21)
  8045e8:	dc800f15 	stw	r18,60(sp)
  8045ec:	dc400e15 	stw	r17,56(sp)
  8045f0:	1441f516 	blt	r2,r17,804dc8 <___vfprintf_internal_r+0xc70>
  8045f4:	ad400204 	addi	r21,r21,8
  8045f8:	00000206 	br	804604 <___vfprintf_internal_r+0x4ac>
  8045fc:	dc800f17 	ldw	r18,60(sp)
  804600:	dc400e17 	ldw	r17,56(sp)
  804604:	d8800407 	ldb	r2,16(sp)
  804608:	10000b26 	beq	r2,zero,804638 <___vfprintf_internal_r+0x4e0>
  80460c:	00800044 	movi	r2,1
  804610:	94800044 	addi	r18,r18,1
  804614:	8c400044 	addi	r17,r17,1
  804618:	a8800115 	stw	r2,4(r21)
  80461c:	d8c00404 	addi	r3,sp,16
  804620:	008001c4 	movi	r2,7
  804624:	a8c00015 	stw	r3,0(r21)
  804628:	dc800f15 	stw	r18,60(sp)
  80462c:	dc400e15 	stw	r17,56(sp)
  804630:	1441da16 	blt	r2,r17,804d9c <___vfprintf_internal_r+0xc44>
  804634:	ad400204 	addi	r21,r21,8
  804638:	d9015117 	ldw	r4,1348(sp)
  80463c:	20000b1e 	bne	r4,zero,80466c <___vfprintf_internal_r+0x514>
  804640:	d8800504 	addi	r2,sp,20
  804644:	94800084 	addi	r18,r18,2
  804648:	8c400044 	addi	r17,r17,1
  80464c:	a8800015 	stw	r2,0(r21)
  804650:	00c00084 	movi	r3,2
  804654:	008001c4 	movi	r2,7
  804658:	a8c00115 	stw	r3,4(r21)
  80465c:	dc800f15 	stw	r18,60(sp)
  804660:	dc400e15 	stw	r17,56(sp)
  804664:	1441c216 	blt	r2,r17,804d70 <___vfprintf_internal_r+0xc18>
  804668:	ad400204 	addi	r21,r21,8
  80466c:	d9414f17 	ldw	r5,1340(sp)
  804670:	00802004 	movi	r2,128
  804674:	2880b126 	beq	r5,r2,80493c <___vfprintf_internal_r+0x7e4>
  804678:	d8c14717 	ldw	r3,1308(sp)
  80467c:	19e1c83a 	sub	r16,r3,r7
  804680:	0400260e 	bge	zero,r16,80471c <___vfprintf_internal_r+0x5c4>
  804684:	00800404 	movi	r2,16
  804688:	1403c90e 	bge	r2,r16,8055b0 <___vfprintf_internal_r+0x1458>
  80468c:	1027883a 	mov	r19,r2
  804690:	07002074 	movhi	fp,129
  804694:	e712f604 	addi	fp,fp,19416
  804698:	050001c4 	movi	r20,7
  80469c:	00000306 	br	8046ac <___vfprintf_internal_r+0x554>
  8046a0:	843ffc04 	addi	r16,r16,-16
  8046a4:	ad400204 	addi	r21,r21,8
  8046a8:	9c00130e 	bge	r19,r16,8046f8 <___vfprintf_internal_r+0x5a0>
  8046ac:	94800404 	addi	r18,r18,16
  8046b0:	8c400044 	addi	r17,r17,1
  8046b4:	af000015 	stw	fp,0(r21)
  8046b8:	acc00115 	stw	r19,4(r21)
  8046bc:	dc800f15 	stw	r18,60(sp)
  8046c0:	dc400e15 	stw	r17,56(sp)
  8046c4:	a47ff60e 	bge	r20,r17,8046a0 <___vfprintf_internal_r+0x548>
  8046c8:	d9015017 	ldw	r4,1344(sp)
  8046cc:	b00b883a 	mov	r5,r22
  8046d0:	d9800d04 	addi	r6,sp,52
  8046d4:	d9c15215 	stw	r7,1352(sp)
  8046d8:	08041000 	call	804100 <__sprint_r>
  8046dc:	d9c15217 	ldw	r7,1352(sp)
  8046e0:	1000551e 	bne	r2,zero,804838 <___vfprintf_internal_r+0x6e0>
  8046e4:	843ffc04 	addi	r16,r16,-16
  8046e8:	dc800f17 	ldw	r18,60(sp)
  8046ec:	dc400e17 	ldw	r17,56(sp)
  8046f0:	dd401a04 	addi	r21,sp,104
  8046f4:	9c3fed16 	blt	r19,r16,8046ac <___vfprintf_internal_r+0x554>
  8046f8:	9425883a 	add	r18,r18,r16
  8046fc:	8c400044 	addi	r17,r17,1
  804700:	008001c4 	movi	r2,7
  804704:	af000015 	stw	fp,0(r21)
  804708:	ac000115 	stw	r16,4(r21)
  80470c:	dc800f15 	stw	r18,60(sp)
  804710:	dc400e15 	stw	r17,56(sp)
  804714:	14418216 	blt	r2,r17,804d20 <___vfprintf_internal_r+0xbc8>
  804718:	ad400204 	addi	r21,r21,8
  80471c:	d9014d17 	ldw	r4,1332(sp)
  804720:	2080400c 	andi	r2,r4,256
  804724:	10004a1e 	bne	r2,zero,804850 <___vfprintf_internal_r+0x6f8>
  804728:	d9414217 	ldw	r5,1288(sp)
  80472c:	91e5883a 	add	r18,r18,r7
  804730:	8c400044 	addi	r17,r17,1
  804734:	008001c4 	movi	r2,7
  804738:	a9400015 	stw	r5,0(r21)
  80473c:	a9c00115 	stw	r7,4(r21)
  804740:	dc800f15 	stw	r18,60(sp)
  804744:	dc400e15 	stw	r17,56(sp)
  804748:	14416716 	blt	r2,r17,804ce8 <___vfprintf_internal_r+0xb90>
  80474c:	a8c00204 	addi	r3,r21,8
  804750:	d9814d17 	ldw	r6,1332(sp)
  804754:	3080010c 	andi	r2,r6,4
  804758:	10002826 	beq	r2,zero,8047fc <___vfprintf_internal_r+0x6a4>
  80475c:	d8814b17 	ldw	r2,1324(sp)
  804760:	d9014617 	ldw	r4,1304(sp)
  804764:	1121c83a 	sub	r16,r2,r4
  804768:	0400240e 	bge	zero,r16,8047fc <___vfprintf_internal_r+0x6a4>
  80476c:	00800404 	movi	r2,16
  804770:	14044f0e 	bge	r2,r16,8058b0 <___vfprintf_internal_r+0x1758>
  804774:	dc400e17 	ldw	r17,56(sp)
  804778:	1027883a 	mov	r19,r2
  80477c:	07002074 	movhi	fp,129
  804780:	e712fa04 	addi	fp,fp,19432
  804784:	050001c4 	movi	r20,7
  804788:	00000306 	br	804798 <___vfprintf_internal_r+0x640>
  80478c:	843ffc04 	addi	r16,r16,-16
  804790:	18c00204 	addi	r3,r3,8
  804794:	9c00110e 	bge	r19,r16,8047dc <___vfprintf_internal_r+0x684>
  804798:	94800404 	addi	r18,r18,16
  80479c:	8c400044 	addi	r17,r17,1
  8047a0:	1f000015 	stw	fp,0(r3)
  8047a4:	1cc00115 	stw	r19,4(r3)
  8047a8:	dc800f15 	stw	r18,60(sp)
  8047ac:	dc400e15 	stw	r17,56(sp)
  8047b0:	a47ff60e 	bge	r20,r17,80478c <___vfprintf_internal_r+0x634>
  8047b4:	d9015017 	ldw	r4,1344(sp)
  8047b8:	b00b883a 	mov	r5,r22
  8047bc:	d9800d04 	addi	r6,sp,52
  8047c0:	08041000 	call	804100 <__sprint_r>
  8047c4:	10001c1e 	bne	r2,zero,804838 <___vfprintf_internal_r+0x6e0>
  8047c8:	843ffc04 	addi	r16,r16,-16
  8047cc:	dc800f17 	ldw	r18,60(sp)
  8047d0:	dc400e17 	ldw	r17,56(sp)
  8047d4:	d8c01a04 	addi	r3,sp,104
  8047d8:	9c3fef16 	blt	r19,r16,804798 <___vfprintf_internal_r+0x640>
  8047dc:	9425883a 	add	r18,r18,r16
  8047e0:	8c400044 	addi	r17,r17,1
  8047e4:	008001c4 	movi	r2,7
  8047e8:	1f000015 	stw	fp,0(r3)
  8047ec:	1c000115 	stw	r16,4(r3)
  8047f0:	dc800f15 	stw	r18,60(sp)
  8047f4:	dc400e15 	stw	r17,56(sp)
  8047f8:	1440cb16 	blt	r2,r17,804b28 <___vfprintf_internal_r+0x9d0>
  8047fc:	d8814b17 	ldw	r2,1324(sp)
  804800:	d9414617 	ldw	r5,1304(sp)
  804804:	1140010e 	bge	r2,r5,80480c <___vfprintf_internal_r+0x6b4>
  804808:	2805883a 	mov	r2,r5
  80480c:	d9814c17 	ldw	r6,1328(sp)
  804810:	308d883a 	add	r6,r6,r2
  804814:	d9814c15 	stw	r6,1328(sp)
  804818:	90013b1e 	bne	r18,zero,804d08 <___vfprintf_internal_r+0xbb0>
  80481c:	d9c14117 	ldw	r7,1284(sp)
  804820:	dd401a04 	addi	r21,sp,104
  804824:	d8000e15 	stw	zero,56(sp)
  804828:	003ea706 	br	8042c8 <___vfprintf_internal_r+0x170>
  80482c:	d8800f17 	ldw	r2,60(sp)
  804830:	10053f1e 	bne	r2,zero,805d30 <___vfprintf_internal_r+0x1bd8>
  804834:	d8000e15 	stw	zero,56(sp)
  804838:	b080030b 	ldhu	r2,12(r22)
  80483c:	1080100c 	andi	r2,r2,64
  804840:	103e8726 	beq	r2,zero,804260 <___vfprintf_internal_r+0x108>
  804844:	00bfffc4 	movi	r2,-1
  804848:	d8814c15 	stw	r2,1328(sp)
  80484c:	003e8406 	br	804260 <___vfprintf_internal_r+0x108>
  804850:	d9814e17 	ldw	r6,1336(sp)
  804854:	00801944 	movi	r2,101
  804858:	11806e16 	blt	r2,r6,804a14 <___vfprintf_internal_r+0x8bc>
  80485c:	d9414817 	ldw	r5,1312(sp)
  804860:	00c00044 	movi	r3,1
  804864:	1943430e 	bge	r3,r5,805574 <___vfprintf_internal_r+0x141c>
  804868:	d8814217 	ldw	r2,1288(sp)
  80486c:	94800044 	addi	r18,r18,1
  804870:	8c400044 	addi	r17,r17,1
  804874:	a8800015 	stw	r2,0(r21)
  804878:	008001c4 	movi	r2,7
  80487c:	a8c00115 	stw	r3,4(r21)
  804880:	dc800f15 	stw	r18,60(sp)
  804884:	dc400e15 	stw	r17,56(sp)
  804888:	1441ca16 	blt	r2,r17,804fb4 <___vfprintf_internal_r+0xe5c>
  80488c:	a8c00204 	addi	r3,r21,8
  804890:	d9014a17 	ldw	r4,1320(sp)
  804894:	00800044 	movi	r2,1
  804898:	94800044 	addi	r18,r18,1
  80489c:	8c400044 	addi	r17,r17,1
  8048a0:	18800115 	stw	r2,4(r3)
  8048a4:	008001c4 	movi	r2,7
  8048a8:	19000015 	stw	r4,0(r3)
  8048ac:	dc800f15 	stw	r18,60(sp)
  8048b0:	dc400e15 	stw	r17,56(sp)
  8048b4:	1441b616 	blt	r2,r17,804f90 <___vfprintf_internal_r+0xe38>
  8048b8:	1cc00204 	addi	r19,r3,8
  8048bc:	d9014317 	ldw	r4,1292(sp)
  8048c0:	d9414417 	ldw	r5,1296(sp)
  8048c4:	000d883a 	mov	r6,zero
  8048c8:	000f883a 	mov	r7,zero
  8048cc:	080f3840 	call	80f384 <__nedf2>
  8048d0:	10017426 	beq	r2,zero,804ea4 <___vfprintf_internal_r+0xd4c>
  8048d4:	d9414817 	ldw	r5,1312(sp)
  8048d8:	d9814217 	ldw	r6,1288(sp)
  8048dc:	8c400044 	addi	r17,r17,1
  8048e0:	2c85883a 	add	r2,r5,r18
  8048e4:	14bfffc4 	addi	r18,r2,-1
  8048e8:	28bfffc4 	addi	r2,r5,-1
  8048ec:	30c00044 	addi	r3,r6,1
  8048f0:	98800115 	stw	r2,4(r19)
  8048f4:	008001c4 	movi	r2,7
  8048f8:	98c00015 	stw	r3,0(r19)
  8048fc:	dc800f15 	stw	r18,60(sp)
  804900:	dc400e15 	stw	r17,56(sp)
  804904:	14418e16 	blt	r2,r17,804f40 <___vfprintf_internal_r+0xde8>
  804908:	9cc00204 	addi	r19,r19,8
  80490c:	d9414917 	ldw	r5,1316(sp)
  804910:	d8800904 	addi	r2,sp,36
  804914:	8c400044 	addi	r17,r17,1
  804918:	9165883a 	add	r18,r18,r5
  80491c:	98800015 	stw	r2,0(r19)
  804920:	008001c4 	movi	r2,7
  804924:	99400115 	stw	r5,4(r19)
  804928:	dc800f15 	stw	r18,60(sp)
  80492c:	dc400e15 	stw	r17,56(sp)
  804930:	1440ed16 	blt	r2,r17,804ce8 <___vfprintf_internal_r+0xb90>
  804934:	98c00204 	addi	r3,r19,8
  804938:	003f8506 	br	804750 <___vfprintf_internal_r+0x5f8>
  80493c:	d9814b17 	ldw	r6,1324(sp)
  804940:	d8814617 	ldw	r2,1304(sp)
  804944:	30a1c83a 	sub	r16,r6,r2
  804948:	043f4b0e 	bge	zero,r16,804678 <___vfprintf_internal_r+0x520>
  80494c:	00800404 	movi	r2,16
  804950:	1404340e 	bge	r2,r16,805a24 <___vfprintf_internal_r+0x18cc>
  804954:	1027883a 	mov	r19,r2
  804958:	07002074 	movhi	fp,129
  80495c:	e712f604 	addi	fp,fp,19416
  804960:	050001c4 	movi	r20,7
  804964:	00000306 	br	804974 <___vfprintf_internal_r+0x81c>
  804968:	843ffc04 	addi	r16,r16,-16
  80496c:	ad400204 	addi	r21,r21,8
  804970:	9c00130e 	bge	r19,r16,8049c0 <___vfprintf_internal_r+0x868>
  804974:	94800404 	addi	r18,r18,16
  804978:	8c400044 	addi	r17,r17,1
  80497c:	af000015 	stw	fp,0(r21)
  804980:	acc00115 	stw	r19,4(r21)
  804984:	dc800f15 	stw	r18,60(sp)
  804988:	dc400e15 	stw	r17,56(sp)
  80498c:	a47ff60e 	bge	r20,r17,804968 <___vfprintf_internal_r+0x810>
  804990:	d9015017 	ldw	r4,1344(sp)
  804994:	b00b883a 	mov	r5,r22
  804998:	d9800d04 	addi	r6,sp,52
  80499c:	d9c15215 	stw	r7,1352(sp)
  8049a0:	08041000 	call	804100 <__sprint_r>
  8049a4:	d9c15217 	ldw	r7,1352(sp)
  8049a8:	103fa31e 	bne	r2,zero,804838 <___vfprintf_internal_r+0x6e0>
  8049ac:	843ffc04 	addi	r16,r16,-16
  8049b0:	dc800f17 	ldw	r18,60(sp)
  8049b4:	dc400e17 	ldw	r17,56(sp)
  8049b8:	dd401a04 	addi	r21,sp,104
  8049bc:	9c3fed16 	blt	r19,r16,804974 <___vfprintf_internal_r+0x81c>
  8049c0:	9425883a 	add	r18,r18,r16
  8049c4:	8c400044 	addi	r17,r17,1
  8049c8:	008001c4 	movi	r2,7
  8049cc:	af000015 	stw	fp,0(r21)
  8049d0:	ac000115 	stw	r16,4(r21)
  8049d4:	dc800f15 	stw	r18,60(sp)
  8049d8:	dc400e15 	stw	r17,56(sp)
  8049dc:	14416116 	blt	r2,r17,804f64 <___vfprintf_internal_r+0xe0c>
  8049e0:	ad400204 	addi	r21,r21,8
  8049e4:	003f2406 	br	804678 <___vfprintf_internal_r+0x520>
  8049e8:	d9015017 	ldw	r4,1344(sp)
  8049ec:	080146c0 	call	80146c <__sinit>
  8049f0:	d9c15217 	ldw	r7,1352(sp)
  8049f4:	003def06 	br	8041b4 <___vfprintf_internal_r+0x5c>
  8049f8:	d9015017 	ldw	r4,1344(sp)
  8049fc:	b00b883a 	mov	r5,r22
  804a00:	d9c15215 	stw	r7,1352(sp)
  804a04:	08078200 	call	807820 <__swsetup_r>
  804a08:	d9c15217 	ldw	r7,1352(sp)
  804a0c:	103dee26 	beq	r2,zero,8041c8 <___vfprintf_internal_r+0x70>
  804a10:	003f8c06 	br	804844 <___vfprintf_internal_r+0x6ec>
  804a14:	d9014317 	ldw	r4,1292(sp)
  804a18:	d9414417 	ldw	r5,1296(sp)
  804a1c:	000d883a 	mov	r6,zero
  804a20:	000f883a 	mov	r7,zero
  804a24:	080f2fc0 	call	80f2fc <__eqdf2>
  804a28:	1000f21e 	bne	r2,zero,804df4 <___vfprintf_internal_r+0xc9c>
  804a2c:	00802074 	movhi	r2,129
  804a30:	1092f504 	addi	r2,r2,19412
  804a34:	94800044 	addi	r18,r18,1
  804a38:	8c400044 	addi	r17,r17,1
  804a3c:	a8800015 	stw	r2,0(r21)
  804a40:	00c00044 	movi	r3,1
  804a44:	008001c4 	movi	r2,7
  804a48:	a8c00115 	stw	r3,4(r21)
  804a4c:	dc800f15 	stw	r18,60(sp)
  804a50:	dc400e15 	stw	r17,56(sp)
  804a54:	1442fa16 	blt	r2,r17,805640 <___vfprintf_internal_r+0x14e8>
  804a58:	a8c00204 	addi	r3,r21,8
  804a5c:	d8800617 	ldw	r2,24(sp)
  804a60:	d9014817 	ldw	r4,1312(sp)
  804a64:	11015c0e 	bge	r2,r4,804fd8 <___vfprintf_internal_r+0xe80>
  804a68:	dc400e17 	ldw	r17,56(sp)
  804a6c:	d9814a17 	ldw	r6,1320(sp)
  804a70:	00800044 	movi	r2,1
  804a74:	94800044 	addi	r18,r18,1
  804a78:	8c400044 	addi	r17,r17,1
  804a7c:	18800115 	stw	r2,4(r3)
  804a80:	008001c4 	movi	r2,7
  804a84:	19800015 	stw	r6,0(r3)
  804a88:	dc800f15 	stw	r18,60(sp)
  804a8c:	dc400e15 	stw	r17,56(sp)
  804a90:	14431016 	blt	r2,r17,8056d4 <___vfprintf_internal_r+0x157c>
  804a94:	18c00204 	addi	r3,r3,8
  804a98:	d8814817 	ldw	r2,1312(sp)
  804a9c:	143fffc4 	addi	r16,r2,-1
  804aa0:	043f2b0e 	bge	zero,r16,804750 <___vfprintf_internal_r+0x5f8>
  804aa4:	00800404 	movi	r2,16
  804aa8:	1402a20e 	bge	r2,r16,805534 <___vfprintf_internal_r+0x13dc>
  804aac:	dc400e17 	ldw	r17,56(sp)
  804ab0:	1027883a 	mov	r19,r2
  804ab4:	07002074 	movhi	fp,129
  804ab8:	e712f604 	addi	fp,fp,19416
  804abc:	050001c4 	movi	r20,7
  804ac0:	00000306 	br	804ad0 <___vfprintf_internal_r+0x978>
  804ac4:	18c00204 	addi	r3,r3,8
  804ac8:	843ffc04 	addi	r16,r16,-16
  804acc:	9c029c0e 	bge	r19,r16,805540 <___vfprintf_internal_r+0x13e8>
  804ad0:	94800404 	addi	r18,r18,16
  804ad4:	8c400044 	addi	r17,r17,1
  804ad8:	1f000015 	stw	fp,0(r3)
  804adc:	1cc00115 	stw	r19,4(r3)
  804ae0:	dc800f15 	stw	r18,60(sp)
  804ae4:	dc400e15 	stw	r17,56(sp)
  804ae8:	a47ff60e 	bge	r20,r17,804ac4 <___vfprintf_internal_r+0x96c>
  804aec:	d9015017 	ldw	r4,1344(sp)
  804af0:	b00b883a 	mov	r5,r22
  804af4:	d9800d04 	addi	r6,sp,52
  804af8:	08041000 	call	804100 <__sprint_r>
  804afc:	103f4e1e 	bne	r2,zero,804838 <___vfprintf_internal_r+0x6e0>
  804b00:	dc800f17 	ldw	r18,60(sp)
  804b04:	dc400e17 	ldw	r17,56(sp)
  804b08:	d8c01a04 	addi	r3,sp,104
  804b0c:	003fee06 	br	804ac8 <___vfprintf_internal_r+0x970>
  804b10:	d8802d0b 	ldhu	r2,180(sp)
  804b14:	00ffffc4 	movi	r3,-1
  804b18:	d8c14c15 	stw	r3,1328(sp)
  804b1c:	1080100c 	andi	r2,r2,64
  804b20:	103dcc1e 	bne	r2,zero,804254 <___vfprintf_internal_r+0xfc>
  804b24:	003dce06 	br	804260 <___vfprintf_internal_r+0x108>
  804b28:	d9015017 	ldw	r4,1344(sp)
  804b2c:	b00b883a 	mov	r5,r22
  804b30:	d9800d04 	addi	r6,sp,52
  804b34:	08041000 	call	804100 <__sprint_r>
  804b38:	103f3f1e 	bne	r2,zero,804838 <___vfprintf_internal_r+0x6e0>
  804b3c:	dc800f17 	ldw	r18,60(sp)
  804b40:	003f2e06 	br	8047fc <___vfprintf_internal_r+0x6a4>
  804b44:	d9414d17 	ldw	r5,1332(sp)
  804b48:	29400414 	ori	r5,r5,16
  804b4c:	d9414d15 	stw	r5,1332(sp)
  804b50:	d9814d17 	ldw	r6,1332(sp)
  804b54:	3080080c 	andi	r2,r6,32
  804b58:	10014f1e 	bne	r2,zero,805098 <___vfprintf_internal_r+0xf40>
  804b5c:	d8c14d17 	ldw	r3,1332(sp)
  804b60:	1880040c 	andi	r2,r3,16
  804b64:	1002ea1e 	bne	r2,zero,805710 <___vfprintf_internal_r+0x15b8>
  804b68:	d9014d17 	ldw	r4,1332(sp)
  804b6c:	2080100c 	andi	r2,r4,64
  804b70:	1002e726 	beq	r2,zero,805710 <___vfprintf_internal_r+0x15b8>
  804b74:	3880000f 	ldh	r2,0(r7)
  804b78:	39c00104 	addi	r7,r7,4
  804b7c:	d9c14115 	stw	r7,1284(sp)
  804b80:	1023d7fa 	srai	r17,r2,31
  804b84:	1021883a 	mov	r16,r2
  804b88:	88037216 	blt	r17,zero,805954 <___vfprintf_internal_r+0x17fc>
  804b8c:	01000044 	movi	r4,1
  804b90:	98000416 	blt	r19,zero,804ba4 <___vfprintf_internal_r+0xa4c>
  804b94:	d8c14d17 	ldw	r3,1332(sp)
  804b98:	00bfdfc4 	movi	r2,-129
  804b9c:	1886703a 	and	r3,r3,r2
  804ba0:	d8c14d15 	stw	r3,1332(sp)
  804ba4:	8444b03a 	or	r2,r16,r17
  804ba8:	1002261e 	bne	r2,zero,805444 <___vfprintf_internal_r+0x12ec>
  804bac:	9802251e 	bne	r19,zero,805444 <___vfprintf_internal_r+0x12ec>
  804bb0:	20803fcc 	andi	r2,r4,255
  804bb4:	10029b26 	beq	r2,zero,805624 <___vfprintf_internal_r+0x14cc>
  804bb8:	d8c01a04 	addi	r3,sp,104
  804bbc:	dd001004 	addi	r20,sp,64
  804bc0:	d8c14215 	stw	r3,1288(sp)
  804bc4:	d8c14217 	ldw	r3,1288(sp)
  804bc8:	dcc14615 	stw	r19,1304(sp)
  804bcc:	a0c5c83a 	sub	r2,r20,r3
  804bd0:	11c00a04 	addi	r7,r2,40
  804bd4:	99c0010e 	bge	r19,r7,804bdc <___vfprintf_internal_r+0xa84>
  804bd8:	d9c14615 	stw	r7,1304(sp)
  804bdc:	dcc14715 	stw	r19,1308(sp)
  804be0:	d8800407 	ldb	r2,16(sp)
  804be4:	103e4c26 	beq	r2,zero,804518 <___vfprintf_internal_r+0x3c0>
  804be8:	d8814617 	ldw	r2,1304(sp)
  804bec:	10800044 	addi	r2,r2,1
  804bf0:	d8814615 	stw	r2,1304(sp)
  804bf4:	003e4806 	br	804518 <___vfprintf_internal_r+0x3c0>
  804bf8:	d9814d17 	ldw	r6,1332(sp)
  804bfc:	31800414 	ori	r6,r6,16
  804c00:	d9814d15 	stw	r6,1332(sp)
  804c04:	d8c14d17 	ldw	r3,1332(sp)
  804c08:	1880080c 	andi	r2,r3,32
  804c0c:	1001271e 	bne	r2,zero,8050ac <___vfprintf_internal_r+0xf54>
  804c10:	d9414d17 	ldw	r5,1332(sp)
  804c14:	2880040c 	andi	r2,r5,16
  804c18:	1002b61e 	bne	r2,zero,8056f4 <___vfprintf_internal_r+0x159c>
  804c1c:	d9814d17 	ldw	r6,1332(sp)
  804c20:	3080100c 	andi	r2,r6,64
  804c24:	1002b326 	beq	r2,zero,8056f4 <___vfprintf_internal_r+0x159c>
  804c28:	3c00000b 	ldhu	r16,0(r7)
  804c2c:	0009883a 	mov	r4,zero
  804c30:	39c00104 	addi	r7,r7,4
  804c34:	0023883a 	mov	r17,zero
  804c38:	d9c14115 	stw	r7,1284(sp)
  804c3c:	d8000405 	stb	zero,16(sp)
  804c40:	003fd306 	br	804b90 <___vfprintf_internal_r+0xa38>
  804c44:	d9014d17 	ldw	r4,1332(sp)
  804c48:	21000414 	ori	r4,r4,16
  804c4c:	d9014d15 	stw	r4,1332(sp)
  804c50:	d9414d17 	ldw	r5,1332(sp)
  804c54:	2880080c 	andi	r2,r5,32
  804c58:	1001081e 	bne	r2,zero,80507c <___vfprintf_internal_r+0xf24>
  804c5c:	d8c14d17 	ldw	r3,1332(sp)
  804c60:	1880040c 	andi	r2,r3,16
  804c64:	1002b01e 	bne	r2,zero,805728 <___vfprintf_internal_r+0x15d0>
  804c68:	d9014d17 	ldw	r4,1332(sp)
  804c6c:	2080100c 	andi	r2,r4,64
  804c70:	1002ad26 	beq	r2,zero,805728 <___vfprintf_internal_r+0x15d0>
  804c74:	3c00000b 	ldhu	r16,0(r7)
  804c78:	01000044 	movi	r4,1
  804c7c:	39c00104 	addi	r7,r7,4
  804c80:	0023883a 	mov	r17,zero
  804c84:	d9c14115 	stw	r7,1284(sp)
  804c88:	d8000405 	stb	zero,16(sp)
  804c8c:	003fc006 	br	804b90 <___vfprintf_internal_r+0xa38>
  804c90:	d9015017 	ldw	r4,1344(sp)
  804c94:	b00b883a 	mov	r5,r22
  804c98:	d9800d04 	addi	r6,sp,52
  804c9c:	08041000 	call	804100 <__sprint_r>
  804ca0:	103ee51e 	bne	r2,zero,804838 <___vfprintf_internal_r+0x6e0>
  804ca4:	dc800f17 	ldw	r18,60(sp)
  804ca8:	d8c01a04 	addi	r3,sp,104
  804cac:	d9814d17 	ldw	r6,1332(sp)
  804cb0:	3080004c 	andi	r2,r6,1
  804cb4:	1005003a 	cmpeq	r2,r2,zero
  804cb8:	103ea51e 	bne	r2,zero,804750 <___vfprintf_internal_r+0x5f8>
  804cbc:	00800044 	movi	r2,1
  804cc0:	dc400e17 	ldw	r17,56(sp)
  804cc4:	18800115 	stw	r2,4(r3)
  804cc8:	d8814a17 	ldw	r2,1320(sp)
  804ccc:	94800044 	addi	r18,r18,1
  804cd0:	8c400044 	addi	r17,r17,1
  804cd4:	18800015 	stw	r2,0(r3)
  804cd8:	008001c4 	movi	r2,7
  804cdc:	dc800f15 	stw	r18,60(sp)
  804ce0:	dc400e15 	stw	r17,56(sp)
  804ce4:	14421e0e 	bge	r2,r17,805560 <___vfprintf_internal_r+0x1408>
  804ce8:	d9015017 	ldw	r4,1344(sp)
  804cec:	b00b883a 	mov	r5,r22
  804cf0:	d9800d04 	addi	r6,sp,52
  804cf4:	08041000 	call	804100 <__sprint_r>
  804cf8:	103ecf1e 	bne	r2,zero,804838 <___vfprintf_internal_r+0x6e0>
  804cfc:	dc800f17 	ldw	r18,60(sp)
  804d00:	d8c01a04 	addi	r3,sp,104
  804d04:	003e9206 	br	804750 <___vfprintf_internal_r+0x5f8>
  804d08:	d9015017 	ldw	r4,1344(sp)
  804d0c:	b00b883a 	mov	r5,r22
  804d10:	d9800d04 	addi	r6,sp,52
  804d14:	08041000 	call	804100 <__sprint_r>
  804d18:	103ec026 	beq	r2,zero,80481c <___vfprintf_internal_r+0x6c4>
  804d1c:	003ec606 	br	804838 <___vfprintf_internal_r+0x6e0>
  804d20:	d9015017 	ldw	r4,1344(sp)
  804d24:	b00b883a 	mov	r5,r22
  804d28:	d9800d04 	addi	r6,sp,52
  804d2c:	d9c15215 	stw	r7,1352(sp)
  804d30:	08041000 	call	804100 <__sprint_r>
  804d34:	d9c15217 	ldw	r7,1352(sp)
  804d38:	103ebf1e 	bne	r2,zero,804838 <___vfprintf_internal_r+0x6e0>
  804d3c:	dc800f17 	ldw	r18,60(sp)
  804d40:	dc400e17 	ldw	r17,56(sp)
  804d44:	dd401a04 	addi	r21,sp,104
  804d48:	003e7406 	br	80471c <___vfprintf_internal_r+0x5c4>
  804d4c:	d9015017 	ldw	r4,1344(sp)
  804d50:	b00b883a 	mov	r5,r22
  804d54:	d9800d04 	addi	r6,sp,52
  804d58:	d9c15215 	stw	r7,1352(sp)
  804d5c:	08041000 	call	804100 <__sprint_r>
  804d60:	d9c15217 	ldw	r7,1352(sp)
  804d64:	103eb41e 	bne	r2,zero,804838 <___vfprintf_internal_r+0x6e0>
  804d68:	dd401a04 	addi	r21,sp,104
  804d6c:	003d6d06 	br	804324 <___vfprintf_internal_r+0x1cc>
  804d70:	d9015017 	ldw	r4,1344(sp)
  804d74:	b00b883a 	mov	r5,r22
  804d78:	d9800d04 	addi	r6,sp,52
  804d7c:	d9c15215 	stw	r7,1352(sp)
  804d80:	08041000 	call	804100 <__sprint_r>
  804d84:	d9c15217 	ldw	r7,1352(sp)
  804d88:	103eab1e 	bne	r2,zero,804838 <___vfprintf_internal_r+0x6e0>
  804d8c:	dc800f17 	ldw	r18,60(sp)
  804d90:	dc400e17 	ldw	r17,56(sp)
  804d94:	dd401a04 	addi	r21,sp,104
  804d98:	003e3406 	br	80466c <___vfprintf_internal_r+0x514>
  804d9c:	d9015017 	ldw	r4,1344(sp)
  804da0:	b00b883a 	mov	r5,r22
  804da4:	d9800d04 	addi	r6,sp,52
  804da8:	d9c15215 	stw	r7,1352(sp)
  804dac:	08041000 	call	804100 <__sprint_r>
  804db0:	d9c15217 	ldw	r7,1352(sp)
  804db4:	103ea01e 	bne	r2,zero,804838 <___vfprintf_internal_r+0x6e0>
  804db8:	dc800f17 	ldw	r18,60(sp)
  804dbc:	dc400e17 	ldw	r17,56(sp)
  804dc0:	dd401a04 	addi	r21,sp,104
  804dc4:	003e1c06 	br	804638 <___vfprintf_internal_r+0x4e0>
  804dc8:	d9015017 	ldw	r4,1344(sp)
  804dcc:	b00b883a 	mov	r5,r22
  804dd0:	d9800d04 	addi	r6,sp,52
  804dd4:	d9c15215 	stw	r7,1352(sp)
  804dd8:	08041000 	call	804100 <__sprint_r>
  804ddc:	d9c15217 	ldw	r7,1352(sp)
  804de0:	103e951e 	bne	r2,zero,804838 <___vfprintf_internal_r+0x6e0>
  804de4:	dc800f17 	ldw	r18,60(sp)
  804de8:	dc400e17 	ldw	r17,56(sp)
  804dec:	dd401a04 	addi	r21,sp,104
  804df0:	003e0406 	br	804604 <___vfprintf_internal_r+0x4ac>
  804df4:	d9000617 	ldw	r4,24(sp)
  804df8:	0102520e 	bge	zero,r4,805744 <___vfprintf_internal_r+0x15ec>
  804dfc:	d9814817 	ldw	r6,1312(sp)
  804e00:	21807a16 	blt	r4,r6,804fec <___vfprintf_internal_r+0xe94>
  804e04:	d8814217 	ldw	r2,1288(sp)
  804e08:	91a5883a 	add	r18,r18,r6
  804e0c:	8c400044 	addi	r17,r17,1
  804e10:	a8800015 	stw	r2,0(r21)
  804e14:	008001c4 	movi	r2,7
  804e18:	a9800115 	stw	r6,4(r21)
  804e1c:	dc800f15 	stw	r18,60(sp)
  804e20:	dc400e15 	stw	r17,56(sp)
  804e24:	1442f616 	blt	r2,r17,805a00 <___vfprintf_internal_r+0x18a8>
  804e28:	a8c00204 	addi	r3,r21,8
  804e2c:	d9414817 	ldw	r5,1312(sp)
  804e30:	2161c83a 	sub	r16,r4,r5
  804e34:	043f9d0e 	bge	zero,r16,804cac <___vfprintf_internal_r+0xb54>
  804e38:	00800404 	movi	r2,16
  804e3c:	1402130e 	bge	r2,r16,80568c <___vfprintf_internal_r+0x1534>
  804e40:	dc400e17 	ldw	r17,56(sp)
  804e44:	1027883a 	mov	r19,r2
  804e48:	07002074 	movhi	fp,129
  804e4c:	e712f604 	addi	fp,fp,19416
  804e50:	050001c4 	movi	r20,7
  804e54:	00000306 	br	804e64 <___vfprintf_internal_r+0xd0c>
  804e58:	18c00204 	addi	r3,r3,8
  804e5c:	843ffc04 	addi	r16,r16,-16
  804e60:	9c020d0e 	bge	r19,r16,805698 <___vfprintf_internal_r+0x1540>
  804e64:	94800404 	addi	r18,r18,16
  804e68:	8c400044 	addi	r17,r17,1
  804e6c:	1f000015 	stw	fp,0(r3)
  804e70:	1cc00115 	stw	r19,4(r3)
  804e74:	dc800f15 	stw	r18,60(sp)
  804e78:	dc400e15 	stw	r17,56(sp)
  804e7c:	a47ff60e 	bge	r20,r17,804e58 <___vfprintf_internal_r+0xd00>
  804e80:	d9015017 	ldw	r4,1344(sp)
  804e84:	b00b883a 	mov	r5,r22
  804e88:	d9800d04 	addi	r6,sp,52
  804e8c:	08041000 	call	804100 <__sprint_r>
  804e90:	103e691e 	bne	r2,zero,804838 <___vfprintf_internal_r+0x6e0>
  804e94:	dc800f17 	ldw	r18,60(sp)
  804e98:	dc400e17 	ldw	r17,56(sp)
  804e9c:	d8c01a04 	addi	r3,sp,104
  804ea0:	003fee06 	br	804e5c <___vfprintf_internal_r+0xd04>
  804ea4:	d8814817 	ldw	r2,1312(sp)
  804ea8:	143fffc4 	addi	r16,r2,-1
  804eac:	043e970e 	bge	zero,r16,80490c <___vfprintf_internal_r+0x7b4>
  804eb0:	00800404 	movi	r2,16
  804eb4:	1400180e 	bge	r2,r16,804f18 <___vfprintf_internal_r+0xdc0>
  804eb8:	1029883a 	mov	r20,r2
  804ebc:	07002074 	movhi	fp,129
  804ec0:	e712f604 	addi	fp,fp,19416
  804ec4:	054001c4 	movi	r21,7
  804ec8:	00000306 	br	804ed8 <___vfprintf_internal_r+0xd80>
  804ecc:	9cc00204 	addi	r19,r19,8
  804ed0:	843ffc04 	addi	r16,r16,-16
  804ed4:	a400120e 	bge	r20,r16,804f20 <___vfprintf_internal_r+0xdc8>
  804ed8:	94800404 	addi	r18,r18,16
  804edc:	8c400044 	addi	r17,r17,1
  804ee0:	9f000015 	stw	fp,0(r19)
  804ee4:	9d000115 	stw	r20,4(r19)
  804ee8:	dc800f15 	stw	r18,60(sp)
  804eec:	dc400e15 	stw	r17,56(sp)
  804ef0:	ac7ff60e 	bge	r21,r17,804ecc <___vfprintf_internal_r+0xd74>
  804ef4:	d9015017 	ldw	r4,1344(sp)
  804ef8:	b00b883a 	mov	r5,r22
  804efc:	d9800d04 	addi	r6,sp,52
  804f00:	08041000 	call	804100 <__sprint_r>
  804f04:	103e4c1e 	bne	r2,zero,804838 <___vfprintf_internal_r+0x6e0>
  804f08:	dc800f17 	ldw	r18,60(sp)
  804f0c:	dc400e17 	ldw	r17,56(sp)
  804f10:	dcc01a04 	addi	r19,sp,104
  804f14:	003fee06 	br	804ed0 <___vfprintf_internal_r+0xd78>
  804f18:	07002074 	movhi	fp,129
  804f1c:	e712f604 	addi	fp,fp,19416
  804f20:	9425883a 	add	r18,r18,r16
  804f24:	8c400044 	addi	r17,r17,1
  804f28:	008001c4 	movi	r2,7
  804f2c:	9f000015 	stw	fp,0(r19)
  804f30:	9c000115 	stw	r16,4(r19)
  804f34:	dc800f15 	stw	r18,60(sp)
  804f38:	dc400e15 	stw	r17,56(sp)
  804f3c:	147e720e 	bge	r2,r17,804908 <___vfprintf_internal_r+0x7b0>
  804f40:	d9015017 	ldw	r4,1344(sp)
  804f44:	b00b883a 	mov	r5,r22
  804f48:	d9800d04 	addi	r6,sp,52
  804f4c:	08041000 	call	804100 <__sprint_r>
  804f50:	103e391e 	bne	r2,zero,804838 <___vfprintf_internal_r+0x6e0>
  804f54:	dc800f17 	ldw	r18,60(sp)
  804f58:	dc400e17 	ldw	r17,56(sp)
  804f5c:	dcc01a04 	addi	r19,sp,104
  804f60:	003e6a06 	br	80490c <___vfprintf_internal_r+0x7b4>
  804f64:	d9015017 	ldw	r4,1344(sp)
  804f68:	b00b883a 	mov	r5,r22
  804f6c:	d9800d04 	addi	r6,sp,52
  804f70:	d9c15215 	stw	r7,1352(sp)
  804f74:	08041000 	call	804100 <__sprint_r>
  804f78:	d9c15217 	ldw	r7,1352(sp)
  804f7c:	103e2e1e 	bne	r2,zero,804838 <___vfprintf_internal_r+0x6e0>
  804f80:	dc800f17 	ldw	r18,60(sp)
  804f84:	dc400e17 	ldw	r17,56(sp)
  804f88:	dd401a04 	addi	r21,sp,104
  804f8c:	003dba06 	br	804678 <___vfprintf_internal_r+0x520>
  804f90:	d9015017 	ldw	r4,1344(sp)
  804f94:	b00b883a 	mov	r5,r22
  804f98:	d9800d04 	addi	r6,sp,52
  804f9c:	08041000 	call	804100 <__sprint_r>
  804fa0:	103e251e 	bne	r2,zero,804838 <___vfprintf_internal_r+0x6e0>
  804fa4:	dc800f17 	ldw	r18,60(sp)
  804fa8:	dc400e17 	ldw	r17,56(sp)
  804fac:	dcc01a04 	addi	r19,sp,104
  804fb0:	003e4206 	br	8048bc <___vfprintf_internal_r+0x764>
  804fb4:	d9015017 	ldw	r4,1344(sp)
  804fb8:	b00b883a 	mov	r5,r22
  804fbc:	d9800d04 	addi	r6,sp,52
  804fc0:	08041000 	call	804100 <__sprint_r>
  804fc4:	103e1c1e 	bne	r2,zero,804838 <___vfprintf_internal_r+0x6e0>
  804fc8:	dc800f17 	ldw	r18,60(sp)
  804fcc:	dc400e17 	ldw	r17,56(sp)
  804fd0:	d8c01a04 	addi	r3,sp,104
  804fd4:	003e2e06 	br	804890 <___vfprintf_internal_r+0x738>
  804fd8:	d9414d17 	ldw	r5,1332(sp)
  804fdc:	2880004c 	andi	r2,r5,1
  804fe0:	1005003a 	cmpeq	r2,r2,zero
  804fe4:	103dda1e 	bne	r2,zero,804750 <___vfprintf_internal_r+0x5f8>
  804fe8:	003e9f06 	br	804a68 <___vfprintf_internal_r+0x910>
  804fec:	d8c14217 	ldw	r3,1288(sp)
  804ff0:	9125883a 	add	r18,r18,r4
  804ff4:	8c400044 	addi	r17,r17,1
  804ff8:	008001c4 	movi	r2,7
  804ffc:	a8c00015 	stw	r3,0(r21)
  805000:	a9000115 	stw	r4,4(r21)
  805004:	dc800f15 	stw	r18,60(sp)
  805008:	dc400e15 	stw	r17,56(sp)
  80500c:	14426616 	blt	r2,r17,8059a8 <___vfprintf_internal_r+0x1850>
  805010:	a8c00204 	addi	r3,r21,8
  805014:	d9414a17 	ldw	r5,1320(sp)
  805018:	00800044 	movi	r2,1
  80501c:	94800044 	addi	r18,r18,1
  805020:	8c400044 	addi	r17,r17,1
  805024:	18800115 	stw	r2,4(r3)
  805028:	008001c4 	movi	r2,7
  80502c:	19400015 	stw	r5,0(r3)
  805030:	dc800f15 	stw	r18,60(sp)
  805034:	dc400e15 	stw	r17,56(sp)
  805038:	2021883a 	mov	r16,r4
  80503c:	14425016 	blt	r2,r17,805980 <___vfprintf_internal_r+0x1828>
  805040:	19400204 	addi	r5,r3,8
  805044:	d9814817 	ldw	r6,1312(sp)
  805048:	8c400044 	addi	r17,r17,1
  80504c:	dc400e15 	stw	r17,56(sp)
  805050:	3107c83a 	sub	r3,r6,r4
  805054:	d9014217 	ldw	r4,1288(sp)
  805058:	90e5883a 	add	r18,r18,r3
  80505c:	28c00115 	stw	r3,4(r5)
  805060:	8105883a 	add	r2,r16,r4
  805064:	28800015 	stw	r2,0(r5)
  805068:	008001c4 	movi	r2,7
  80506c:	dc800f15 	stw	r18,60(sp)
  805070:	147f1d16 	blt	r2,r17,804ce8 <___vfprintf_internal_r+0xb90>
  805074:	28c00204 	addi	r3,r5,8
  805078:	003db506 	br	804750 <___vfprintf_internal_r+0x5f8>
  80507c:	3c000017 	ldw	r16,0(r7)
  805080:	3c400117 	ldw	r17,4(r7)
  805084:	39800204 	addi	r6,r7,8
  805088:	01000044 	movi	r4,1
  80508c:	d9814115 	stw	r6,1284(sp)
  805090:	d8000405 	stb	zero,16(sp)
  805094:	003ebe06 	br	804b90 <___vfprintf_internal_r+0xa38>
  805098:	3c000017 	ldw	r16,0(r7)
  80509c:	3c400117 	ldw	r17,4(r7)
  8050a0:	38800204 	addi	r2,r7,8
  8050a4:	d8814115 	stw	r2,1284(sp)
  8050a8:	003eb706 	br	804b88 <___vfprintf_internal_r+0xa30>
  8050ac:	3c000017 	ldw	r16,0(r7)
  8050b0:	3c400117 	ldw	r17,4(r7)
  8050b4:	39000204 	addi	r4,r7,8
  8050b8:	d9014115 	stw	r4,1284(sp)
  8050bc:	0009883a 	mov	r4,zero
  8050c0:	d8000405 	stb	zero,16(sp)
  8050c4:	003eb206 	br	804b90 <___vfprintf_internal_r+0xa38>
  8050c8:	38c00017 	ldw	r3,0(r7)
  8050cc:	39c00104 	addi	r7,r7,4
  8050d0:	d8c14b15 	stw	r3,1324(sp)
  8050d4:	1800d10e 	bge	r3,zero,80541c <___vfprintf_internal_r+0x12c4>
  8050d8:	00c7c83a 	sub	r3,zero,r3
  8050dc:	d8c14b15 	stw	r3,1324(sp)
  8050e0:	d9014d17 	ldw	r4,1332(sp)
  8050e4:	b8c00007 	ldb	r3,0(r23)
  8050e8:	21000114 	ori	r4,r4,4
  8050ec:	d9014d15 	stw	r4,1332(sp)
  8050f0:	003c9806 	br	804354 <___vfprintf_internal_r+0x1fc>
  8050f4:	d9814d17 	ldw	r6,1332(sp)
  8050f8:	3080080c 	andi	r2,r6,32
  8050fc:	1001f026 	beq	r2,zero,8058c0 <___vfprintf_internal_r+0x1768>
  805100:	d9014c17 	ldw	r4,1328(sp)
  805104:	38800017 	ldw	r2,0(r7)
  805108:	39c00104 	addi	r7,r7,4
  80510c:	d9c14115 	stw	r7,1284(sp)
  805110:	2007d7fa 	srai	r3,r4,31
  805114:	d9c14117 	ldw	r7,1284(sp)
  805118:	11000015 	stw	r4,0(r2)
  80511c:	10c00115 	stw	r3,4(r2)
  805120:	003c6906 	br	8042c8 <___vfprintf_internal_r+0x170>
  805124:	b8c00007 	ldb	r3,0(r23)
  805128:	00801b04 	movi	r2,108
  80512c:	18824f26 	beq	r3,r2,805a6c <___vfprintf_internal_r+0x1914>
  805130:	d9414d17 	ldw	r5,1332(sp)
  805134:	29400414 	ori	r5,r5,16
  805138:	d9414d15 	stw	r5,1332(sp)
  80513c:	003c8506 	br	804354 <___vfprintf_internal_r+0x1fc>
  805140:	d9814d17 	ldw	r6,1332(sp)
  805144:	b8c00007 	ldb	r3,0(r23)
  805148:	31800814 	ori	r6,r6,32
  80514c:	d9814d15 	stw	r6,1332(sp)
  805150:	003c8006 	br	804354 <___vfprintf_internal_r+0x1fc>
  805154:	d8814d17 	ldw	r2,1332(sp)
  805158:	3c000017 	ldw	r16,0(r7)
  80515c:	00c01e04 	movi	r3,120
  805160:	10800094 	ori	r2,r2,2
  805164:	d8814d15 	stw	r2,1332(sp)
  805168:	39c00104 	addi	r7,r7,4
  80516c:	01402074 	movhi	r5,129
  805170:	2952de04 	addi	r5,r5,19320
  805174:	00800c04 	movi	r2,48
  805178:	0023883a 	mov	r17,zero
  80517c:	01000084 	movi	r4,2
  805180:	d9c14115 	stw	r7,1284(sp)
  805184:	d8c14e15 	stw	r3,1336(sp)
  805188:	d9414515 	stw	r5,1300(sp)
  80518c:	d8800505 	stb	r2,20(sp)
  805190:	d8c00545 	stb	r3,21(sp)
  805194:	d8000405 	stb	zero,16(sp)
  805198:	003e7d06 	br	804b90 <___vfprintf_internal_r+0xa38>
  80519c:	d8814d17 	ldw	r2,1332(sp)
  8051a0:	b8c00007 	ldb	r3,0(r23)
  8051a4:	10801014 	ori	r2,r2,64
  8051a8:	d8814d15 	stw	r2,1332(sp)
  8051ac:	003c6906 	br	804354 <___vfprintf_internal_r+0x1fc>
  8051b0:	d9414d17 	ldw	r5,1332(sp)
  8051b4:	2880020c 	andi	r2,r5,8
  8051b8:	1001df26 	beq	r2,zero,805938 <___vfprintf_internal_r+0x17e0>
  8051bc:	39800017 	ldw	r6,0(r7)
  8051c0:	38800204 	addi	r2,r7,8
  8051c4:	d8814115 	stw	r2,1284(sp)
  8051c8:	d9814315 	stw	r6,1292(sp)
  8051cc:	39c00117 	ldw	r7,4(r7)
  8051d0:	d9c14415 	stw	r7,1296(sp)
  8051d4:	d9014317 	ldw	r4,1292(sp)
  8051d8:	d9414417 	ldw	r5,1296(sp)
  8051dc:	080a7b80 	call	80a7b8 <__isinfd>
  8051e0:	10021726 	beq	r2,zero,805a40 <___vfprintf_internal_r+0x18e8>
  8051e4:	d9014317 	ldw	r4,1292(sp)
  8051e8:	d9414417 	ldw	r5,1296(sp)
  8051ec:	000d883a 	mov	r6,zero
  8051f0:	000f883a 	mov	r7,zero
  8051f4:	080f51c0 	call	80f51c <__ltdf2>
  8051f8:	1002ca16 	blt	r2,zero,805d24 <___vfprintf_internal_r+0x1bcc>
  8051fc:	d9414e17 	ldw	r5,1336(sp)
  805200:	008011c4 	movi	r2,71
  805204:	11420a16 	blt	r2,r5,805a30 <___vfprintf_internal_r+0x18d8>
  805208:	01802074 	movhi	r6,129
  80520c:	3192e304 	addi	r6,r6,19340
  805210:	d9814215 	stw	r6,1288(sp)
  805214:	d9014d17 	ldw	r4,1332(sp)
  805218:	00c000c4 	movi	r3,3
  80521c:	00bfdfc4 	movi	r2,-129
  805220:	2088703a 	and	r4,r4,r2
  805224:	180f883a 	mov	r7,r3
  805228:	d8c14615 	stw	r3,1304(sp)
  80522c:	d9014d15 	stw	r4,1332(sp)
  805230:	d8014715 	stw	zero,1308(sp)
  805234:	003e6a06 	br	804be0 <___vfprintf_internal_r+0xa88>
  805238:	38800017 	ldw	r2,0(r7)
  80523c:	00c00044 	movi	r3,1
  805240:	39c00104 	addi	r7,r7,4
  805244:	d9c14115 	stw	r7,1284(sp)
  805248:	d9001004 	addi	r4,sp,64
  80524c:	180f883a 	mov	r7,r3
  805250:	d8c14615 	stw	r3,1304(sp)
  805254:	d9014215 	stw	r4,1288(sp)
  805258:	d8801005 	stb	r2,64(sp)
  80525c:	d8000405 	stb	zero,16(sp)
  805260:	003cac06 	br	804514 <___vfprintf_internal_r+0x3bc>
  805264:	01402074 	movhi	r5,129
  805268:	2952e904 	addi	r5,r5,19364
  80526c:	d9414515 	stw	r5,1300(sp)
  805270:	d9814d17 	ldw	r6,1332(sp)
  805274:	3080080c 	andi	r2,r6,32
  805278:	1000f926 	beq	r2,zero,805660 <___vfprintf_internal_r+0x1508>
  80527c:	3c000017 	ldw	r16,0(r7)
  805280:	3c400117 	ldw	r17,4(r7)
  805284:	38800204 	addi	r2,r7,8
  805288:	d8814115 	stw	r2,1284(sp)
  80528c:	d9414d17 	ldw	r5,1332(sp)
  805290:	2880004c 	andi	r2,r5,1
  805294:	1005003a 	cmpeq	r2,r2,zero
  805298:	1000b31e 	bne	r2,zero,805568 <___vfprintf_internal_r+0x1410>
  80529c:	8444b03a 	or	r2,r16,r17
  8052a0:	1000b126 	beq	r2,zero,805568 <___vfprintf_internal_r+0x1410>
  8052a4:	d9814e17 	ldw	r6,1336(sp)
  8052a8:	29400094 	ori	r5,r5,2
  8052ac:	00800c04 	movi	r2,48
  8052b0:	01000084 	movi	r4,2
  8052b4:	d9414d15 	stw	r5,1332(sp)
  8052b8:	d8800505 	stb	r2,20(sp)
  8052bc:	d9800545 	stb	r6,21(sp)
  8052c0:	d8000405 	stb	zero,16(sp)
  8052c4:	003e3206 	br	804b90 <___vfprintf_internal_r+0xa38>
  8052c8:	01802074 	movhi	r6,129
  8052cc:	3192de04 	addi	r6,r6,19320
  8052d0:	d9814515 	stw	r6,1300(sp)
  8052d4:	003fe606 	br	805270 <___vfprintf_internal_r+0x1118>
  8052d8:	00800ac4 	movi	r2,43
  8052dc:	d8800405 	stb	r2,16(sp)
  8052e0:	b8c00007 	ldb	r3,0(r23)
  8052e4:	003c1b06 	br	804354 <___vfprintf_internal_r+0x1fc>
  8052e8:	d8814d17 	ldw	r2,1332(sp)
  8052ec:	b8c00007 	ldb	r3,0(r23)
  8052f0:	10800054 	ori	r2,r2,1
  8052f4:	d8814d15 	stw	r2,1332(sp)
  8052f8:	003c1606 	br	804354 <___vfprintf_internal_r+0x1fc>
  8052fc:	d8800407 	ldb	r2,16(sp)
  805300:	1000461e 	bne	r2,zero,80541c <___vfprintf_internal_r+0x12c4>
  805304:	00800804 	movi	r2,32
  805308:	d8800405 	stb	r2,16(sp)
  80530c:	b8c00007 	ldb	r3,0(r23)
  805310:	003c1006 	br	804354 <___vfprintf_internal_r+0x1fc>
  805314:	d9814d17 	ldw	r6,1332(sp)
  805318:	b8c00007 	ldb	r3,0(r23)
  80531c:	31800214 	ori	r6,r6,8
  805320:	d9814d15 	stw	r6,1332(sp)
  805324:	003c0b06 	br	804354 <___vfprintf_internal_r+0x1fc>
  805328:	0007883a 	mov	r3,zero
  80532c:	01000244 	movi	r4,9
  805330:	188002a4 	muli	r2,r3,10
  805334:	b8c00007 	ldb	r3,0(r23)
  805338:	d9814e17 	ldw	r6,1336(sp)
  80533c:	bdc00044 	addi	r23,r23,1
  805340:	d8c14e15 	stw	r3,1336(sp)
  805344:	d9414e17 	ldw	r5,1336(sp)
  805348:	3085883a 	add	r2,r6,r2
  80534c:	10fff404 	addi	r3,r2,-48
  805350:	28bff404 	addi	r2,r5,-48
  805354:	20bff62e 	bgeu	r4,r2,805330 <___vfprintf_internal_r+0x11d8>
  805358:	d8c14b15 	stw	r3,1324(sp)
  80535c:	003bff06 	br	80435c <___vfprintf_internal_r+0x204>
  805360:	d9414d17 	ldw	r5,1332(sp)
  805364:	b8c00007 	ldb	r3,0(r23)
  805368:	29402014 	ori	r5,r5,128
  80536c:	d9414d15 	stw	r5,1332(sp)
  805370:	003bf806 	br	804354 <___vfprintf_internal_r+0x1fc>
  805374:	b8c00007 	ldb	r3,0(r23)
  805378:	00800a84 	movi	r2,42
  80537c:	bdc00044 	addi	r23,r23,1
  805380:	18831526 	beq	r3,r2,805fd8 <___vfprintf_internal_r+0x1e80>
  805384:	d8c14e15 	stw	r3,1336(sp)
  805388:	18bff404 	addi	r2,r3,-48
  80538c:	00c00244 	movi	r3,9
  805390:	18827836 	bltu	r3,r2,805d74 <___vfprintf_internal_r+0x1c1c>
